 ac_client

 Timestamp is 64883b53 (Tue Jun 13 05:48:03 2023)

 Preferred load address is 00400000

 Start         Length     Name                   Class
 0001:00000000 00005890H .text                   CODE
 0001:00005890 0000a840H .text$di                CODE
 0001:000100d0 00111f50H .text$mn                CODE
 0001:00122020 000000e0H .text$x                 CODE
 0001:00122100 00001c0eH .text$yd                CODE
 0002:00000000 00000584H .idata$5                DATA
 0002:00000584 00000004H .00cfg                  DATA
 0002:00000588 00000004H .CRT$XCA                DATA
 0002:0000058c 00000004H .CRT$XCAA               DATA
 0002:00000590 00000fa0H .CRT$XCU                DATA
 0002:00001530 00000004H .CRT$XCZ                DATA
 0002:00001534 00000004H .CRT$XIA                DATA
 0002:00001538 00000004H .CRT$XIAA               DATA
 0002:0000153c 00000004H .CRT$XIAC               DATA
 0002:00001540 00000018H .CRT$XIC                DATA
 0002:00001558 00000004H .CRT$XIZ                DATA
 0002:0000155c 00000004H .CRT$XLA                DATA
 0002:00001560 00000004H .CRT$XLZ                DATA
 0002:00001564 00000004H .CRT$XPA                DATA
 0002:00001568 00000008H .CRT$XPX                DATA
 0002:00001570 00000004H .CRT$XPXA               DATA
 0002:00001574 00000004H .CRT$XPZ                DATA
 0002:00001578 00000004H .CRT$XTA                DATA
 0002:0000157c 00000004H .CRT$XTZ                DATA
 0002:00001580 00000000H .gfids$y                DATA
 0002:00001580 0003f280H .rdata                  DATA
 0002:00040800 00000000H .rdata$CastGuardVftablesA DATA
 0002:00040800 00000000H .rdata$CastGuardVftablesC DATA
 0002:00040800 00000018H .rdata$T                DATA
 0002:00040818 00001c54H .rdata$r                DATA
 0002:0004246c 00000018H .rdata$voltmd           DATA
 0002:00042484 0000008cH .rdata$zzz              DATA
 0002:00042510 0000044cH .rdata$zzzdbg           DATA
 0002:0004295c 00000004H .rtc$IAA                DATA
 0002:00042960 00000004H .rtc$IZZ                DATA
 0002:00042964 00000004H .rtc$TAA                DATA
 0002:00042968 00000004H .rtc$TZZ                DATA
 0002:0004296c 00000004H .tls                    DATA
 0002:00042970 00000004H .tls$                   DATA
 0002:00042974 00000004H .tls$ZZZ                DATA
 0002:00042978 000009ccH .xdata$x                DATA
 0002:00043344 00000000H .edata                  DATA
 0002:00043344 00000104H .idata$2                DATA
 0002:00043448 00000014H .idata$3                DATA
 0002:0004345c 00000584H .idata$4                DATA
 0002:000439e0 00001634H .idata$6                DATA
 0003:00000000 00011400H .data                   DATA
 0003:00011400 00000080H .data$r                 DATA
 0003:00011480 000009e0H .data$rs                DATA
 0003:00011e60 00027b7cH .bss                    DATA
 0004:00000000 00002608H _RDATA                  DATA
 0005:00000000 000001c0H .rsrc$01                DATA
 0005:000001c0 00010ce8H .rsrc$02                DATA

  Address         Publics by Value              Rva+Base       Lib:Object

 0000:00000000       ___x64_code_ranges_to_entry_points 00000000     <absolute>
 0000:00000000       ___guard_eh_cont_count     00000000     <absolute>
 0000:00000000       ___arm64x_redirection_metadata 00000000     <absolute>
 0000:00000000       ___arm64x_extra_rfe_table  00000000     <absolute>
 0000:00000000       ___guard_longjmp_table     00000000     <absolute>
 0000:00000000       ___hybrid_code_map         00000000     <absolute>
 0000:00000000       ___arm64x_native_entrypoint 00000000     <absolute>
 0000:00000000       ___safe_se_handler_table   00000000     <absolute>
 0000:00000000       ___guard_fids_count        00000000     <absolute>
 0000:00000000       ___arm64x_extra_rfe_table_size 00000000     <absolute>
 0000:00000000       ___guard_eh_cont_table     00000000     <absolute>
 0000:00000000       ___guard_iat_count         00000000     <absolute>
 0000:00000000       ___hybrid_code_map_count   00000000     <absolute>
 0000:00000000       __except_list              00000000     <absolute>
 0000:00000000       ___x64_code_ranges_to_entry_points_count 00000000     <absolute>
 0000:00000000       ___guard_iat_table         00000000     <absolute>
 0000:00000000       ___hybrid_auxiliary_iat    00000000     <absolute>
 0000:00000000       ___dynamic_value_reloc_table 00000000     <absolute>
 0000:00000000       ___safe_se_handler_count   00000000     <absolute>
 0000:00000000       ___AbsoluteZero            00000000     <absolute>
 0000:00000000       ___guard_longjmp_count     00000000     <absolute>
 0000:00000000       ___guard_check_icall_a64n_fptr 00000000     <absolute>
 0000:00000000       ___arm64x_redirection_metadata_count 00000000     <absolute>
 0000:00000000       ___enclave_config          00000000     <absolute>
 0000:00000000       ___guard_fids_table        00000000     <absolute>
 0000:00000000       ___hybrid_auxiliary_iat_copy 00000000     <absolute>
 0000:0000002c       __tls_array                0000002c     <absolute>
 0000:00000100       ___guard_flags             00000100     <absolute>
 0000:00000000       ___ImageBase               00400000     <linker-defined>
 0001:000000c0       _enet_peer_throttle        004010c0 f   enet:peer.o
 0001:00000140       _enet_peer_receive         00401140 f   enet:peer.o
 0001:000001a0       _enet_peer_reset_queues    004011a0 f   enet:peer.o
 0001:000002a0       _enet_peer_reset           004012a0 f   enet:peer.o
 0001:00000440       _enet_peer_ping_interval   00401440 f   enet:peer.o
 0001:00000460       _enet_peer_timeout         00401460 f   enet:peer.o
 0001:000004b0       _enet_peer_queue_acknowledgement 004014b0 f   enet:peer.o
 0001:00000590       _enet_peer_setup_outgoing_command 00401590 f   enet:peer.o
 0001:00000710       _enet_peer_queue_outgoing_command 00401710 f   enet:peer.o
 0001:000007c0       _enet_peer_throttle_configure 004017c0 f   enet:peer.o
 0001:00000850       _enet_peer_send            00401850 f   enet:peer.o
 0001:00000b60       _enet_peer_ping            00401b60 f   enet:peer.o
 0001:00000bb0       _enet_peer_disconnect_now  00401bb0 f   enet:peer.o
 0001:00000c30       _enet_peer_disconnect      00401c30 f   enet:peer.o
 0001:00000cf0       _enet_peer_disconnect_later 00401cf0 f   enet:peer.o
 0001:00000d50       _enet_peer_dispatch_incoming_unreliable_commands 00401d50 f   enet:peer.o
 0001:00000f90       _enet_peer_dispatch_incoming_reliable_commands 00401f90 f   enet:peer.o
 0001:00001090       _enet_peer_queue_incoming_command 00402090 f   enet:peer.o
 0001:00001410       _enet_host_create          00402410 f   enet:host.o
 0001:00001790       _enet_host_destroy         00402790 f   enet:host.o
 0001:00001820       _enet_host_connect         00402820 f   enet:host.o
 0001:00001ab0       _enet_host_broadcast       00402ab0 f   enet:host.o
 0001:00001b30       _enet_host_compress        00402b30 f   enet:host.o
 0001:00001ba0       _enet_host_channel_limit   00402ba0 f   enet:host.o
 0001:00001bc0       _enet_host_bandwidth_limit 00402bc0 f   enet:host.o
 0001:00001be0       _enet_host_bandwidth_throttle 00402be0 f   enet:host.o
 0001:000030f0       _enet_protocol_command_size 004040f0 f   enet:protocol.o
 0001:00003100       _enet_host_flush           00404100 f   enet:protocol.o
 0001:00003120       _enet_host_check_events    00404120 f   enet:protocol.o
 0001:00003150       _enet_host_service         00404150 f   enet:protocol.o
 0001:00004b10       _enet_packet_create        00405b10 f   enet:packet.o
 0001:00004bb0       _enet_packet_destroy       00405bb0 f   enet:packet.o
 0001:00004c00       _enet_packet_resize        00405c00 f   enet:packet.o
 0001:00004c60       _enet_crc32                00405c60 f   enet:packet.o
 0001:00004ce0       _enet_crc32_inc            00405ce0 f   enet:packet.o
 0001:00004d10       _enet_initialize           00405d10 f   enet:win32.o
 0001:00004d80       _enet_deinitialize         00405d80 f   enet:win32.o
 0001:00004da0       _enet_time_get             00405da0 f   enet:win32.o
 0001:00004dc0       _enet_time_set             00405dc0 f   enet:win32.o
 0001:00004de0       _enet_address_set_host     00405de0 f   enet:win32.o
 0001:00004e40       _enet_address_get_host_ip  00405e40 f   enet:win32.o
 0001:00004e90       _enet_address_get_host     00405e90 f   enet:win32.o
 0001:00004f10       _enet_socket_bind          00405f10 f   enet:win32.o
 0001:00004f90       _enet_socket_listen        00405f90 f   enet:win32.o
 0001:00004fd0       _enet_socket_create        00405fd0 f   enet:win32.o
 0001:00005000       _enet_socket_set_option    00406000 f   enet:win32.o
 0001:00005150       _enet_socket_connect       00406150 f   enet:win32.o
 0001:000051f0       _enet_socket_accept        004061f0 f   enet:win32.o
 0001:00005280       _enet_socket_shutdown      00406280 f   enet:win32.o
 0001:000052b0       _enet_socket_destroy       004062b0 f   enet:win32.o
 0001:000052d0       _enet_socket_send          004062d0 f   enet:win32.o
 0001:000053b0       _enet_socket_receive       004063b0 f   enet:win32.o
 0001:000054a0       _enet_socketset_select     004064a0 f   enet:win32.o
 0001:00005500       _enet_socket_wait          00406500 f   enet:win32.o
 0001:00005610       _enet_initialize_with_callbacks 00406610 f   enet:callbacks.o
 0001:00005660       _enet_malloc               00406660 f   enet:callbacks.o
 0001:000056a0       _enet_free                 004066a0 f   enet:callbacks.o
 0001:000056b0       _enet_list_clear           004066b0 f   enet:list.o
 0001:000056c0       _enet_list_insert          004066c0 f   enet:list.o
 0001:000056e0       _enet_list_remove          004066e0 f   enet:list.o
 0001:00005700       _enet_list_move            00406700 f   enet:list.o
 0001:00005730       _enet_list_size            00406730 f   enet:list.o
 0001:00005880       _WinMain@16                00406880 f   SDL2main:SDL_windows_main.obj
 0001:000100d0       ??1stripbatch@@QAE@XZ      004110d0 f i rendercubes.obj
 0001:000101a0       ?add@?$vector@Ushadowvertex@@@@QAEAAUshadowvertex@@XZ 004111a0 f i rendercubes.obj
 0001:00010250       ?add@?$vector@Uvertex@@@@QAEAAUvertex@@XZ 00411250 f i rendercubes.obj
 0001:00010300       ?add@?$vector@H@@QAEAAHABH@Z 00411300 f i rendercubes.obj
 0001:00010340       ?growbuf@?$vector@H@@QAEXH@Z 00411340 f i rendercubes.obj
 0001:000103b0       ??4physent@@QAEAAV0@ABV0@@Z 004113b0 f i rendergl.obj
 0001:000104c0       ??$mul@MM@glmatrixf@@QAEXQBM0@Z 004114c0 f i rendergl.obj
 0001:00010860       ??_Ephysent@@UAEPAXI@Z     00411860 f i * CIL library *:* CIL module *
 0001:00010860       ??_Gphysent@@UAEPAXI@Z     00411860 f i rendergl.obj
 0001:00010890       ?reset@weapon@@UAEXXZ      00411890 f i weapon.obj
 0001:00010890       ?startrender@model@@UAEXXZ 00411890 f i rendermodel.obj
 0001:00010890       ?ondeselecting@weapon@@UAEXXZ 00411890 f i weapon.obj
 0001:00010890       __initialize_invalid_parameter_handler 00411890 f i LIBCMT:invalid_parameter_handler.obj
 0001:00010890       ?init@mitem@@UAEXXZ        00411890 f i menus.obj
 0001:00010890       ?clear@serverconfigfile@@UAEXXZ 00411890 f i server.obj
 0001:00010890       ?onammopicked@weapon@@UAEXXZ 00411890 f i weapon.obj
 0001:00010890       ?onownerdies@weapon@@UAEXXZ 00411890 f i weapon.obj
 0001:00010890       ?read@serverconfigfile@@UAEXXZ 00411890 f i server.obj
 0001:00010890       ?endgenshadow@part@vertmodel@@UAEXXZ 00411890 f i rendermodel.obj
 0001:00010890       ?perform@recorddemoaction@@UAEXXZ 00411890 f i server.obj
 0001:00010890       ?AddDebugText@@YAXPBDZZ    00411890 f i ac_bot_ai.obj
 0001:00010890       @_guard_check_icall_nop@4  00411890 f i LIBCMT:guard_support.obj
 0001:00010890       ?fflush@stream@@UAEXXZ     00411890 f i stream.obj
 0001:00010890       ?destroy@bounceent@@UAEXXZ 00411890 f i entities.obj
 0001:00010890       __initialize_denormal_control 00411890 f i LIBCMT:denormal_control.obj
 0001:00010890       ?begingenshadow@part@vertmodel@@UAEXXZ 00411890 f i rendermodel.obj
 0001:00010890       ?endrender@model@@UAEXXZ   00411890 f i rendermodel.obj
 0001:00010890       ?oncollision@physent@@UAEXXZ 00411890 f i rendergl.obj
 0001:00010890       ?detach@worldobjreference@@UAEXXZ 00411890 f i clients2c.obj
 0001:00010890       ?attach@worldobjreference@@UAEXXZ 00411890 f i clients2c.obj
 0001:000108a0       ?onmoved@physent@@UAEXABUvec@@@Z 004118a0 f i rendergl.obj
 0001:000108a0       ?say@mitem@@UAEXPBD@Z      004118a0 f i menus.obj
 0001:000108a0       ?focus@mitem@@UAEX_N@Z     004118a0 f i menus.obj
 0001:000108a0       ?removebounceent@weapon@@UAEXPAVbounceent@@@Z 004118a0 f i weapon.obj
 0001:000108b0       ?reset@physent@@QAEXXZ     004118b0 f i rendergl.obj
 0001:00010910       ??0physent@@QAE@XZ         00411910 f i rendergl.obj
 0001:000109f0       ?isspectating@playerent@@QAE_NXZ 004119f0 f i rendergl.obj
 0001:00010a10       ?addline@hudmessages@@QAEXPBD@Z 00411a10 f i renderhud.obj
 0001:00010a70       ?render@hudmessages@@UAEXXZ 00411a70 f i renderhud.obj
 0001:00010c20       ??_Ghudmessages@@UAEPAXI@Z 00411c20 f i renderhud.obj
 0001:00010c20       ??_E?$consolebuffer@Uhudline@@@@UAEPAXI@Z 00411c20 f i * CIL library *:* CIL module *
 0001:00010c20       ??_Ehudmessages@@UAEPAXI@Z 00411c20 f i * CIL library *:* CIL module *
 0001:00010c20       ??_G?$consolebuffer@Uhudline@@@@UAEPAXI@Z 00411c20 f i renderhud.obj
 0001:00010c40       ??1?$consolebuffer@Uhudline@@@@UAE@XZ 00411c40 f i renderhud.obj
 0001:00010c90       ?addline@?$consolebuffer@Uhudline@@@@QAEAAUhudline@@PBDH@Z 00411c90 f i renderhud.obj
 0001:00010e00       ?newstring@@YAPADPBDI@Z    00411e00 f i renderhud.obj
 0001:00010e30       ?timestring@@YAPBD_NPBDPAD@Z 00411e30 f i renderhud.obj
 0001:00010ea0       ?copystring@@YAPADPADPBDI@Z 00411ea0 f i renderhud.obj
 0001:00010ec0       ??0stringformatter@@QAE@PAD@Z 00411ec0 f i renderhud.obj
 0001:00010ed0       ___local_stdio_printf_options 00411ed0 f i renderhud.obj
 0001:00010ee0       __vsnprintf_l              00411ee0 f i renderhud.obj
 0001:00010f20       ?vformatstring_@@YAXPADPBD0H@Z 00411f20 f i renderhud.obj
 0001:00010f40       ??Rstringformatter@@QAAXPBDZZ 00411f40 f i renderhud.obj
 0001:00010f70       ?findconnectivity@tristrip@@QAEXXZ 00411f70 f i rendermodel.obj
 0001:000112f0       ?removeconnectivity@tristrip@@QAEXG@Z 004122f0 f i rendermodel.obj
 0001:00011430       ?remaining@tristrip@@QBE_NXZ 00412430 f i rendermodel.obj
 0001:00011450       ?findedge@tristrip@@QAEHABUtriangle@1@0G@Z 00412450 f i rendermodel.obj
 0001:00011490       ?nexttriangle@tristrip@@QAEGAAUtriangle@1@AA_NGG@Z 00412490 f i rendermodel.obj
 0001:00011650       ?buildstrip@tristrip@@QAEXAAU?$vector@G@@_N1@Z 00412650 f i rendermodel.obj
 0001:000118a0       ?buildstrips@tristrip@@QAEXAAU?$vector@G@@AAU?$vector@Udrawcall@tristrip@@@@_N2@Z 004128a0 f i rendermodel.obj
 0001:00011be0       ?resize@modelcache@@QAEXI@Z 00412be0 f i rendermodel.obj
 0001:00011c60       ?setframes@anpos@vertmodel@@QAEXABUanimstate@@@Z 00412c60 f i rendermodel.obj
 0001:00011d40       ??0mesh@vertmodel@@QAE@XZ  00412d40 f i rendermodel.obj
 0001:00011df0       ?gendynverts@mesh@vertmodel@@QAEPAUdyncacheentry@2@AAUanimstate@@AAUanpos@2@PAU52@M@Z 00412df0 f i rendermodel.obj
 0001:000122c0       ?weldverts@mesh@vertmodel@@QAEXXZ 004132c0 f i rendermodel.obj
 0001:00012480       ?findneighbors@mesh@vertmodel@@QAEXXZ 00413480 f i rendermodel.obj
 0001:00012740       ?genshadowvolume@mesh@vertmodel@@QAEPAUshadowcacheentry@2@AAUanimstate@@AAUanpos@2@PAU52@MPAUvec@@@Z 00413740 f i rendermodel.obj
 0001:00012d10       ?lightvertexes@mesh@vertmodel@@QAEPAUlightcacheentry@2@AAUanimstate@@AAUanpos@2@PAU52@MPAUvec@@@Z 00413d10 f i rendermodel.obj
 0001:00013240       ?getcurbb@mesh@vertmodel@@QAEXAAUbb@2@AAUanimstate@@AAUanpos@2@PAU52@M@Z 00414240 f i rendermodel.obj
 0001:000133a0       ?render@mesh@vertmodel@@QAEXAAUanimstate@@AAUanpos@2@PAU42@M@Z 004143a0 f i rendermodel.obj
 0001:00013930       ??1part@vertmodel@@UAE@XZ  00414930 f i rendermodel.obj
 0001:00013b20       ?link@part@vertmodel@@QAE_NPAU12@PBDPAUvec@@@Z 00414b20 f i rendermodel.obj
 0001:00013bb0       ?gentag@part@vertmodel@@QAE_NPBDPAHHPAUmesh@2@@Z 00414bb0 f i rendermodel.obj
 0001:00013f00       ?addemitter@part@vertmodel@@QAE_NPBDHHH@Z 00414f00 f i rendermodel.obj
 0001:00013fb0       ?genstrips@part@vertmodel@@QAEXXZ 00414fb0 f i rendermodel.obj
 0001:00014280       ?getdefaultanim@part@vertmodel@@UAEXAAUanimstate@@HH@Z 00415280 f i rendermodel.obj
 0001:000142a0       ?calcanimstate@part@vertmodel@@QAE_NHHMHPAVdynent@@AAUanimstate@@@Z 004152a0 f i rendermodel.obj
 0001:000144d0       ?render@part@vertmodel@@QAEXHHMHPAVdynent@@@Z 004154d0 f i rendermodel.obj
 0001:000150c0       ?setanim@part@vertmodel@@QAEXHHHM@Z 004160c0 f i rendermodel.obj
 0001:00015210       ?blurshadow@part@vertmodel@@QAEXPBEPAEI@Z 00416210 f i rendermodel.obj
 0001:00015450       ?genshadows@part@vertmodel@@QAEXMM@Z 00416450 f i rendermodel.obj
 0001:000158d0       ?loadshadows@part@vertmodel@@QAE_NPBD@Z 004168d0 f i rendermodel.obj
 0001:00015a40       ?rendershadow@part@vertmodel@@QAEXHHMHABUvec@@M@Z 00416a40 f i rendermodel.obj
 0001:00015fa0       ??0vertmodel@@QAE@PBD@Z    00416fa0 f i rendermodel.obj
 0001:00016050       ??1vertmodel@@UAE@XZ       00417050 f i rendermodel.obj
 0001:000160b0       ?name@vertmodel@@UAEPADXZ  004170b0 f i rendermodel.obj
 0001:000160c0       ?cleanup@vertmodel@@UAEXXZ 004170c0 f i rendermodel.obj
 0001:00016140       ?link@vertmodel@@QAE_NPAUpart@1@PBDPAUvec@@@Z 00417140 f i rendermodel.obj
 0001:000161f0       ?setskin@vertmodel@@UAEXH@Z 004171f0 f i rendermodel.obj
 0001:00016210       ?genshadows@vertmodel@@UAEXMM@Z 00417210 f i rendermodel.obj
 0001:00016230       ?hasshadows@vertmodel@@UAE_NXZ 00417230 f i rendermodel.obj
 0001:00016250       ?calcradius@vertmodel@@QAEMAAM@Z 00417250 f i rendermodel.obj
 0001:00016300       ?calcneighbors@vertmodel@@QAEXXZ 00417300 f i rendermodel.obj
 0001:00016350       ?calcbbs@vertmodel@@QAEXXZ 00417350 f i rendermodel.obj
 0001:00016540       ?startrender@vertmodel@@UAEXXZ 00417540 f i rendermodel.obj
 0001:00016590       ?endrender@vertmodel@@UAEXXZ 00417590 f i rendermodel.obj
 0001:00016660       ??_Emd2part@md2@@UAEPAXI@Z 00417660 f i * CIL library *:* CIL module *
 0001:00016660       ??_Gpart@vertmodel@@UAEPAXI@Z 00417660 f i rendermodel.obj
 0001:00016660       ??_Emd3part@md3@@UAEPAXI@Z 00417660 f i * CIL library *:* CIL module *
 0001:00016660       ??_Gmd3part@md3@@UAEPAXI@Z 00417660 f i rendermodel.obj
 0001:00016660       ??_Gmd2part@md2@@UAEPAXI@Z 00417660 f i rendermodel.obj
 0001:00016660       ??_Epart@vertmodel@@UAEPAXI@Z 00417660 f i * CIL library *:* CIL module *
 0001:00016680       ??_Elinkedpart@vertmodel@@QAEPAXI@Z 00417680 f i rendermodel.obj
 0001:000166e0       ??_Etag@vertmodel@@QAEPAXI@Z 004176e0 f i rendermodel.obj
 0001:00016730       ??_Gmd3@@UAEPAXI@Z         00417730 f i rendermodel.obj
 0001:00016730       ??_Gvertmodel@@UAEPAXI@Z   00417730 f i rendermodel.obj
 0001:00016730       ??_Gmd2@@UAEPAXI@Z         00417730 f i rendermodel.obj
 0001:00016730       ??_Emd3@@UAEPAXI@Z         00417730 f i * CIL library *:* CIL module *
 0001:00016730       ??_Evertmodel@@UAEPAXI@Z   00417730 f i * CIL library *:* CIL module *
 0001:00016730       ??_Emd2@@UAEPAXI@Z         00417730 f i * CIL library *:* CIL module *
 0001:00016750       ?type@md2@@UAEHXZ          00417750 f i rendermodel.obj
 0001:00016760       ?gentcverts@md2part@md2@@QAEXPAHAAU?$vector@Utcvert@vertmodel@@@@AAU?$vector@G@@AAU?$vector@Utri@vertmodel@@@@@Z 00417760 f i rendermodel.obj
 0001:00016b90       ?load@md2part@md2@@QAE_NPAD@Z 00417b90 f i rendermodel.obj
 0001:00017030       ?getdefaultanim@md2part@md2@@UAEXAAUanimstate@@HH@Z 00418030 f i rendermodel.obj
 0001:000170a0       ?begingenshadow@md2part@md2@@UAEXXZ 004180a0 f i rendermodel.obj
 0001:000170a0       ?begingenshadow@md3part@md3@@UAEXXZ 004180a0 f i rendermodel.obj
 0001:00017180       ?render@md2@@UAEXHHMHABUvec@@MMMPAVdynent@@PAUmodelattach@@M@Z 00418180 f i rendermodel.obj
 0001:00017750       ?rendershadow@md2@@UAEXHHMHABUvec@@MPAUmodelattach@@@Z 00418750 f i rendermodel.obj
 0001:00017d40       ?load@md2@@UAE_NXZ         00418d40 f i rendermodel.obj
 0001:000180a0       ?type@md3@@UAEHXZ          004190a0 f i rendermodel.obj
 0001:000180b0       ?load@md3part@md3@@QAE_NPAD@Z 004190b0 f i rendermodel.obj
 0001:00018790       ?render@md3@@UAEXHHMHABUvec@@MMMPAVdynent@@PAUmodelattach@@M@Z 00419790 f i rendermodel.obj
 0001:00018cf0       ?rendershadow@md3@@UAEXHHMHABUvec@@MPAUmodelattach@@@Z 00419cf0 f i rendermodel.obj
 0001:00018d30       ?load@md3@@UAE_NXZ         00419d30 f i rendermodel.obj
 0001:00019090       ??0md3part@md3@@QAE@XZ     0041a090 f i rendermodel.obj
 0001:000190e0       ?access@?$hashtable@PBDH@@QAEPAHABQBD@Z 0041a0e0 f i server.obj
 0001:000190e0       ?access@?$hashtable@PBDD@@QAEPADABQBD@Z 0041a0e0 f i rendermodel.obj
 0001:00019170       ??1?$hashtable@PBDD@@QAE@XZ 0041a170 f i rendermodel.obj
 0001:00019170       ??1?$hashtable@PBDH@@QAE@XZ 0041a170 f i server.obj
 0001:000191c0       ??0?$hashtable@PBDH@@QAE@H@Z 0041a1c0 f i server.obj
 0001:000191c0       ??0?$hashtable@PBDUservpar@@@@QAE@H@Z 0041a1c0 f i server.obj
 0001:000191c0       ??0?$hashtable@PBDUident@@@@QAE@H@Z 0041a1c0 f i command.obj
 0001:000191c0       ??0?$hashtable@PBDD@@QAE@H@Z 0041a1c0 f i rendermodel.obj
 0001:00019230       ?access@?$hashtable@PBDPAUmodel@@@@QAEAAPAUmodel@@ABQBDABQAU2@@Z 0041a230 f i rendermodel.obj
 0001:000193d0       ?access@?$hashtable@PBDPAUmapmodelattributes@@@@QAEPAPAUmapmodelattributes@@ABQBD@Z 0041a3d0 f i rendermodel.obj
 0001:00019460       ?add@?$vector@Upersistent_entity@@@@QAEAAUpersistent_entity@@ABU2@@Z 0041a460 f i rendermodel.obj
 0001:000194b0       ?add@?$vector@PAVplayerent@@@@QAEAAPAVplayerent@@ABQAV2@@Z 0041a4b0 f i clientgame.obj
 0001:000194b0       ?add@?$vector@PAUmitem@@@@QAEAAPAUmitem@@ABQAU2@@Z 0041a4b0 f i menus.obj
 0001:000194b0       ?add@?$vector@PAUblock@@@@QAEAAPAUblock@@ABQAU2@@Z 0041a4b0 f i editing.obj
 0001:000194b0       ?add@?$vector@PAUheaderextra@@@@QAEAAPAUheaderextra@@ABQAU2@@Z 0041a4b0 f i worldio.obj
 0001:000194b0       ?add@?$vector@PAUmesh@vertmodel@@@@QAEAAPAUmesh@vertmodel@@ABQAU23@@Z 0041a4b0 f i rendermodel.obj
 0001:000194b0       ?add@?$vector@PAD@@QAEAAPADABQAD@Z 0041a4b0 f i texture.obj
 0001:000194b0       ?add@?$vector@PBD@@QAEAAPBDABQBD@Z 0041a4b0 f i rendermodel.obj
 0001:000194b0       ?add@?$vector@PAUident@@@@QAEAAPAUident@@ABQAU2@@Z 0041a4b0 f i command.obj
 0001:000194b0       ?add@?$vector@PAUpart@vertmodel@@@@QAEAAPAUpart@vertmodel@@ABQAU23@@Z 0041a4b0 f i rendermodel.obj
 0001:000194b0       ?add@?$vector@PAUservermap@@@@QAEAAPAUservermap@@ABQAU2@@Z 0041a4b0 f i server.obj
 0001:00019540       ?add@?$vector@Udrawcall@tristrip@@@@QAEAAUdrawcall@tristrip@@ABU23@@Z 0041a540 f i rendermodel.obj
 0001:000195e0       ?replacewithlast@?$vector@G@@QAEXABG@Z 0041a5e0 f i rendermodel.obj
 0001:00019630       ?add@?$vector@D@@QAEAADABD@Z 0041a630 f i rendermodel.obj
 0001:00019670       ?insertchains@?$hashtable@PBDPAUmapmodelattributes@@@@QAEXPAUchainchunk@1@@Z 0041a670 f i rendermodel.obj
 0001:00019670       ?insertchains@?$hashtable@PBDH@@QAEXPAUchainchunk@1@@Z 0041a670 f i server.obj
 0001:00019670       ?insertchains@?$hashtable@PBDD@@QAEXPAUchainchunk@1@@Z 0041a670 f i rendermodel.obj
 0001:00019740       ?growbuf@?$vector@Upersistent_entity@@@@QAEXH@Z 0041a740 f i rendermodel.obj
 0001:000197b0       ?insert@?$hashtable@Uivec@@H@@QAEPAUchain@1@ABUivec@@I@Z 0041a7b0 f i rendermodel.obj
 0001:000198c0       ?insert@?$hashtable@II@@QAEPAUchain@1@ABII@Z 0041a8c0 f i rendermodel.obj
 0001:000198c0       ?insert@?$hashtable@PADI@@QAEPAUchain@1@ABQADI@Z 0041a8c0 f i worldio.obj
 0001:000199c0       ?insert@?$hashtable@Uvec@@H@@QAEPAUchain@1@ABUvec@@I@Z 0041a9c0 f i rendermodel.obj
 0001:00019af0       ?insert@?$hashtable@Uedge@tristrip@@G@@QAEPAUchain@1@ABUedge@tristrip@@I@Z 0041aaf0 f i rendermodel.obj
 0001:00019bf0       ?growbuf@?$vector@G@@QAEXH@Z 0041abf0 f i rendermodel.obj
 0001:00019c60       ??4?$vector@H@@QAEAAU0@ABU0@@Z 0041ac60 f i rendermodel.obj
 0001:00019cd0       ?growbuf@?$vector@D@@QAEXH@Z 0041acd0 f i rendermodel.obj
 0001:00019cd0       ?growbuf@?$vector@E@@QAEXH@Z 0041acd0 f i rendermodel.obj
 0001:00019d30       ?skin@playerent@@QAEHH@Z   0041ad30 f i rendermodel.obj
 0001:00019d50       ?dist@vec@@QBEMABU1@@Z     0041ad50 f i rendermodel.obj
 0001:00019db0       ??_Gmodel@@UAEPAXI@Z       0041adb0 f i rendermodel.obj
 0001:00019db0       ??_Emodel@@UAEPAXI@Z       0041adb0 f i * CIL library *:* CIL module *
 0001:00019de0       ?fromquat@glmatrixf@@QAEXAAUquat@@@Z 0041ade0 f i rendermodel.obj
 0001:00019f80       ?genshadows@model@@UAEXMM@Z 0041af80 f i rendermodel.obj
 0001:00019f80       ?key@mitem@@UAEXH_N@Z      0041af80 f i menus.obj
 0001:00019f90       ?rendershadow@model@@UAEXHHMHABUvec@@MPAUmodelattach@@@Z 0041af90 f i rendermodel.obj
 0001:00019fa0       ?isdisabled@mapaction@@UAE_NXZ 0041afa0 f i server.obj
 0001:00019fa0       ?hasshadows@model@@UAE_NXZ 0041afa0 f i rendermodel.obj
 0001:00019fa0       ?busy@weapon@@UAE_NXZ      0041afa0 f i weapon.obj
 0001:00019fa0       ?isdisabled@serveraction@@UAE_NXZ 0041afa0 f i server.obj
 0001:00019fb0       ?concatstring@@YAPADPADPBDI@Z 0041afb0 f i rendermodel.obj
 0001:00019ff0       ?strrchr@@YAPADQADH@Z      0041aff0 f i rendermodel.obj
 0001:0001a000       ?newstring@@YAPADPBD@Z     0041b000 f i rendermodel.obj
 0001:0001a040       ??9vec@@QBE_NABU0@@Z       0041b040 f i rendermodel.obj
 0001:0001a080       ?inrange@?$vector@PAUigraph@@@@QBE_NH@Z 0041b080 f i rendertext.obj
 0001:0001a0a0       ?add@?$vector@PAUigraph@@@@QAEAAPAUigraph@@ABQAU2@@Z 0041b0a0 f i rendertext.obj
 0001:0001a150       ?access@?$hashtable@PBDUigraph@@@@QAEPAUigraph@@ABQBD@Z 0041b150 f i rendertext.obj
 0001:0001a1e0       ?add@?$vector@Uthreeint@@@@QAEAAUthreeint@@ABU2@@Z 0041b1e0 f i rendertext.obj
 0001:0001a290       ?access@?$hashtable@PBDUfont@@@@QAEPAUfont@@ABQBD@Z 0041b290 f i rendertext.obj
 0001:0001a320       ?insert@?$hashtable@PBDUigraph@@@@QAEPAUchain@1@ABQBDI@Z 0041b320 f i rendertext.obj
 0001:0001a470       ?insert@?$hashtable@PBDUfont@@@@QAEPAUchain@1@ABQBDI@Z 0041b470 f i rendertext.obj
 0001:0001a5c0       ?remove@?$vector@Utemptexslot@@@@QAE?AUtemptexslot@@H@Z 0041b5c0 f i texture.obj
 0001:0001a6b0       ??A?$hashtable@PADUTexture@@@@QAEAAUTexture@@ABQAD@Z 0041b6b0 f i texture.obj
 0001:0001a860       ?remove@?$vector@H@@QAEHH@Z 0041b860 f i texture.obj
 0001:0001a8a0       ?deletearrays@?$vector@PAD@@QAEXXZ 0041b8a0 f i texture.obj
 0001:0001a8d0       ?growbuf@?$vector@USlot@@@@QAEXH@Z 0041b8d0 f i texture.obj
 0001:0001a940       ?putbits@?$bitbuf@Upacketbuf@@@@QAEXHH@Z 0041b940 f i client.obj
 0001:0001aa10       ?put@packetbuf@@QAEXABE@Z  0041ba10 f i client.obj
 0001:0001aa80       ?put@?$databuf@E@@QAEXPBEH@Z 0041ba80 f i client.obj
 0001:0001aad0       ?put@packetbuf@@QAEXPBEH@Z 0041bad0 f i client.obj
 0001:0001ab60       ??1packetbuf@@QAE@XZ       0041bb60 f i client.obj
 0001:0001aba0       ??0packetbuf@@QAE@HH@Z     0041bba0 f i client.obj
 0001:0001abf0       ?spawn_message@@YAPBDXZ    0041bbf0 f i clientgame.obj
 0001:0001ac40       ??0physent@@QAE@ABV0@@Z    0041bc40 f i clientgame.obj
 0001:0001ad60       ?growbuf@?$vector@Umline@@@@QAEXH@Z 0041bd60 f i clientgame.obj
 0001:0001add0       _sprintf                   0041bdd0 f i clientgame.obj
 0001:0001ae10       ?damageroll@playerent@@QAEXM@Z 0041be10 f i clientgame.obj
 0001:0001ae90       ?dodamage@playerstate@@QAEHHH@Z 0041be90 f i clientgame.obj
 0001:0001afa0       ??_Gplayerent@@UAEPAXI@Z   0041bfa0 f i clientgame.obj
 0001:0001afa0       ??_Eplayerent@@UAEPAXI@Z   0041bfa0 f i * CIL library *:* CIL module *
 0001:0001afd0       ??1playerent@@UAE@XZ       0041bfd0 f i clientgame.obj
 0001:0001b210       ??_Gbotent@@UAEPAXI@Z      0041c210 f i clientgame.obj
 0001:0001b210       ??_Ebotent@@UAEPAXI@Z      0041c210 f i * CIL library *:* CIL module *
 0001:0001b243       ??_Ebotent@@WOI@AEPAXI@Z   0041c243 f i clientgame.obj
 0001:0001b250       ??_Eplayerstate@@UAEPAXI@Z 0041c250 f i * CIL library *:* CIL module *
 0001:0001b250       ??_Gplayerstate@@UAEPAXI@Z 0041c250 f i clientgame.obj
 0001:0001b274       ??_Eplayerent@@WOI@AEPAXI@Z 0041c274 f i clientgame.obj
 0001:0001b280       ??0playerent@@QAE@XZ       0041c280 f i clientgame.obj
 0001:0001b6e0       ?resetstats@playerstate@@QAEXXZ 0041c6e0 f i clientgame.obj
 0001:0001b7a0       ?spawnstate@playerstate@@UAEXH@Z 0041c7a0 f i clientgame.obj
 0001:0001b8c0       ?spawnstate@playerent@@UAEXH@Z 0041c8c0 f i clientgame.obj
 0001:0001ba20       ?reset@dynent@@QAEXXZ      0041ca20 f i clientgame.obj
 0001:0001ba80       ?respawn@playerstate@@QAEXXZ 0041ca80 f i clientgame.obj
 0001:0001bb60       ?respawn@playerent@@QAEXXZ 0041cb60 f i clientgame.obj
 0001:0001bc40       ?resetinterp@physent@@QAEXXZ 0041cc40 f i clientgame.obj
 0001:0001bc80       ?getbits@?$bitbuf@U?$databuf@E@@@@QAEHH@Z 0041cc80 f i clients2c.obj
 0001:0001bd30       ?get@?$databuf@E@@QAEHPAEH@Z 0041cd30 f i clients2c.obj
 0001:0001bd70       ?growbuf@?$vector@Uentity@@@@QAEXH@Z 0041cd70 f i clients2c.obj
 0001:0001bdf0       ??_Eworldobjreference@@UAEPAXI@Z 0041cdf0 f i * CIL library *:* CIL module *
 0001:0001bdf0       ??_Ecamerareference@@UAEPAXI@Z 0041cdf0 f i * CIL library *:* CIL module *
 0001:0001bdf0       ??_Gcamerareference@@UAEPAXI@Z 0041cdf0 f i audiomanager.obj
 0001:0001bdf0       ??_Gworldobjreference@@UAEPAXI@Z 0041cdf0 f i clients2c.obj
 0001:0001be20       ??9worldobjreference@@UAE_NABV0@@Z 0041ce20 f i clients2c.obj
 0001:0001be40       ?hitpush@playerent@@QAEXHABUvec@@PAV1@H@Z 0041ce40 f i clients2c.obj
 0001:0001bef0       ?selectweapon@playerent@@QAEXH_N@Z 0041cef0 f i clients2c.obj
 0001:0001bf80       ?isalive@clientstate@@QAE_NH@Z 0041cf80 f i server.obj
 0001:0001bfb0       ?respawn@clientstate@@QAEXXZ 0041cfb0 f i server.obj
 0001:0001c010       ??_Gclientstate@@UAEPAXI@Z 0041d010 f i server.obj
 0001:0001c010       ??_Eclientstate@@UAEPAXI@Z 0041d010 f i * CIL library *:* CIL module *
 0001:0001c040       ?save@savedscore@@QAEXAAUclientstate@@H@Z 0041d040 f i server.obj
 0001:0001c0d0       ?addevent@client@@QAEAATgameevent@@XZ 0041d0d0 f i server.obj
 0001:0001c180       ?mapchange@client@@QAEX_N@Z 0041d180 f i server.obj
 0001:0001c340       ?checkvitadate@client@@QAE_NH@Z 0041d340 f i server.obj
 0001:0001c370       ??0servermap@@QAE@PBD0@Z   0041d370 f i server.obj
 0001:0001c3d0       ?load@servermap@@QAEXXZ    0041d3d0 f i server.obj
 0001:0001d560       ?clear@servermaprot@@UAEXXZ 0041e560 f i server.obj
 0001:0001d5c0       ?load@servermaprot@@UAE_NXZ 0041e5c0 f i server.obj
 0001:0001d950       ?read@servermaprot@@UAEXXZ 0041e950 f i server.obj
 0001:0001da90       ?initmap@servermaprot@@QAEXPAUservermap@@PAUstream@@@Z 0041ea90 f i server.obj
 0001:0001df50       ?next@servermaprot@@QAEPAUservermap@@_N0@Z 0041ef50 f i server.obj
 0001:0001e030       ??_Eservermaprot@@UAEPAXI@Z 0041f030 f i * CIL library *:* CIL module *
 0001:0001e030       ??_Gservermaprot@@UAEPAXI@Z 0041f030 f i server.obj
 0001:0001e060       ??1servermaprot@@UAE@XZ    0041f060 f i server.obj
 0001:0001e0f0       ?clear@serverinfofile@@UAEXXZ 0041f0f0 f i server.obj
 0001:0001e0f0       ?clear@serveripblacklist@@UAEXXZ 0041f0f0 f i server.obj
 0001:0001e0f0       ?clear@serveripcclist@@UAEXXZ 0041f0f0 f i server.obj
 0001:0001e110       ?read@serveripcclist@@UAEXXZ 0041f110 f i server.obj
 0001:0001e6f0       ?read@serveripblacklist@@UAEXXZ 0041f6f0 f i server.obj
 0001:0001ea50       ?check@serveripblacklist@@QAE_NI@Z 0041fa50 f i server.obj
 0001:0001eaa0       ?clear@servernickblacklist@@UAEXXZ 0041faa0 f i server.obj
 0001:0001eb60       ?read@servernickblacklist@@UAEXXZ 0041fb60 f i server.obj
 0001:0001f600       ?checkwhitelist@servernickblacklist@@QAEHABUclient@@@Z 00420600 f i server.obj
 0001:0001f750       ?checkblacklist@servernickblacklist@@QAEHPBD@Z 00420750 f i server.obj
 0001:0001f870       ?clear@serverforbiddenlist@@UAEXXZ 00420870 f i server.obj
 0001:0001f8a0       ?read@serverforbiddenlist@@UAEXXZ 004208a0 f i server.obj
 0001:0001f9c0       ?canspeech@serverforbiddenlist@@QAE_NPAD@Z 004209c0 f i server.obj
 0001:0001fb30       ?clear@serverpasswords@@UAEXXZ 00420b30 f i server.obj
 0001:0001fb50       ?read@serverpasswords@@UAEXXZ 00420b50 f i server.obj
 0001:0001fdf0       ?check@serverpasswords@@QAE_NPBD0HPAUpwddetail@@I@Z 00420df0 f i server.obj
 0001:00020070       ??_Gserverpasswords@@UAEPAXI@Z 00421070 f i server.obj
 0001:00020070       ??_Eserverpasswords@@UAEPAXI@Z 00421070 f i * CIL library *:* CIL module *
 0001:00020070       ??_Gserverinfofile@@UAEPAXI@Z 00421070 f i server.obj
 0001:00020070       ??_Eserverinfofile@@UAEPAXI@Z 00421070 f i * CIL library *:* CIL module *
 0001:000200a0       ??1serverinfofile@@UAE@XZ  004210a0 f i server.obj
 0001:000200a0       ??1serverpasswords@@UAE@XZ 004210a0 f i server.obj
 0001:000200a0       ??1serveripblacklist@@UAE@XZ 004210a0 f i server.obj
 0001:000200a0       ??1serveripcclist@@UAE@XZ  004210a0 f i server.obj
 0001:00020110       ?read@serverinfofile@@UAEXXZ 00421110 f i server.obj
 0001:00020200       ?update@servpar@@QAEXXZ    00421200 f i server.obj
 0001:00020310       ?nextvalue@servpar@@QAE_NPAD@Z 00421310 f i server.obj
 0001:000203e0       ?load@serverparameter@@UAE_NXZ 004213e0 f i server.obj
 0001:00020570       ?read@serverparameter@@UAEXXZ 00421570 f i server.obj
 0001:000206d0       ?log@serverparameter@@QAEXXZ 004216d0 f i server.obj
 0001:00020850       ??_Gserverconfigfile@@UAEPAXI@Z 00421850 f i server.obj
 0001:00020850       ??_Eserverparameter@@UAEPAXI@Z 00421850 f i * CIL library *:* CIL module *
 0001:00020850       ??_Gserverparameter@@UAEPAXI@Z 00421850 f i server.obj
 0001:00020850       ??_Eserverconfigfile@@UAEPAXI@Z 00421850 f i * CIL library *:* CIL module *
 0001:000208b0       ??_Eserveripcclist@@UAEPAXI@Z 004218b0 f i * CIL library *:* CIL module *
 0001:000208b0       ??_Gserveripblacklist@@UAEPAXI@Z 004218b0 f i server.obj
 0001:000208b0       ??_Gserveripcclist@@UAEPAXI@Z 004218b0 f i server.obj
 0001:000208b0       ??_Eserveripblacklist@@UAEPAXI@Z 004218b0 f i * CIL library *:* CIL module *
 0001:000208e0       ??1servernickblacklist@@UAE@XZ 004218e0 f i server.obj
 0001:000209a0       ??_Eservernickblacklist@@UAEPAXI@Z 004219a0 f i * CIL library *:* CIL module *
 0001:000209a0       ??_Gservernickblacklist@@UAEPAXI@Z 004219a0 f i server.obj
 0001:000209d0       ??_Gserverforbiddenlist@@UAEPAXI@Z 004219d0 f i server.obj
 0001:000209d0       ??_Eserverforbiddenlist@@UAEPAXI@Z 004219d0 f i * CIL library *:* CIL module *
 0001:00020a30       ??_Gservermap@@QAEPAXI@Z   00421a30 f i server.obj
 0001:00020b30       ??_Gworldstate@@QAEPAXI@Z  00421b30 f i server.obj
 0001:00020b90       ?send_item_list@@YAXAAUpacketbuf@@@Z 00421b90 f i server.obj
 0001:00020c40       ?check_pdist@@YAHPAUclient@@AAM@Z 00421c40 f i server.obj
 0001:00020c90       ?addban@@YAXPAUclient@@HH@Z 00421c90 f i server.obj
 0001:00020d80       __should_initialize_environment 00421d80 f i LIBCMT:env_mode.obj
 0001:00020d80       ___acrt_uninitialize_command_line 00421d80 f i libucrt:argv_data.obj
 0001:00020d80       ?isvalid@serveraction@@UAE_NXZ 00421d80 f i server.obj
 0001:00020d80       ?isvalid@recorddemoaction@@UAE_NXZ 00421d80 f i server.obj
 0001:00020d80       ?applyphysics@bounceent@@UAE_NXZ 00421d80 f i entities.obj
 0001:00020d90       ??_Eserveraction@@UAEPAXI@Z 00421d90 f i * CIL library *:* CIL module *
 0001:00020d90       ??_Gremovebansaction@@UAEPAXI@Z 00421d90 f i server.obj
 0001:00020d90       ??_Eremovebansaction@@UAEPAXI@Z 00421d90 f i * CIL library *:* CIL module *
 0001:00020d90       ??_Eshuffleteamaction@@UAEPAXI@Z 00421d90 f i * CIL library *:* CIL module *
 0001:00020d90       ??_Gserveraction@@UAEPAXI@Z 00421d90 f i server.obj
 0001:00020d90       ??_Gshuffleteamaction@@UAEPAXI@Z 00421d90 f i server.obj
 0001:00020dc0       ?perform@mapaction@@UAEXXZ 00421dc0 f i server.obj
 0001:00020eb0       ?isvalid@mapaction@@UAE_NXZ 00421eb0 f i server.obj
 0001:00020f00       ??0mapaction@@QAE@PADHHH_N@Z 00421f00 f i server.obj
 0001:000214d0       ??_Gmapaction@@UAEPAXI@Z   004224d0 f i server.obj
 0001:000214d0       ??_Emapaction@@UAEPAXI@Z   004224d0 f i * CIL library *:* CIL module *
 0001:00021520       ?perform@demoplayaction@@UAEXXZ 00422520 f i server.obj
 0001:00021530       ??_Edemoplayaction@@UAEPAXI@Z 00422530 f i * CIL library *:* CIL module *
 0001:00021530       ??_Gdemoplayaction@@UAEPAXI@Z 00422530 f i server.obj
 0001:00021580       ?isvalid@playeraction@@UAE_NXZ 00422580 f i server.obj
 0001:000215b0       ??0playeraction@@QAE@H@Z   004225b0 f i server.obj
 0001:00021610       ??_Ggiveadminaction@@UAEPAXI@Z 00422610 f i server.obj
 0001:00021610       ??_Eplayeraction@@UAEPAXI@Z 00422610 f i * CIL library *:* CIL module *
 0001:00021610       ??_Egiveadminaction@@UAEPAXI@Z 00422610 f i * CIL library *:* CIL module *
 0001:00021610       ??_Gplayeraction@@UAEPAXI@Z 00422610 f i server.obj
 0001:00021640       ?perform@forceteamaction@@UAEXXZ 00422640 f i server.obj
 0001:00021660       ?isvalid@forceteamaction@@UAE_NXZ 00422660 f i server.obj
 0001:000216a0       ??_Gbanaction@@UAEPAXI@Z   004226a0 f i server.obj
 0001:000216a0       ??_Eforceteamaction@@UAEPAXI@Z 004226a0 f i * CIL library *:* CIL module *
 0001:000216a0       ??_Gforceteamaction@@UAEPAXI@Z 004226a0 f i server.obj
 0001:000216a0       ??_Ekickaction@@UAEPAXI@Z  004226a0 f i * CIL library *:* CIL module *
 0001:000216a0       ??_Gkickaction@@UAEPAXI@Z  004226a0 f i server.obj
 0001:000216a0       ??_Ebanaction@@UAEPAXI@Z   004226a0 f i * CIL library *:* CIL module *
 0001:000216d0       ?perform@giveadminaction@@UAEXXZ 004226d0 f i server.obj
 0001:000216f0       ?perform@kickaction@@UAEXXZ 004226f0 f i server.obj
 0001:00021710       ?isvalid@banaction@@UAE_NXZ 00422710 f i server.obj
 0001:00021710       ?isvalid@kickaction@@UAE_NXZ 00422710 f i server.obj
 0001:00021750       ?perform@banaction@@UAEXXZ 00422750 f i server.obj
 0001:00021780       ?perform@removebansaction@@UAEXXZ 00422780 f i server.obj
 0001:000217a0       ?perform@pauseaction@@UAEXXZ 004227a0 f i server.obj
 0001:00021820       ?isvalid@pauseaction@@UAE_NXZ 00422820 f i server.obj
 0001:00021840       ??_Gpauseaction@@UAEPAXI@Z 00422840 f i server.obj
 0001:00021840       ??_Gcleardemosaction@@UAEPAXI@Z 00422840 f i server.obj
 0001:00021840       ??_Epauseaction@@UAEPAXI@Z 00422840 f i * CIL library *:* CIL module *
 0001:00021840       ??_Grecorddemoaction@@UAEPAXI@Z 00422840 f i server.obj
 0001:00021840       ??_Eautoteamaction@@UAEPAXI@Z 00422840 f i * CIL library *:* CIL module *
 0001:00021840       ??_Ecleardemosaction@@UAEPAXI@Z 00422840 f i * CIL library *:* CIL module *
 0001:00021840       ??_Erecorddemoaction@@UAEPAXI@Z 00422840 f i * CIL library *:* CIL module *
 0001:00021840       ??_Gautoteamaction@@UAEPAXI@Z 00422840 f i server.obj
 0001:00021840       ??_Gmastermodeaction@@UAEPAXI@Z 00422840 f i server.obj
 0001:00021840       ??_Emastermodeaction@@UAEPAXI@Z 00422840 f i * CIL library *:* CIL module *
 0001:00021870       ?perform@mastermodeaction@@UAEXXZ 00422870 f i server.obj
 0001:00021880       ?isvalid@mastermodeaction@@UAE_NXZ 00422880 f i server.obj
 0001:00021890       ?perform@autoteamaction@@UAEXXZ 00422890 f i server.obj
 0001:00021930       ?perform@shuffleteamaction@@UAEXXZ 00422930 f i server.obj
 0001:00021980       ?isvalid@shuffleteamaction@@UAE_NXZ 00422980 f i server.obj
 0001:000219d0       ?perform@cleardemosaction@@UAEXXZ 004229d0 f i server.obj
 0001:00021a80       ?perform@serverdescaction@@UAEXXZ 00422a80 f i server.obj
 0001:00021b30       ?isvalid@serverdescaction@@UAE_NXZ 00422b30 f i server.obj
 0001:00021b70       ??_Eserverdescaction@@UAEPAXI@Z 00422b70 f i * CIL library *:* CIL module *
 0001:00021b70       ??_Gserverdescaction@@UAEPAXI@Z 00422b70 f i server.obj
 0001:00021bc0       ?end@voteinfo@@QAEXH@Z     00422bc0 f i server.obj
 0001:00021c80       ?evaluate@voteinfo@@QAEX_N@Z 00422c80 f i server.obj
 0001:00021e60       ?full@?$ringbuf@PAUservinfoauth@@$0BA@@@QBE_NXZ 00422e60 f i server.obj
 0001:00021e90       ?add@?$ringbuf@E$0EAAAA@@@QAEXPBEH@Z 00422e90 f i server.obj
 0001:00021f10       ?remove@?$vector@Uban@@@@QAE?AUban@@H@Z 00422f10 f i server.obj
 0001:00021f80       ?access@?$hashtable@Uuchar32@@Uvita_s@@@@QAEAAUvita_s@@ABUuchar32@@ABU2@@Z 00422f80 f i server.obj
 0001:00022120       ?access@?$hashtable@Uuchar32@@Uvita_s@@@@QAEPAUvita_s@@ABUuchar32@@@Z 00423120 f i server.obj
 0001:00022180       ?access@?$hashtable@PBDUservpar@@@@QAEAAUservpar@@ABQBDABU2@@Z 00423180 f i server.obj
 0001:00022240       ?access@?$hashtable@PBDUservpar@@@@QAEPAUservpar@@ABQBD@Z 00423240 f i server.obj
 0001:000222d0       ?add@?$vector@Upwddetail@@@@QAEAAUpwddetail@@ABU2@@Z 004232d0 f i server.obj
 0001:00022370       ?clear@?$hashtable@PBDH@@QAEX_N@Z 00423370 f i server.obj
 0001:000224c0       ?access@?$hashtable@PBDH@@QAEAAHABQBDABH@Z 004234c0 f i server.obj
 0001:000225b0       ?remove@?$vector@Uiprangecc@@@@QAE?AUiprangecc@@H@Z 004235b0 f i server.obj
 0001:00022610       ?put@?$vector@E@@QAEXPBEH@Z 00423610 f i server.obj
 0001:00022650       ?insert@?$hashtable@PBDUservpar@@@@QAEPAUchain@1@ABQBDI@Z 00423650 f i server.obj
 0001:00022760       __vfprintf_l               00423760 f i server.obj
 0001:00022790       _printf                    00423790 f i server.obj
 0001:000227b0       ?pickup@playerstate@@QAEXH@Z 004237b0 f i server.obj
 0001:000228d0       ?canpickup@playerstate@@QAE_NH@Z 004238d0 f i server.obj
 0001:000229a0       ??_G?$vector@E@@QAEPAXI@Z  004239a0 f i server.obj
 0001:000229e0       ___local_stdio_scanf_options 004239e0 f i server.obj
 0001:000229f0       _sscanf                    004239f0 f i server.obj
 0001:00022a20       ??1serverconfigfile@@UAE@XZ 00423a20 f i server.obj
 0001:00022a60       ??0serverconfigfile@@QAE@XZ 00423a60 f i server.obj
 0001:00022ac0       ??_Gserverinfo@@QAEPAXI@Z  00423ac0 f i serverbrowser.obj
 0001:00022b30       ??1httpget@@QAE@XZ         00423b30 f i serverbrowser.obj
 0001:00022c00       ??0httpget@@QAE@XZ         00423c00 f i serverbrowser.obj
 0001:00022c60       ?forceinsideborders@@YAXAAH@Z 00423c60 f i editing.obj
 0001:00022c90       ?remove@?$vector@Ublock@@@@QAE?AUblock@@H@Z 00423c90 f i editing.obj
 0001:00022d10       ?remove@?$vector@Upersistent_entity@@@@QAE?AUpersistent_entity@@H@Z 00423d10 f i world.obj
 0001:00022d80       ?add@?$vector@Uentity@@@@QAEAAUentity@@ABU2@@Z 00423d80 f i world.obj
 0001:00022de0       ?find@?$vector@H@@QAEHABH@Z 00423de0 f i world.obj
 0001:00022de0       ?find@?$vector@PAUmitem@@@@QAEHABQAUmitem@@@Z 00423de0 f i menus.obj
 0001:00022e10       ?clear@_mapconfigdata@@QAEXXZ 00423e10 f i world.obj
 0001:00022e30       ??0xmap@@QAE@PBD@Z         00423e30 f i worldio.obj
 0001:00023510       ??1xmap@@QAE@XZ            00424510 f i worldio.obj
 0001:000236a0       ?restore@xmap@@QAEXXZ      004246a0 f i worldio.obj
 0001:00023be0       ?write@xmap@@QAEXPAUstream@@@Z 00424be0 f i worldio.obj
 0001:00023f30       ??_Gxmap@@QAEPAXI@Z        00424f30 f i worldio.obj
 0001:00023f50       ?remove@?$vector@PAUxmap@@@@QAEPAUxmap@@H@Z 00424f50 f i worldio.obj
 0001:00023fa0       ?add@?$vector@PAUxmap@@@@QAEAAPAUxmap@@ABQAU2@@Z 00424fa0 f i worldio.obj
 0001:00024050       ?add@?$vector@Upersistent_entity@@@@QAEAAUpersistent_entity@@XZ 00425050 f i worldio.obj
 0001:00024080       ??A?$hashtable@PADI@@QAEAAIABQAD@Z 00425080 f i worldio.obj
 0001:00024120       ?remove@?$vector@PAUheaderextra@@@@QAEPAUheaderextra@@H@Z 00425120 f i worldio.obj
 0001:00024170       ??_Gbounceent@@UAEPAXI@Z   00425170 f i entities.obj
 0001:00024170       ??_Ebounceent@@UAEPAXI@Z   00425170 f i * CIL library *:* CIL module *
 0001:000241a0       ??0bounceent@@QAE@XZ       004251a0 f i entities.obj
 0001:00024200       ?rotate@vec@@QAEAAU1@MABU1@@Z 00425200 f i entities.obj
 0001:00024380       ?addcol@sline@@QAAXHPBDZZ  00425380 f i scoreboard.obj
 0001:000244c0       ?getcols@sline@@QAEPADXZ   004254c0 f i scoreboard.obj
 0001:000245c0       ?add@?$vector@Usline@@@@QAEAAUsline@@XZ 004255c0 f i scoreboard.obj
 0001:000246c0       ??1?$vector@Ucoldata@@@@QAE@XZ 004256c0 f i scoreboard.obj
 0001:00024710       ?calcmove@weaponmove@@QAEXUvec@@HPAVplayerent@@@Z 00425710 f i weapon.obj
 0001:00024c60       ?intersecttriangle@@YA_NABUvec@@0000PAU1@PAM@Z 00425c60 f i weapon.obj
 0001:00024f10       ?attackevent@@YAXPAVplayerent@@H@Z 00425f10 f i weapon.obj
 0001:00024f30       ??_Egrenadeent@@UAEPAXI@Z  00425f30 f i * CIL library *:* CIL module *
 0001:00024f30       ??_Ggrenadeent@@UAEPAXI@Z  00425f30 f i weapon.obj
 0001:00024f80       ??_Egrenades@@UAEPAXI@Z    00425f80 f i * CIL library *:* CIL module *
 0001:00024f80       ??_Ggrenades@@UAEPAXI@Z    00425f80 f i weapon.obj
 0001:00024fb0       ??_Ecarbine@@UAEPAXI@Z     00425fb0 f i * CIL library *:* CIL module *
 0001:00024fb0       ??_Eshotgun@@UAEPAXI@Z     00425fb0 f i * CIL library *:* CIL module *
 0001:00024fb0       ??_Esubgun@@UAEPAXI@Z      00425fb0 f i * CIL library *:* CIL module *
 0001:00024fb0       ??_Eweapon@@UAEPAXI@Z      00425fb0 f i * CIL library *:* CIL module *
 0001:00024fb0       ??_Gweapon@@UAEPAXI@Z      00425fb0 f i weapon.obj
 0001:00024fb0       ??_Eknife@@UAEPAXI@Z       00425fb0 f i * CIL library *:* CIL module *
 0001:00024fb0       ??_Gsubgun@@UAEPAXI@Z      00425fb0 f i weapon.obj
 0001:00024fb0       ??_Egun@@UAEPAXI@Z         00425fb0 f i * CIL library *:* CIL module *
 0001:00024fb0       ??_Eassaultrifle@@UAEPAXI@Z 00425fb0 f i * CIL library *:* CIL module *
 0001:00024fb0       ??_Epistol@@UAEPAXI@Z      00425fb0 f i * CIL library *:* CIL module *
 0001:00024fb0       ??_Gassaultrifle@@UAEPAXI@Z 00425fb0 f i weapon.obj
 0001:00024fb0       ??_Gknife@@UAEPAXI@Z       00425fb0 f i weapon.obj
 0001:00024fb0       ??_Gcarbine@@UAEPAXI@Z     00425fb0 f i weapon.obj
 0001:00024fb0       ??_Gshotgun@@UAEPAXI@Z     00425fb0 f i weapon.obj
 0001:00024fb0       ??_Ggun@@UAEPAXI@Z         00425fb0 f i weapon.obj
 0001:00024fb0       ??_Gpistol@@UAEPAXI@Z      00425fb0 f i weapon.obj
 0001:00024fe0       ??_Esniperrifle@@UAEPAXI@Z 00425fe0 f i * CIL library *:* CIL module *
 0001:00024fe0       ??_Gsniperrifle@@UAEPAXI@Z 00425fe0 f i weapon.obj
 0001:00025010       ??_Gakimbo@@UAEPAXI@Z      00426010 f i weapon.obj
 0001:00025010       ??_Eakimbo@@UAEPAXI@Z      00426010 f i * CIL library *:* CIL module *
 0001:00025040       ?add@?$vector@PAVbounceent@@@@QAEAAPAVbounceent@@ABQAV2@@Z 00426040 f i weapon.obj
 0001:000250f0       ?access@?$hashtable@HUkeym@@@@QAEPAUkeym@@ABH@Z 004260f0 f i weapon.obj
 0001:00025130       ?parsequotes@@YAPADAAPBD@Z 00426130 f i command.obj
 0001:000251a0       ??A?$hashtable@PADPAUcompleteval@@@@QAEAAPAUcompleteval@@ABQAD@Z 004261a0 f i command.obj
 0001:00025340       ?access@?$hashtable@PADPAUcompleteval@@@@QAEPAPAUcompleteval@@ABQAD@Z 00426340 f i command.obj
 0001:000253d0       ??A?$hashtable@Ucompletekey@@PAUcompleteval@@@@QAEAAPAUcompleteval@@ABUcompletekey@@@Z 004263d0 f i command.obj
 0001:000255e0       ?remove@?$hashtable@PBDUident@@@@QAE_NABQBD@Z 004265e0 f i command.obj
 0001:00025690       ?access@?$hashtable@PBDUident@@@@QAEAAUident@@ABQBDABU2@@Z 00426690 f i command.obj
 0001:00025750       ?access@?$hashtable@PBDUident@@@@QAEPAUident@@ABQBD@Z 00426750 f i command.obj
 0001:000257e0       ?insert@?$hashtable@PBDUident@@@@QAEPAUchain@1@ABQBDI@Z 004267e0 f i command.obj
 0001:000258f0       ?render@console@@UAEXXZ    004268f0 f i console.obj
 0001:00025bd0       ??_Gconsole@@UAEPAXI@Z     00426bd0 f i console.obj
 0001:00025bd0       ??_Econsole@@UAEPAXI@Z     00426bd0 f i * CIL library *:* CIL module *
 0001:00025bf0       ?restore@hline@@QAEXXZ     00426bf0 f i console.obj
 0001:00025ce0       ?run@hline@@QAEXXZ         00426ce0 f i console.obj
 0001:00025d80       ??_Ghline@@QAEPAXI@Z       00426d80 f i console.obj
 0001:00025de0       ?add@?$vector@PAUhline@@@@QAEAAPAUhline@@ABQAU2@@Z 00426de0 f i console.obj
 0001:00025e90       ?add@?$vector@PAUkeym@@@@QAEAAPAUkeym@@ABQAU2@@Z 00426e90 f i console.obj
 0001:00025f40       ??A?$hashtable@HUkeym@@@@QAEAAUkeym@@ABH@Z 00426f40 f i console.obj
 0001:00026110       ??1?$consolebuffer@Ucline@@@@UAE@XZ 00427110 f i console.obj
 0001:00026160       ??_E?$consolebuffer@Ucline@@@@UAEPAXI@Z 00427160 f i * CIL library *:* CIL module *
 0001:00026160       ??_G?$consolebuffer@Ucline@@@@UAEPAXI@Z 00427160 f i console.obj
 0001:00026180       ??1keym@@QAE@XZ            00427180 f i console.obj
 0001:000261d0       ?key@textinputbuffer@@QAE_NH@Z 004271d0 f i console.obj
 0001:00026400       ??_Gauthkey@@QAEPAXI@Z     00427400 f i crypto.obj
 0001:00026440       ??_Gcert@@QAEPAXI@Z        00427440 f i crypto.obj
 0001:000264c0       ??_Gmakecert@@QAEPAXI@Z    004274c0 f i crypto.obj
 0001:00026500       ?add@?$vector@PAUauthkey@@@@QAEAAPAUauthkey@@ABQAU2@@Z 00427500 f i crypto.obj
 0001:000265b0       ?growbuf@?$vector@Ucertline@@@@QAEXH@Z 004275b0 f i crypto.obj
 0001:00026620       ??0cert@@QAE@PBD@Z         00427620 f i crypto.obj
 0001:000267f0       ??1docident@@QAE@XZ        004277f0 f i docs.obj
 0001:000268d0       ?access@?$hashtable@PBDUdocident@@@@QAEPAUdocident@@ABQBD@Z 004278d0 f i docs.obj
 0001:00026960       ??1?$vector@Udocexample@@@@QAE@XZ 00427960 f i docs.obj
 0001:000269c0       ??1?$vector@Udocargument@@@@QAE@XZ 004279c0 f i docs.obj
 0001:00026a40       ?insert@?$hashtable@PBDUdocident@@@@QAEPAUchain@1@ABQBDI@Z 00427a40 f i docs.obj
 0001:00026c00       _fprintf                   00427c00 f i log.obj
 0001:00026c30       ?remove@?$vector@TSDL_Event@@@@QAE?ATSDL_Event@@H@Z 00427c30 f i main.obj
 0001:00026ce0       ?add@?$vector@TSDL_Event@@@@QAEAATSDL_Event@@ABT2@@Z 00427ce0 f i main.obj
 0001:00026dd0       ?checkarg@servercommandline@@QAE_NPBD@Z 00427dd0 f i main.obj
 0001:00027510       ?width@mitemmanual@@UAEHXZ 00428510 f i menus.obj
 0001:00027550       ?render@mitemmanual@@UAEXHHH@Z 00428550 f i menus.obj
 0001:00027670       ?focus@mitemmanual@@UAEX_N@Z 00428670 f i menus.obj
 0001:000276b0       ?select@mitemmanual@@UAEHXZ 004286b0 f i menus.obj
 0001:00027700       ?getdesc@mitemmanual@@UAEPBDXZ 00428700 f i menus.obj
 0001:00027710       ?gettext@mitemkeyinput@@UAEPBDXZ 00428710 f i menus.obj
 0001:00027710       ?gettext@mitemmanual@@UAEPBDXZ 00428710 f i menus.obj
 0001:00027710       ?gettext@mitemcheckbox@@UAEPBDXZ 00428710 f i menus.obj
 0001:00027720       ?getaction@mitemmanual@@UAEPBDXZ 00428720 f i menus.obj
 0001:00027730       ??_Gmitemmanual@@UAEPAXI@Z 00428730 f i menus.obj
 0001:00027730       ??_Emitemmanual@@UAEPAXI@Z 00428730 f i * CIL library *:* CIL module *
 0001:00027760       ??0mitemtext@@QAE@PAUgmenu@@PAD11PAUcolor@@PBD@Z 00428760 f i menus.obj
 0001:000277b0       ??1mitemtext@@UAE@XZ       004287b0 f i menus.obj
 0001:00027820       ??_Emitemtext@@UAEPAXI@Z   00428820 f i * CIL library *:* CIL module *
 0001:00027820       ??_Gmitemtext@@UAEPAXI@Z   00428820 f i menus.obj
 0001:00027840       ?width@mitemimagemanual@@UAEHXZ 00428840 f i menus.obj
 0001:000278e0       ?render@mitemimagemanual@@UAEXHHH@Z 004288e0 f i menus.obj
 0001:00027ca0       ??_Gmitemimagemanual@@UAEPAXI@Z 00428ca0 f i menus.obj
 0001:00027ca0       ??_Emitemimagemanual@@UAEPAXI@Z 00428ca0 f i * CIL library *:* CIL module *
 0001:00027cd0       ??_Gmitemimage@@UAEPAXI@Z  00428cd0 f i menus.obj
 0001:00027cd0       ??_Emitemimage@@UAEPAXI@Z  00428cd0 f i * CIL library *:* CIL module *
 0001:00027d60       ??0mitemmapload@@QAE@PAUgmenu@@PBDPAD221@Z 00428d60 f i menus.obj
 0001:00027dc0       ?key@mitemmapload@@UAEXH_N@Z 00428dc0 f i menus.obj
 0001:00027e00       ?render@mitemmapload@@UAEXHHH@Z 00428e00 f i menus.obj
 0001:000280e0       ??_Emitemmapload@@UAEPAXI@Z 004290e0 f i * CIL library *:* CIL module *
 0001:000280e0       ??_Gmitemmapload@@UAEPAXI@Z 004290e0 f i menus.obj
 0001:00028190       ?width@mitemtextinput@@UAEHXZ 00429190 f i menus.obj
 0001:000281c0       ?render@mitemtextinput@@UAEXHHH@Z 004291c0 f i menus.obj
 0001:00028490       ?focus@mitemtextinput@@UAEX_N@Z 00429490 f i menus.obj
 0001:00028540       ?key@mitemtextinput@@UAEXH_N@Z 00429540 f i menus.obj
 0001:000285b0       ?say@mitemtextinput@@UAEXPBD@Z 004295b0 f i menus.obj
 0001:000285d0       ?init@mitemtextinput@@UAEXXZ 004295d0 f i menus.obj
 0001:00028620       ?select@mitemtextinput@@UAEHXZ 00429620 f i menus.obj
 0001:000286e0       ??_Gmitemtextinput@@UAEPAXI@Z 004296e0 f i menus.obj
 0001:000286e0       ??_Emitemtextinput@@UAEPAXI@Z 004296e0 f i * CIL library *:* CIL module *
 0001:00028710       ??0mitemslider@@QAE@PAUgmenu@@PADHH111PAUcolor@@_N3@Z 00429710 f i menus.obj
 0001:00028820       ?width@mitemslider@@UAEHXZ 00429820 f i menus.obj
 0001:00028870       ?render@mitemslider@@UAEXHHH@Z 00429870 f i menus.obj
 0001:00028af0       ?key@mitemslider@@UAEXH_N@Z 00429af0 f i menus.obj
 0001:00028b20       ?init@mitemslider@@UAEXXZ  00429b20 f i menus.obj
 0001:00028b70       ?slide@mitemslider@@QAEX_N@Z 00429b70 f i menus.obj
 0001:00028c10       ?displaycurvalue@mitemslider@@QAEXXZ 00429c10 f i menus.obj
 0001:00028cd0       ?getmaxvaluewidth@mitemslider@@QAEXXZ 00429cd0 f i menus.obj
 0001:00028f60       ?gettext@mitemslider@@UAEPBDXZ 00429f60 f i menus.obj
 0001:00028f70       ?getaction@mitemslider@@UAEPBDXZ 00429f70 f i menus.obj
 0001:00028f80       ??_Gmitemslider@@UAEPAXI@Z 00429f80 f i menus.obj
 0001:00028f80       ??_Emitemslider@@UAEPAXI@Z 00429f80 f i * CIL library *:* CIL module *
 0001:00029050       ??0mitemkeyinput@@QAE@PAUgmenu@@PAD1PAUcolor@@H@Z 0042a050 f i menus.obj
 0001:000290c0       ?width@mitemkeyinput@@UAEHXZ 0042a0c0 f i menus.obj
 0001:00029110       ?render@mitemkeyinput@@UAEXHHH@Z 0042a110 f i menus.obj
 0001:000292c0       ?init@mitemkeyinput@@UAEXXZ 0042a2c0 f i menus.obj
 0001:00029360       ?select@mitemkeyinput@@UAEHXZ 0042a360 f i menus.obj
 0001:00029390       ?key@mitemkeyinput@@UAEXH_N@Z 0042a390 f i menus.obj
 0001:000295c0       ??_Emitemkeyinput@@UAEPAXI@Z 0042a5c0 f i * CIL library *:* CIL module *
 0001:000295c0       ??_Gmitemkeyinput@@UAEPAXI@Z 0042a5c0 f i menus.obj
 0001:00029640       ?width@mitemcheckbox@@UAEHXZ 0042a640 f i menus.obj
 0001:00029690       ?select@mitemcheckbox@@UAEHXZ 0042a690 f i menus.obj
 0001:000296c0       ?init@mitemcheckbox@@UAEXXZ 0042a6c0 f i menus.obj
 0001:00029710       ?render@mitemcheckbox@@UAEXHHH@Z 0042a710 f i menus.obj
 0001:00029a70       ?getaction@mitemcheckbox@@UAEPBDXZ 0042aa70 f i menus.obj
 0001:00029a80       ??_Emitemcheckbox@@UAEPAXI@Z 0042aa80 f i * CIL library *:* CIL module *
 0001:00029a80       ??_Gmitemcheckbox@@UAEPAXI@Z 0042aa80 f i menus.obj
 0001:00029af0       ?add@?$vector@PAUgmenu@@@@QAEAAPAUgmenu@@ABQAU2@@Z 0042aaf0 f i menus.obj
 0001:00029ba0       ??A?$hashtable@PBDUgmenu@@@@QAEAAUgmenu@@ABQBD@Z 0042aba0 f i menus.obj
 0001:00029c40       ?access@?$hashtable@PBDUgmenu@@@@QAEPAUgmenu@@ABQBD@Z 0042ac40 f i menus.obj
 0001:00029cd0       ?inrange@?$vector@PAUmitem@@@@QBE_NH@Z 0042acd0 f i menus.obj
 0001:00029cf0       ?insert@?$hashtable@PBDUgmenu@@@@QAEPAUchain@1@ABQBDI@Z 0042acf0 f i menus.obj
 0001:00029ec0       ??1gmenu@@UAE@XZ           0042aec0 f i menus.obj
 0001:00029f70       ??_Ggmenu@@UAEPAXI@Z       0042af70 f i menus.obj
 0001:00029f70       ??_Egmenu@@UAEPAXI@Z       0042af70 f i * CIL library *:* CIL module *
 0001:00029f90       ??_Gmdirlist@@QAEPAXI@Z    0042af90 f i menus.obj
 0001:0002a020       ??_Gmitem@@UAEPAXI@Z       0042b020 f i menus.obj
 0001:0002a020       ??_Emitem@@UAEPAXI@Z       0042b020 f i * CIL library *:* CIL module *
 0001:0002a050       ?deletecontents@?$vector@PAUmitem@@@@QAEXXZ 0042b050 f i menus.obj
 0001:0002a080       ?gettext@mitem@@UAEPBDXZ   0042b080 f i menus.obj
 0001:0002a080       __get_startup_new_mode     0042b080 f i LIBCMT:new_mode.obj
 0001:0002a080       ?getaction@mitem@@UAEPBDXZ 0042b080 f i menus.obj
 0001:0002a080       ?getdesc@mitem@@UAEPBDXZ   0042b080 f i menus.obj
 0001:0002a080       ___scrt_exe_initialize_mta 0042b080 f i LIBCMT:utility_desktop.obj
 0001:0002a080       ?getcrc@stream@@UAEIXZ     0042b080 f i stream.obj
 0001:0002a080       __get_startup_commit_mode  0042b080 f i LIBCMT:commit_mode.obj
 0001:0002a080       __get_startup_thread_locale_mode 0042b080 f i LIBCMT:thread_locale.obj
 0001:0002a080       ?select@mitem@@UAEHXZ      0042b080 f i menus.obj
 0001:0002a080       ___scrt_initialize_winrt   0042b080 f i LIBCMT:utility_desktop.obj
 0001:0002a080       ___scrt_stub_for_initialize_mta 0042b080 f i LIBCMT:utility_desktop.obj
 0001:0002a080       __matherr                  0042b080 f i LIBCMT:matherr.obj
 0001:0002a090       ?close@filestream@@UAEXXZ  0042b090 f i stream.obj
 0001:0002a0b0       ?end@filestream@@UAE_NXZ   0042b0b0 f i stream.obj
 0001:0002a0d0       ?tell@filestream@@UAEJXZ   0042b0d0 f i stream.obj
 0001:0002a0e0       ?seek@filestream@@UAE_NJH@Z 0042b0e0 f i stream.obj
 0001:0002a100       ?fflush@filestream@@UAEXXZ 0042b100 f i stream.obj
 0001:0002a110       ?read@filestream@@UAEHPAXH@Z 0042b110 f i stream.obj
 0001:0002a130       ?write@filestream@@UAEHPBXH@Z 0042b130 f i stream.obj
 0001:0002a150       ?getchar@filestream@@UAEHXZ 0042b150 f i stream.obj
 0001:0002a160       ?putchar@filestream@@UAE_NH@Z 0042b160 f i stream.obj
 0001:0002a180       ?getline@filestream@@UAE_NPADH@Z 0042b180 f i stream.obj
 0001:0002a1a0       ?putstring@filestream@@UAE_NPBD@Z 0042b1a0 f i stream.obj
 0001:0002a1c0       ?printf@filestream@@UAAHPBDZZ 0042b1c0 f i stream.obj
 0001:0002a1f0       ??_Gfilestream@@UAEPAXI@Z  0042b1f0 f i stream.obj
 0001:0002a1f0       ??_Efilestream@@UAEPAXI@Z  0042b1f0 f i * CIL library *:* CIL module *
 0001:0002a230       ?readbyte@gzstream@@QAEHH@Z 0042b230 f i stream.obj
 0001:0002a280       ?skipbytes@gzstream@@QAEXH@Z 0042b280 f i stream.obj
 0001:0002a2c0       ?checkheader@gzstream@@QAE_NXZ 0042b2c0 f i stream.obj
 0001:0002a500       ?getcrc@gzstream@@UAEIXZ   0042b500 f i stream.obj
 0001:0002a510       ?stopreading@gzstream@@QAEXXZ 0042b510 f i stream.obj
 0001:0002a530       ?stopwriting@gzstream@@QAEXXZ 0042b530 f i stream.obj
 0001:0002a550       ?close@gzstream@@UAEXXZ    0042b550 f i stream.obj
 0001:0002a690       ?end@gzstream@@UAE_NXZ     0042b690 f i stream.obj
 0001:0002a6b0       ?tell@gzstream@@UAEJXZ     0042b6b0 f i stream.obj
 0001:0002a6d0       ?seek@gzstream@@UAE_NJH@Z  0042b6d0 f i stream.obj
 0001:0002a800       ?read@gzstream@@UAEHPAXH@Z 0042b800 f i stream.obj
 0001:0002a8e0       ?write@gzstream@@UAEHPBXH@Z 0042b8e0 f i stream.obj
 0001:0002a9a0       ??_Ggzstream@@UAEPAXI@Z    0042b9a0 f i stream.obj
 0001:0002a9a0       ??_Egzstream@@UAEPAXI@Z    0042b9a0 f i * CIL library *:* CIL module *
 0001:0002a9d0       ?close@vecstream@@UAEXXZ   0042b9d0 f i stream.obj
 0001:0002a9f0       ?end@vecstream@@UAE_NXZ    0042b9f0 f i stream.obj
 0001:0002aa10       ?size@memstream@@UAEJXZ    0042ba10 f i stream.obj
 0001:0002aa10       ?tell@vecstream@@UAEJXZ    0042ba10 f i stream.obj
 0001:0002aa20       ?size@vecstream@@UAEJXZ    0042ba20 f i stream.obj
 0001:0002aa30       ?seek@vecstream@@UAE_NJH@Z 0042ba30 f i stream.obj
 0001:0002aa90       ?read@vecstream@@UAEHPAXH@Z 0042ba90 f i stream.obj
 0001:0002aae0       ?write@vecstream@@UAEHPBXH@Z 0042bae0 f i stream.obj
 0001:0002ab60       ?printf@vecstream@@UAAHPBDZZ 0042bb60 f i stream.obj
 0001:0002ac00       ??_Gvecstream@@UAEPAXI@Z   0042bc00 f i stream.obj
 0001:0002ac00       ??_Evecstream@@UAEPAXI@Z   0042bc00 f i * CIL library *:* CIL module *
 0001:0002ac50       ?close@memstream@@UAEXXZ   0042bc50 f i stream.obj
 0001:0002ac90       ?end@memstream@@UAE_NXZ    0042bc90 f i stream.obj
 0001:0002acb0       ?tell@memstream@@UAEJXZ    0042bcb0 f i stream.obj
 0001:0002acc0       ?seek@memstream@@UAE_NJH@Z 0042bcc0 f i stream.obj
 0001:0002ad10       ?read@memstream@@UAEHPAXH@Z 0042bd10 f i stream.obj
 0001:0002ad60       ??_Ememstream@@UAEPAXI@Z   0042bd60 f i * CIL library *:* CIL module *
 0001:0002ad60       ??_Gmemstream@@UAEPAXI@Z   0042bd60 f i stream.obj
 0001:0002adb0       ??_Estream@@UAEPAXI@Z      0042bdb0 f i * CIL library *:* CIL module *
 0001:0002adb0       ??_Gstream@@UAEPAXI@Z      0042bdb0 f i stream.obj
 0001:0002ade0       ?getchar@stream@@UAEHXZ    0042bde0 f i stream.obj
 0001:0002ae00       ?putstring@stream@@UAE_NPBD@Z 0042be00 f i stream.obj
 0001:0002ae30       ?putchar@stream@@UAE_NH@Z  0042be30 f i stream.obj
 0001:0002ae50       ?putline@stream@@UAE_NPBD@Z 0042be50 f i stream.obj
 0001:0002ae80       ?tell@stream@@UAEJXZ       0042be80 f i stream.obj
 0001:0002ae80       ?printf@stream@@UAAHPBDZZ  0042be80 f i stream.obj
 0001:0002ae90       ?write@stream@@UAEHPBXH@Z  0042be90 f i stream.obj
 0001:0002ae90       ?read@stream@@UAEHPAXH@Z   0042be90 f i stream.obj
 0001:0002aea0       ?seek@stream@@UAE_NJH@Z    0042bea0 f i stream.obj
 0001:0002aeb0       ?vertwtc@@YAXMMMM@Z        0042beb0 f i water.obj
 0001:0002b0f0       ?vertwmtc@@YAXMMMM@Z       0042c0f0 f i water.obj
 0001:0002b390       ??0zipstream@@QAE@XZ       0042c390 f i zip.obj
 0001:0002b3f0       ?open@zipstream@@QAE_NPAUziparchive@@PAUzipfile@@@Z 0042c3f0 f i zip.obj
 0001:0002b4c0       ?stopreading@zipstream@@QAEXXZ 0042c4c0 f i zip.obj
 0001:0002b530       ?close@zipstream@@UAEXXZ   0042c530 f i zip.obj
 0001:0002b570       ?size@zipstream@@UAEJXZ    0042c570 f i zip.obj
 0001:0002b580       ?end@zipstream@@UAE_NXZ    0042c580 f i zip.obj
 0001:0002b5a0       ?tell@zipstream@@UAEJXZ    0042c5a0 f i zip.obj
 0001:0002b5c0       ?seek@zipstream@@UAE_NJH@Z 0042c5c0 f i zip.obj
 0001:0002b780       ?read@zipstream@@UAEHPAXH@Z 0042c780 f i zip.obj
 0001:0002b920       ??_Ezipstream@@UAEPAXI@Z   0042c920 f i * CIL library *:* CIL module *
 0001:0002b920       ??_Gzipstream@@UAEPAXI@Z   0042c920 f i zip.obj
 0001:0002b980       ??_Gziparchive@@QAEPAXI@Z  0042c980 f i zip.obj
 0001:0002b9d0       ?access@?$hashtable@PBDUmemfile@@@@QAEPAUmemfile@@ABQBD@Z 0042c9d0 f i zip.obj
 0001:0002ba60       ?access@?$hashtable@PBDPAUzipfile@@@@QAEPAPAUzipfile@@ABQBD@Z 0042ca60 f i zip.obj
 0001:0002baf0       ?removeobj@?$vector@PAUziparchive@@@@QAEXABQAUziparchive@@@Z 0042caf0 f i zip.obj
 0001:0002bb40       ?add@?$vector@PAUziparchive@@@@QAEAAPAUziparchive@@ABQAU2@@Z 0042cb40 f i zip.obj
 0001:0002bbf0       ??1?$vector@Uzipfile@@@@QAE@XZ 0042cbf0 f i zip.obj
 0001:0002bc60       ?insertchains@?$hashtable@PBDUmemfile@@@@QAEXPAUchainchunk@1@@Z 0042cc60 f i zip.obj
 0001:0002bd50       ?insertchains@?$hashtable@PBDPAUzipfile@@@@QAEXPAUchainchunk@1@@Z 0042cd50 f i zip.obj
 0001:0002be30       ?Get2DDistance@CBot@@QAEMABUvec@@@Z 0042ce30 f i ac_bot_ai.obj
 0001:0002beb0       ?IsVisible@CBot@@QAE_NABUvec@@_N@Z 0042ceb0 f i ac_bot_ai.obj
 0001:0002bf20       ?GetNearestWaypoint@CBot@@QAEPAUwaypoint_s@@M@Z 0042cf20 f i ac_bot_ai.obj
 0001:0002bf40       ??_ECACBot@@UAEPAXI@Z      0042cf40 f i * CIL library *:* CIL module *
 0001:0002bf40       ??_GCACBot@@UAEPAXI@Z      0042cf40 f i botmanager.obj
 0001:0002bf40       ??_GCBot@@UAEPAXI@Z        0042cf40 f i bot.obj
 0001:0002bf40       ??_ECBot@@UAEPAXI@Z        0042cf40 f i * CIL library *:* CIL module *
 0001:0002bf70       ??1?$TLinkedList@PAVCStoredBot@@@@QAE@XZ 0042cf70 f i botmanager.obj
 0001:0002bf70       ??1?$TLinkedList@PAUunreachable_ent_s@@@@QAE@XZ 0042cf70 f i bot.obj
 0001:0002bf70       ??1?$TLinkedList@PAUwaypoint_version_1_s@@@@QAE@XZ 0042cf70 f i bot_waypoint.obj
 0001:0002bf70       ?DeleteAllNodes@?$TLinkedList@PAUnode_s@@@@QAEXXZ 0042cf70 f i bot_waypoint.obj
 0001:0002bf70       ?DeleteAllNodes@?$TLinkedList@PAUwaypoint_s@@@@QAEXXZ 0042cf70 f i bot.obj
 0001:0002bfc0       ?DeleteNode@?$TLinkedList@PAUunreachable_ent_s@@@@QAEXPAUnode_s@1@@Z 0042cfc0 f i bot.obj
 0001:0002bfc0       ?DeleteNode@?$TLinkedList@PAUnode_s@@@@QAEXPAUnode_s@1@@Z 0042cfc0 f i bot_waypoint.obj
 0001:0002bfc0       ?DeleteNode@?$TLinkedList@PAUwaypoint_s@@@@QAEXPAUnode_s@1@@Z 0042cfc0 f i bot.obj
 0001:0002c060       ?Clear@?$TPriorList@PAUwaypoint_s@@M@@QAEXXZ 0042d060 f i bot.obj
 0001:0002c090       ?IsVisible@CBot@@QAE_NPAVplayerent@@_N@Z 0042d090 f i bot_ai.obj
 0001:0002c100       ?IsVisible@CBot@@QAE_NHM_N@Z 0042d100 f i bot_ai.obj
 0001:0002c140       ?GetSelection@?$TMultiChoice@H@@QAE_NAAH@Z 0042d140 f i bot_ai.obj
 0001:0002c1a0       ?Insert@?$TMultiChoice@H@@QAEXHF@Z 0042d1a0 f i bot_ai.obj
 0001:0002c280       ??1?$TMultiChoice@H@@QAE@XZ 0042d280 f i bot_ai.obj
 0001:0002c280       ??1?$TMultiChoice@PBD@@QAE@XZ 0042d280 f i botmanager.obj
 0001:0002c340       ??0?$TMultiChoice@H@@QAE@XZ 0042d340 f i bot_ai.obj
 0001:0002c370       ??_GCWaypointClass@@UAEPAXI@Z 0042d370 f i bot_waypoint.obj
 0001:0002c370       ??_ECACWaypointClass@@UAEPAXI@Z 0042d370 f i * CIL library *:* CIL module *
 0001:0002c370       ??_GCACWaypointClass@@UAEPAXI@Z 0042d370 f i bot_waypoint.obj
 0001:0002c370       ??_ECWaypointClass@@UAEPAXI@Z 0042d370 f i * CIL library *:* CIL module *
 0001:0002c3c0       ?AddEntry@?$TPriorList@PAUwaypoint_s@@M@@QAEXPAUwaypoint_s@@M@Z 0042d3c0 f i bot_waypoint.obj
 0001:0002c470       ?PushNode@?$TLinkedList@PAUwaypoint_s@@@@QAEXPAUwaypoint_s@@@Z 0042d470 f i bot_waypoint.obj
 0001:0002c4f0       ?AddNode@?$TLinkedList@PAUnode_s@@@@QAEXPAUnode_s@@@Z 0042d4f0 f i bot_waypoint.obj
 0001:0002c4f0       ?AddNode@?$TLinkedList@PAUwaypoint_s@@@@QAEXPAUwaypoint_s@@@Z 0042d4f0 f i bot_waypoint.obj
 0001:0002c580       ?DeleteEntry@?$TLinkedList@PAUnode_s@@@@QAEXPAUnode_s@@@Z 0042d580 f i bot_waypoint.obj
 0001:0002c630       ?ClearStoredBots@CBotManager@@QAEXXZ 0042d630 f i botmanager.obj
 0001:0002c6a0       ??_Gbufferhashtable@@UAEPAXI@Z 0042d6a0 f i audiomanager.obj
 0001:0002c6a0       ??_Ebufferhashtable@@UAEPAXI@Z 0042d6a0 f i * CIL library *:* CIL module *
 0001:0002c6f0       ??_Ephysentreference@@UAEPAXI@Z 0042d6f0 f i * CIL library *:* CIL module *
 0001:0002c6f0       ??_Gphysentreference@@UAEPAXI@Z 0042d6f0 f i audiomanager.obj
 0001:0002c6f0       ??_Gentityreference@@UAEPAXI@Z 0042d6f0 f i audiomanager.obj
 0001:0002c6f0       ??_Eentityreference@@UAEPAXI@Z 0042d6f0 f i * CIL library *:* CIL module *
 0001:0002c720       ??_Gstaticreference@@UAEPAXI@Z 0042d720 f i audiomanager.obj
 0001:0002c720       ??_Estaticreference@@UAEPAXI@Z 0042d720 f i * CIL library *:* CIL module *
 0001:0002c750       ?deletechunks@?$hashtable@PBDVsbuffer@@@@QAEXXZ 0042d750 f i audiomanager.obj
 0001:0002c7f0       ??_Glocvector@@UAEPAXI@Z   0042d7f0 f i audiomanager.obj
 0001:0002c7f0       ??_Elocvector@@UAEPAXI@Z   0042d7f0 f i * CIL library *:* CIL module *
 0001:0002c830       ??_Goggstream@@UAEPAXI@Z   0042d830 f i oggstream.obj
 0001:0002c830       ??_Eoggstream@@UAEPAXI@Z   0042d830 f i * CIL library *:* CIL module *
 0001:0002c8f0       ??_Gsourceowner@@UAEPAXI@Z 0042d8f0 f i oggstream.obj
 0001:0002c8f0       ??_Esourceowner@@UAEPAXI@Z 0042d8f0 f i * CIL library *:* CIL module *
 0001:0002c920       ?insert@?$hashtable@PBDVsbuffer@@@@QAEPAUchain@1@ABQBDI@Z 0042d920 f i openal.obj
 0001:0002ca50       ??_Elocation@@UAEPAXI@Z    0042da50 f i * CIL library *:* CIL module *
 0001:0002ca50       ??_Glocation@@UAEPAXI@Z    0042da50 f i soundlocation.obj
 0001:0002cae0       ??_Gsource@@QAEPAXI@Z      0042dae0 f i soundscheduler.obj
 0001:0002cb20       ?put@?$vector@E@@QAEXABE@Z 0042db20 f i protocol1.obj
 0001:0002cb49       _SDL_free                  0042db49 f   SDL2:SDL2.dll
 0001:0002cb4f       _ntohl@4                   0042db4f f   ws2_32:WS2_32.dll
 0001:0002cb55       _htonl@4                   0042db55 f   ws2_32:WS2_32.dll
 0001:0002cb5b       ___WSAFDIsSet@8            0042db5b f   ws2_32:WS2_32.dll
 0001:0002cb61       _htons@4                   0042db61 f   ws2_32:WS2_32.dll
 0001:0002cb67       _ntohs@4                   0042db67 f   ws2_32:WS2_32.dll
 0001:0002cb6d       _WSAStartup@8              0042db6d f   ws2_32:WS2_32.dll
 0001:0002cb73       _WSACleanup@0              0042db73 f   ws2_32:WS2_32.dll
 0001:0002cb79       _gethostbyname@4           0042db79 f   ws2_32:WS2_32.dll
 0001:0002cb7f       _inet_addr@4               0042db7f f   ws2_32:WS2_32.dll
 0001:0002cb85       _inet_ntoa@4               0042db85 f   ws2_32:WS2_32.dll
 0001:0002cb8b       _gethostbyaddr@12          0042db8b f   ws2_32:WS2_32.dll
 0001:0002cb91       _bind@12                   0042db91 f   ws2_32:WS2_32.dll
 0001:0002cb97       _listen@8                  0042db97 f   ws2_32:WS2_32.dll
 0001:0002cb9d       _socket@12                 0042db9d f   ws2_32:WS2_32.dll
 0001:0002cba3       _setsockopt@20             0042dba3 f   ws2_32:WS2_32.dll
 0001:0002cba9       _ioctlsocket@12            0042dba9 f   ws2_32:WS2_32.dll
 0001:0002cbaf       _connect@12                0042dbaf f   ws2_32:WS2_32.dll
 0001:0002cbb5       _WSAGetLastError@0         0042dbb5 f   ws2_32:WS2_32.dll
 0001:0002cbbb       _accept@12                 0042dbbb f   ws2_32:WS2_32.dll
 0001:0002cbc1       _shutdown@8                0042dbc1 f   ws2_32:WS2_32.dll
 0001:0002cbc7       _closesocket@4             0042dbc7 f   ws2_32:WS2_32.dll
 0001:0002cbcd       _WSASendTo@36              0042dbcd f   ws2_32:WS2_32.dll
 0001:0002cbd3       _WSARecvFrom@36            0042dbd3 f   ws2_32:WS2_32.dll
 0001:0002cbd9       _select@20                 0042dbd9 f   ws2_32:WS2_32.dll
 0001:0002cbdf       _timeGetTime@0             0042dbdf f   winmm:WINMM.dll
 0001:0002cbe5       _timeBeginPeriod@4         0042dbe5 f   winmm:WINMM.dll
 0001:0002cbeb       _timeEndPeriod@4           0042dbeb f   winmm:WINMM.dll
 0001:0002cc35       ___scrt_acquire_startup_lock 0042dc35 f   LIBCMT:utility.obj
 0001:0002cc67       ___scrt_initialize_crt     0042dc67 f   LIBCMT:utility.obj
 0001:0002cca0       ___scrt_initialize_onexit_tables 0042dca0 f   LIBCMT:utility.obj
 0001:0002cd27       ___scrt_is_nonwritable_in_current_image 0042dd27 f   LIBCMT:utility.obj
 0001:0002cdbb       ___scrt_release_startup_lock 0042ddbb f   LIBCMT:utility.obj
 0001:0002cdd8       ___scrt_uninitialize_crt   0042ddd8 f   LIBCMT:utility.obj
 0001:0002ce00       __onexit                   0042de00 f   LIBCMT:utility.obj
 0001:0002ce2d       _atexit                    0042de2d f   LIBCMT:utility.obj
 0001:0002ce42       ??_V@YAXPAX@Z              0042de42 f   LIBCMT:delete_array.obj
 0001:0002ce47       ??_U@YAPAXI@Z              0042de47 f   LIBCMT:new_array.obj
 0001:0002ce50       ??3@YAXPAXI@Z              0042de50 f   LIBCMT:delete_scalar_size.obj
 0001:0002cf23       __Init_thread_footer       0042df23 f   LIBCMT:thread_safe_statics.obj
 0001:0002cf6d       __Init_thread_header       0042df6d f   LIBCMT:thread_safe_statics.obj
 0001:0002cfbf       __Init_thread_notify       0042dfbf f   LIBCMT:thread_safe_statics.obj
 0001:0002cff5       __Init_thread_wait         0042dff5 f   LIBCMT:thread_safe_statics.obj
 0001:0002d043       ??_Etype_info@@UAEPAXI@Z   0042e043 f i LIBCMT:std_type_info_static.obj
 0001:0002d043       ??_Gtype_info@@UAEPAXI@Z   0042e043 f i LIBCMT:std_type_info_static.obj
 0001:0002d066       ??2@YAPAXI@Z               0042e066 f   LIBCMT:new_scalar.obj
 0001:0002d096       ??_V@YAXPAXI@Z             0042e096 f   LIBCMT:delete_array_size.obj
 0001:0002d2e5       _WinMainCRTStartup         0042e2e5 f   LIBCMT:exe_winmain.obj
 0001:0002d2ef       ___isa_available_init      0042e2ef f   LIBCMT:cpu_disp.obj
 0001:0002d4c0       __get_startup_argv_mode    0042e4c0 f   LIBCMT:argv_mode.obj
 0001:0002d4c4       ___scrt_is_ucrt_dll_in_use 0042e4c4 f   LIBCMT:ucrt_detection.obj
 0001:0002d4d0       ___scrt_fastfail           0042e4d0 f   LIBCMT:utility_desktop.obj
 0001:0002d5eb       ___scrt_get_show_window_mode 0042e5eb f   LIBCMT:utility_desktop.obj
 0001:0002d61c       ___scrt_initialize_mta     0042e61c f   LIBCMT:utility_desktop.obj
 0001:0002d621       ___scrt_is_managed_app     0042e621 f   LIBCMT:utility_desktop.obj
 0001:0002d664       ___scrt_set_unhandled_exception_filter 0042e664 f   LIBCMT:utility_desktop.obj
 0001:0002d670       ___scrt_unhandled_exception_filter@4 0042e670 f   LIBCMT:utility_desktop.obj
 0001:0002d6c6       __crt_debugger_hook        0042e6c6 f   LIBCMT:utility_desktop.obj
 0001:0002d6d0       __SEH_prolog4              0042e6d0 f   LIBCMT:sehprolg4.obj
 0001:0002d715       ??3@YAXPAX@Z               0042e715 f   LIBCMT:delete_scalar.obj
 0001:0002d71a       ??0bad_alloc@std@@QAE@ABV01@@Z 0042e71a f i LIBCMT:throw_bad_alloc.obj
 0001:0002d735       ??0bad_alloc@std@@QAE@XZ   0042e735 f i LIBCMT:throw_bad_alloc.obj
 0001:0002d74d       ??0bad_array_new_length@std@@QAE@ABV01@@Z 0042e74d f i LIBCMT:throw_bad_alloc.obj
 0001:0002d768       ??0bad_array_new_length@std@@QAE@XZ 0042e768 f i LIBCMT:throw_bad_alloc.obj
 0001:0002d780       ??0exception@std@@QAE@ABV01@@Z 0042e780 f i LIBCMT:throw_bad_alloc.obj
 0001:0002d7ac       ??1bad_array_new_length@std@@UAE@XZ 0042e7ac f i LIBCMT:throw_bad_alloc.obj
 0001:0002d7ac       ??1bad_exception@std@@UAE@XZ 0042e7ac f i libvcruntime:frame.obj
 0001:0002d7ac       ??1bad_alloc@std@@UAE@XZ   0042e7ac f i LIBCMT:throw_bad_alloc.obj
 0001:0002d7bd       ??_Gexception@std@@UAEPAXI@Z 0042e7bd f i LIBCMT:throw_bad_alloc.obj
 0001:0002d7bd       ??_Gbad_array_new_length@std@@UAEPAXI@Z 0042e7bd f i LIBCMT:throw_bad_alloc.obj
 0001:0002d7bd       ??_Gbad_alloc@std@@UAEPAXI@Z 0042e7bd f i LIBCMT:throw_bad_alloc.obj
 0001:0002d7bd       ??_Ebad_alloc@std@@UAEPAXI@Z 0042e7bd f i LIBCMT:throw_bad_alloc.obj
 0001:0002d7bd       ??_Ebad_exception@std@@UAEPAXI@Z 0042e7bd f i libvcruntime:frame.obj
 0001:0002d7bd       ??_Ebad_array_new_length@std@@UAEPAXI@Z 0042e7bd f i LIBCMT:throw_bad_alloc.obj
 0001:0002d7bd       ??_Eexception@std@@UAEPAXI@Z 0042e7bd f i LIBCMT:throw_bad_alloc.obj
 0001:0002d7bd       ??_Gbad_exception@std@@UAEPAXI@Z 0042e7bd f i libvcruntime:frame.obj
 0001:0002d7ea       ?__scrt_throw_std_bad_alloc@@YAXXZ 0042e7ea f   LIBCMT:throw_bad_alloc.obj
 0001:0002d807       ?__scrt_throw_std_bad_array_new_length@@YAXXZ 0042e807 f   LIBCMT:throw_bad_alloc.obj
 0001:0002d824       ?what@exception@std@@UBEPBDXZ 0042e824 f i LIBCMT:throw_bad_alloc.obj
 0001:0002d87e       ___security_init_cookie    0042e87e f   LIBCMT:gs_support.obj
 0001:0002d8c9       __get_startup_file_mode    0042e8c9 f   LIBCMT:file_mode.obj
 0001:0002d8cf       ?__scrt_initialize_type_info@@YAXXZ 0042e8cf f   LIBCMT:tncleanup.obj
 0001:0002d8db       __initialize_default_precision 0042e8db f   LIBCMT:default_precision.obj
 0001:0002d8fc       ___scrt_initialize_default_local_stdio_options 0042e8fc f   LIBCMT:default_local_stdio_options.obj
 0001:0002d919       ___scrt_is_user_matherr_present 0042e919 f   LIBCMT:matherr_detection.obj
 0001:0002d925       ___scrt_get_dyn_tls_init_callback 0042e925 f   LIBCMT:dyn_tls_init.obj
 0001:0002d92b       ___scrt_get_dyn_tls_dtor_callback 0042e92b f   LIBCMT:dyn_tls_dtor.obj
 0001:0002d931       __RTC_Initialize           0042e931 f   LIBCMT:initsect.obj
 0001:0002d95d       __RTC_Terminate            0042e95d f   LIBCMT:initsect.obj
 0001:0002d989       @__security_check_cookie@4 0042e989 f   LIBCMT:secchk.obj
 0001:0002d997       ___raise_securityfailure   0042e997 f   LIBCMT:gs_report.obj
 0001:0002d9bf       ___report_gsfailure        0042e9bf f   LIBCMT:gs_report.obj
 0001:0002dab9       ___report_rangecheckfailure 0042eab9 f   LIBCMT:gs_report.obj
 0001:0002dac5       ___report_securityfailure  0042eac5 f   LIBCMT:gs_report.obj
 0001:0002dba0       _strstr                    0042eba0 f   libvcruntime:strstr.obj
 0001:0002de10       _strchr                    0042ee10 f   libvcruntime:strchr.obj
 0001:0002de7e       ___from_strstr_to_strchr   0042ee7e     libvcruntime:strchr.obj
 0001:0002df3b       __get_purecall_handler     0042ef3b f   libvcruntime:purevirt.obj
 0001:0002df41       __purecall                 0042ef41 f   libvcruntime:purevirt.obj
 0001:0002df60       _strrchr                   0042ef60 f   libvcruntime:strrchr.obj
 0001:0002e0e0       __except_handler4          0042f0e0 f   libvcruntime:chandler4.obj
 0001:0002e240       _memset                    0042f240 f   libvcruntime:memset.obj
 0001:0002e3a0       _memmove                   0042f3a0 f   libvcruntime:memmove.obj
 0001:0002e3a0       _memcpy                    0042f3a0 f   libvcruntime:memcpy.obj
 0001:0002e914       ___vcrt_initialize         0042f914 f   libvcruntime:initialization.obj
 0001:0002e933       ___vcrt_uninitialize       0042f933 f   libvcruntime:initialization.obj
 0001:0002e94a       ___DestructExceptionObject 0042f94a f   libvcruntime:ehhelpers.obj
 0001:0002e9eb       ?_CallMemberFunction0@@YGXQAX0@Z 0042f9eb f i libvcruntime:ehhelpers.obj
 0001:0002ea50       __IsExceptionObjectToBeDestroyed 0042fa50 f   libvcruntime:ehhelpers.obj
 0001:0002ea76       ___AdjustPointer           0042fa76 f   libvcruntime:ehhelpers.obj
 0001:0002ea9b       ___FrameUnwindFilter       0042fa9b f   libvcruntime:ehhelpers.obj
 0001:0002eaf1       ___current_exception       0042faf1 f   libvcruntime:ehhelpers.obj
 0001:0002eafa       ___current_exception_context 0042fafa f   libvcruntime:ehhelpers.obj
 0001:0002eb03       ___std_terminate           0042fb03 f   libvcruntime:ehhelpers.obj
 0001:0002eb08       ___std_exception_copy      0042fb08 f   libvcruntime:std_exception.obj
 0001:0002eb6b       ___std_exception_destroy   0042fb6b f   libvcruntime:std_exception.obj
 0001:0002eb8a       __CxxThrowException@8      0042fb8a f   libvcruntime:throw.obj
 0001:0002ebf6       ___std_type_info_compare   0042fbf6 f   libvcruntime:std_type_info.obj
 0001:0002ec40       __local_unwind4            0042fc40 f   libvcruntime:exsup4.obj
 0001:0002ed30       @_EH4_CallFilterFunc@8     0042fd30 f   libvcruntime:exsup4.obj
 0001:0002ed50       @_EH4_TransferToHandler@8  0042fd50 f   libvcruntime:exsup4.obj
 0001:0002ed70       @_EH4_GlobalUnwind2@8      0042fd70 f   libvcruntime:exsup4.obj
 0001:0002ed90       @_EH4_LocalUnwind@16       0042fd90 f   libvcruntime:exsup4.obj
 0001:0002eda7       ___except_validate_context_record 0042fda7 f   libvcruntime:jbcxrval.obj
 0001:0002edd7       ___vcrt_freefls@4          0042fdd7 f   libvcruntime:per_thread_data.obj
 0001:0002edf3       ___vcrt_getptd             0042fdf3 f   libvcruntime:per_thread_data.obj
 0001:0002ee01       ___vcrt_getptd_noexit      0042fe01 f   libvcruntime:per_thread_data.obj
 0001:0002ee93       ___vcrt_initialize_ptd     0042fe93 f   libvcruntime:per_thread_data.obj
 0001:0002eec6       ___vcrt_uninitialize_ptd   0042fec6 f   libvcruntime:per_thread_data.obj
 0001:0002eee1       ___vcrt_initialize_locks   0042fee1 f   libvcruntime:locks.obj
 0001:0002ef1d       ___vcrt_uninitialize_locks 0042ff1d f   libvcruntime:locks.obj
 0001:0002ef50       __global_unwind2           0042ff50 f   libvcruntime:exsup.obj
 0001:0002efd0       __local_unwind2            0042ffd0 f   libvcruntime:exsup.obj
 0001:0002f070       __NLG_Notify1              00430070 f   libvcruntime:exsup.obj
 0001:0002f080       __NLG_Notify               00430080 f   libvcruntime:exsup.obj
 0001:0002f097       __NLG_Dispatch2            00430097     libvcruntime:exsup.obj
 0001:0002f097       __NLG_Dispatch             00430097     libvcruntime:exsup.obj
 0001:0002f0a0       __NLG_Call                 004300a0 f   libvcruntime:exsup.obj
 0001:0002f0a2       __NLG_Return2              004300a2     libvcruntime:exsup.obj
 0001:0002f186       ___vcrt_FlsAlloc           00430186 f   libvcruntime:winapi_downlevel.obj
 0001:0002f1c1       ___vcrt_FlsFree            004301c1 f   libvcruntime:winapi_downlevel.obj
 0001:0002f1fc       ___vcrt_FlsGetValue        004301fc f   libvcruntime:winapi_downlevel.obj
 0001:0002f237       ___vcrt_FlsSetValue        00430237 f   libvcruntime:winapi_downlevel.obj
 0001:0002f275       ___vcrt_InitializeCriticalSectionEx 00430275 f   libvcruntime:winapi_downlevel.obj
 0001:0002f2bc       ?GetRangeOfTrysToCheck@__FrameHandler3@@SA?AU?$pair@Viterator@TryBlockMap@__FrameHandler3@@V123@@std@@AAVTryBlockMap@1@HPAXPBU_s_FuncInfo@@H@Z 004302bc f   libvcruntime:trnsctrl.obj
 0001:0002f32c       ?_CallCatchBlock2@@YAPAXPAUEHRegistrationNode@@PBU_s_FuncInfo@@PAXHK@Z 0043032c f   libvcruntime:trnsctrl.obj
 0001:0002f389       ?_CallSETranslator@@YAHPAUEHExceptionRecord@@PAUEHRegistrationNode@@PAX2PBU_s_FuncInfo@@H1@Z 00430389 f   libvcruntime:trnsctrl.obj
 0001:0002f47f       ?_JumpToContinuation@@YGXPAXPAUEHRegistrationNode@@@Z 0043047f f   libvcruntime:trnsctrl.obj
 0001:0002f4af       ?_UnwindNestedFrames@@YGXPAUEHRegistrationNode@@PAUEHExceptionRecord@@@Z 004304af f   libvcruntime:trnsctrl.obj
 0001:0002f502       __CatchGuardHandler        00430502 f   libvcruntime:trnsctrl.obj
 0001:0002f533       __CreateFrameInfo          00430533 f   libvcruntime:trnsctrl.obj
 0001:0002f557       __FindAndUnlinkFrame       00430557 f   libvcruntime:trnsctrl.obj
 0001:0002f59f       __TranslatorGuardHandler   0043059f f   libvcruntime:trnsctrl.obj
 0001:0002f63c       ___CxxFrameHandler3        0043063c f   libvcruntime:trnsctrl.obj
 0001:0002fda9       ??$TypeMatchHelper@V__FrameHandler3@@@@YAHPBU_s_HandlerType@@PBU_s_CatchableType@@PBU_s_ThrowInfo@@@Z 00430da9 f i libvcruntime:frame.obj
 0001:0002fe37       ??$__InternalCxxFrameHandler@V__FrameHandler3@@@@YA?AW4_EXCEPTION_DISPOSITION@@PAUEHExceptionRecord@@PAUEHRegistrationNode@@PAU_CONTEXT@@PAXPBU_s_FuncInfo@@H1E@Z 00430e37 f i libvcruntime:frame.obj
 0001:0002ff39       ??0bad_exception@std@@QAE@ABV01@@Z 00430f39 f i libvcruntime:frame.obj
 0001:0002ff54       ??0bad_exception@std@@QAE@XZ 00430f54 f i libvcruntime:frame.obj
 0001:0002ff6c       ??8type_info@@QBE_NABV0@@Z 00430f6c f i libvcruntime:frame.obj
 0001:000301d8       ?FrameUnwindToEmptyState@__FrameHandler3@@SAXPAUEHRegistrationNode@@PAXPBU_s_FuncInfo@@@Z 004311d8 f   libvcruntime:frame.obj
 0001:000301f0       ?FrameUnwindToState@__FrameHandler3@@SAXPAUEHRegistrationNode@@PAXPBU_s_FuncInfo@@H@Z 004311f0 f   libvcruntime:frame.obj
 0001:00030372       ?_CallMemberFunction1@@YGXQAX00@Z 00431372 f i libvcruntime:frame.obj
 0001:00030382       ?_CallMemberFunction2@@YGXQAX00H@Z 00431382 f i libvcruntime:frame.obj
 0001:00030395       ?getESTypes@__FrameHandler3@@SAPBU_s_ESTypeList@@PBU_s_FuncInfo@@@Z 00431395 f i libvcruntime:frame.obj
 0001:000303a0       __CallSettingFrame@12      004313a0 f   libvcruntime:lowhelpr.obj
 0001:000303c7       __NLG_Return               004313c7     libvcruntime:lowhelpr.obj
 0001:000303ec       _unexpected                004313ec f   libvcruntime:unexpected.obj
 0001:00030409       ?GetCurrentState@__FrameHandler3@@SAHPAUEHRegistrationNode@@PAXPBU_s_FuncInfo@@@Z 00431409 f   libvcruntime:ehstate.obj
 0001:00030426       ?SetState@__FrameHandler3@@SAXPAUEHRegistrationNode@@PBU_s_FuncInfo@@H@Z 00431426 f   libvcruntime:ehstate.obj
 0001:0003060f       ??$count@D@formatting_buffer@__crt_stdio_output@@QBEIXZ 0043160f f i libucrt:output.obj
 0001:00030627       ??$ensure_buffer_is_big_enough@D@formatting_buffer@__crt_stdio_output@@QAE_NIAAV__crt_cached_ptd_host@@@Z 00431627 f i libucrt:output.obj
 0001:000306a8       ??$is_overflow_condition@K@__crt_strtox@@YA_NIK@Z 004316a8 f i libucrt:output.obj
 0001:000306d9       ??$is_wide_character_specifier@D@__crt_stdio_output@@YA_N_KDW4length_modifier@0@@Z 004316d9 f i libucrt:output.obj
 0001:0003070a       ??$make_c_string_character_source@DPAPAD@__crt_strtox@@YA?AV?$c_string_character_source@D@0@QBDQAPAD@Z 0043170a f i libucrt:output.obj
 0001:0003070a       ??$make_c_string_character_source@_WPAPA_W@__crt_strtox@@YA?AV?$c_string_character_source@_W@0@QB_WQAPA_W@Z 0043170a f i libucrt:output.obj
 0001:00030725       ??$parse_integer@KV?$c_string_character_source@D@__crt_strtox@@$0A@@__crt_strtox@@YAKAAV__crt_cached_ptd_host@@V?$c_string_character_source@D@0@H_N@Z 00431725 f i libucrt:output.obj
 0001:00030934       ??$scratch_data@D@formatting_buffer@__crt_stdio_output@@QAEPADXZ 00431934 f i libucrt:output.obj
 0001:00030952       ??$type_case_integer@$07@?$output_processor@DV?$stream_output_adapter@D@__crt_stdio_output@@V?$standard_base@DV?$stream_output_adapter@D@__crt_stdio_output@@@2@@__crt_stdio_output@@AAE_N_N@Z 00431952 f i libucrt:output.obj
 0001:00030952       ??$type_case_integer@$07@?$output_processor@DV?$string_output_adapter@D@__crt_stdio_output@@V?$standard_base@DV?$string_output_adapter@D@__crt_stdio_output@@@2@@__crt_stdio_output@@AAE_N_N@Z 00431952 f i libucrt:output.obj
 0001:00030acf       ??$type_case_integer@$09@?$output_processor@DV?$stream_output_adapter@D@__crt_stdio_output@@V?$standard_base@DV?$stream_output_adapter@D@__crt_stdio_output@@@2@@__crt_stdio_output@@AAE_N_N@Z 00431acf f i libucrt:output.obj
 0001:00030acf       ??$type_case_integer@$09@?$output_processor@DV?$string_output_adapter@D@__crt_stdio_output@@V?$standard_base@DV?$string_output_adapter@D@__crt_stdio_output@@@2@@__crt_stdio_output@@AAE_N_N@Z 00431acf f i libucrt:output.obj
 0001:00030c4c       ??$type_case_integer@$0BA@@?$output_processor@DV?$stream_output_adapter@D@__crt_stdio_output@@V?$standard_base@DV?$stream_output_adapter@D@__crt_stdio_output@@@2@@__crt_stdio_output@@AAE_N_N@Z 00431c4c f i libucrt:output.obj
 0001:00030c4c       ??$type_case_integer@$0BA@@?$output_processor@DV?$string_output_adapter@D@__crt_stdio_output@@V?$standard_base@DV?$string_output_adapter@D@__crt_stdio_output@@@2@@__crt_stdio_output@@AAE_N_N@Z 00431c4c f i libucrt:output.obj
 0001:00030dc9       ??$type_case_integer_parse_into_buffer@I$07@?$output_processor@DV?$string_output_adapter@D@__crt_stdio_output@@V?$standard_base@DV?$string_output_adapter@D@__crt_stdio_output@@@2@@__crt_stdio_output@@AAEXI_N@Z 00431dc9 f i libucrt:output.obj
 0001:00030dc9       ??$type_case_integer_parse_into_buffer@I$07@?$output_processor@DV?$stream_output_adapter@D@__crt_stdio_output@@V?$standard_base@DV?$stream_output_adapter@D@__crt_stdio_output@@@2@@__crt_stdio_output@@AAEXI_N@Z 00431dc9 f i libucrt:output.obj
 0001:00030e33       ??$type_case_integer_parse_into_buffer@I$09@?$output_processor@DV?$string_output_adapter@D@__crt_stdio_output@@V?$standard_base@DV?$string_output_adapter@D@__crt_stdio_output@@@2@@__crt_stdio_output@@AAEXI_N@Z 00431e33 f i libucrt:output.obj
 0001:00030e33       ??$type_case_integer_parse_into_buffer@I$09@?$output_processor@DV?$stream_output_adapter@D@__crt_stdio_output@@V?$standard_base@DV?$stream_output_adapter@D@__crt_stdio_output@@@2@@__crt_stdio_output@@AAEXI_N@Z 00431e33 f i libucrt:output.obj
 0001:00030ead       ??$type_case_integer_parse_into_buffer@I$0BA@@?$output_processor@DV?$stream_output_adapter@D@__crt_stdio_output@@V?$standard_base@DV?$stream_output_adapter@D@__crt_stdio_output@@@2@@__crt_stdio_output@@AAEXI_N@Z 00431ead f i libucrt:output.obj
 0001:00030ead       ??$type_case_integer_parse_into_buffer@I$0BA@@?$output_processor@DV?$string_output_adapter@D@__crt_stdio_output@@V?$standard_base@DV?$string_output_adapter@D@__crt_stdio_output@@@2@@__crt_stdio_output@@AAEXI_N@Z 00431ead f i libucrt:output.obj
 0001:00030f35       ??$type_case_integer_parse_into_buffer@_K$07@?$output_processor@DV?$stream_output_adapter@D@__crt_stdio_output@@V?$standard_base@DV?$stream_output_adapter@D@__crt_stdio_output@@@2@@__crt_stdio_output@@AAEX_K_N@Z 00431f35 f i libucrt:output.obj
 0001:00030f35       ??$type_case_integer_parse_into_buffer@_K$07@?$output_processor@DV?$string_output_adapter@D@__crt_stdio_output@@V?$standard_base@DV?$string_output_adapter@D@__crt_stdio_output@@@2@@__crt_stdio_output@@AAEX_K_N@Z 00431f35 f i libucrt:output.obj
 0001:00030fad       ??$type_case_integer_parse_into_buffer@_K$09@?$output_processor@DV?$stream_output_adapter@D@__crt_stdio_output@@V?$standard_base@DV?$stream_output_adapter@D@__crt_stdio_output@@@2@@__crt_stdio_output@@AAEX_K_N@Z 00431fad f i libucrt:output.obj
 0001:00030fad       ??$type_case_integer_parse_into_buffer@_K$09@?$output_processor@DV?$string_output_adapter@D@__crt_stdio_output@@V?$standard_base@DV?$string_output_adapter@D@__crt_stdio_output@@@2@@__crt_stdio_output@@AAEX_K_N@Z 00431fad f i libucrt:output.obj
 0001:00031049       ??$type_case_integer_parse_into_buffer@_K$0BA@@?$output_processor@DV?$stream_output_adapter@D@__crt_stdio_output@@V?$standard_base@DV?$stream_output_adapter@D@__crt_stdio_output@@@2@@__crt_stdio_output@@AAEX_K_N@Z 00432049 f i libucrt:output.obj
 0001:00031049       ??$type_case_integer_parse_into_buffer@_K$0BA@@?$output_processor@DV?$string_output_adapter@D@__crt_stdio_output@@V?$standard_base@DV?$string_output_adapter@D@__crt_stdio_output@@@2@@__crt_stdio_output@@AAEX_K_N@Z 00432049 f i libucrt:output.obj
 0001:000310db       ??0?$output_adapter_data@DV?$stream_output_adapter@D@__crt_stdio_output@@@__crt_stdio_output@@IAE@ABV?$stream_output_adapter@D@1@_KQBDAAV__crt_cached_ptd_host@@QAD@Z 004320db f i libucrt:output.obj
 0001:000310db       ??0?$output_adapter_data@DV?$string_output_adapter@D@__crt_stdio_output@@@__crt_stdio_output@@IAE@ABV?$string_output_adapter@D@1@_KQBDAAV__crt_cached_ptd_host@@QAD@Z 004320db f i libucrt:output.obj
 0001:00031150       ??0__crt_cached_ptd_host@@QAE@QAU__crt_locale_pointers@@@Z 00432150 f i libucrt:output.obj
 0001:000311b0       ??1__crt_cached_ptd_host@@QAE@XZ 004321b0 f i libucrt:output.obj
 0001:000311ec       ??1formatting_buffer@__crt_stdio_output@@QAE@XZ 004321ec f i libucrt:output.obj
 0001:00031206       ??4?$__crt_unique_heap_ptr@DU__crt_internal_free_policy@@@@QAEAAV0@$$QAV0@@Z 00432206 f i libucrt:output.obj
 0001:000312c6       ?crop_zeroes@__crt_stdio_output@@YAXPADQAU__crt_locale_pointers@@@Z 004322c6 f i libucrt:output.obj
 0001:00031326       ?find_next_state@?$output_processor@DV?$string_output_adapter@D@__crt_stdio_output@@V?$standard_base@DV?$string_output_adapter@D@__crt_stdio_output@@@2@@__crt_stdio_output@@ABE?AW4state@2@DW432@@Z 00432326 f i libucrt:output.obj
 0001:00031326       ?find_next_state@?$output_processor@DV?$stream_output_adapter@D@__crt_stdio_output@@V?$standard_base@DV?$stream_output_adapter@D@__crt_stdio_output@@@2@@__crt_stdio_output@@ABE?AW4state@2@DW432@@Z 00432326 f i libucrt:output.obj
 0001:00031361       ?force_decimal_point@__crt_stdio_output@@YAXPADQAU__crt_locale_pointers@@@Z 00432361 f i libucrt:output.obj
 0001:000313c0       ?force_synchronize_per_thread_data@__crt_cached_ptd_host@@AAEPAU__acrt_ptd@@XZ 004323c0 f i libucrt:output.obj
 0001:00031410       ?get_raw_ptd@__crt_cached_ptd_host@@QAEPAU__acrt_ptd@@XZ 00432410 f i libucrt:output.obj
 0001:0003146c       ?parse_int_from_format_string@?$output_processor@DV?$string_output_adapter@D@__crt_stdio_output@@V?$standard_base@DV?$string_output_adapter@D@__crt_stdio_output@@@2@@__crt_stdio_output@@AAE_NQAH@Z 0043246c f i libucrt:output.obj
 0001:0003146c       ?parse_int_from_format_string@?$output_processor@DV?$stream_output_adapter@D@__crt_stdio_output@@V?$standard_base@DV?$stream_output_adapter@D@__crt_stdio_output@@@2@@__crt_stdio_output@@AAE_NQAH@Z 0043246c f i libucrt:output.obj
 0001:000314e4       ?process@?$output_processor@DV?$stream_output_adapter@D@__crt_stdio_output@@V?$standard_base@DV?$stream_output_adapter@D@__crt_stdio_output@@@2@@__crt_stdio_output@@QAEHXZ 004324e4 f i libucrt:output.obj
 0001:00031790       ?process@?$output_processor@DV?$string_output_adapter@D@__crt_stdio_output@@V?$standard_base@DV?$string_output_adapter@D@__crt_stdio_output@@@2@@__crt_stdio_output@@QAEHXZ 00432790 f i libucrt:output.obj
 0001:00031a64       ?state_case_size@?$output_processor@DV?$stream_output_adapter@D@__crt_stdio_output@@V?$standard_base@DV?$stream_output_adapter@D@__crt_stdio_output@@@2@@__crt_stdio_output@@AAE_NXZ 00432a64 f i libucrt:output.obj
 0001:00031bc2       ?state_case_size@?$output_processor@DV?$string_output_adapter@D@__crt_stdio_output@@V?$standard_base@DV?$string_output_adapter@D@__crt_stdio_output@@@2@@__crt_stdio_output@@AAE_NXZ 00432bc2 f i libucrt:output.obj
 0001:00031d20       ?state_case_type@?$output_processor@DV?$stream_output_adapter@D@__crt_stdio_output@@V?$standard_base@DV?$stream_output_adapter@D@__crt_stdio_output@@@2@@__crt_stdio_output@@AAE_NXZ 00432d20 f i libucrt:output.obj
 0001:00032068       ?state_case_type@?$output_processor@DV?$string_output_adapter@D@__crt_stdio_output@@V?$standard_base@DV?$string_output_adapter@D@__crt_stdio_output@@@2@@__crt_stdio_output@@AAE_NXZ 00433068 f i libucrt:output.obj
 0001:000323f6       ?to_integer_size@__crt_stdio_output@@YAIW4length_modifier@1@@Z 004333f6 f i libucrt:output.obj
 0001:0003244a       ?type_case_Z@?$output_processor@DV?$string_output_adapter@D@__crt_stdio_output@@V?$standard_base@DV?$string_output_adapter@D@__crt_stdio_output@@@2@@__crt_stdio_output@@AAE_NXZ 0043344a f i libucrt:output.obj
 0001:0003244a       ?type_case_Z@?$output_processor@DV?$stream_output_adapter@D@__crt_stdio_output@@V?$standard_base@DV?$stream_output_adapter@D@__crt_stdio_output@@@2@@__crt_stdio_output@@AAE_NXZ 0043344a f i libucrt:output.obj
 0001:000324a4       ?type_case_a@?$output_processor@DV?$string_output_adapter@D@__crt_stdio_output@@V?$standard_base@DV?$string_output_adapter@D@__crt_stdio_output@@@2@@__crt_stdio_output@@AAE_NXZ 004334a4 f i libucrt:output.obj
 0001:000324a4       ?type_case_a@?$output_processor@DV?$stream_output_adapter@D@__crt_stdio_output@@V?$standard_base@DV?$stream_output_adapter@D@__crt_stdio_output@@@2@@__crt_stdio_output@@AAE_NXZ 004334a4 f i libucrt:output.obj
 0001:0003262e       ?type_case_c_tchar@?$output_processor@DV?$stream_output_adapter@D@__crt_stdio_output@@V?$standard_base@DV?$stream_output_adapter@D@__crt_stdio_output@@@2@@__crt_stdio_output@@AAE_ND@Z 0043362e f i libucrt:output.obj
 0001:0003262e       ?type_case_c_tchar@?$output_processor@DV?$string_output_adapter@D@__crt_stdio_output@@V?$standard_base@DV?$string_output_adapter@D@__crt_stdio_output@@@2@@__crt_stdio_output@@AAE_ND@Z 0043362e f i libucrt:output.obj
 0001:000326c3       ?type_case_n@?$output_processor@DV?$stream_output_adapter@D@__crt_stdio_output@@V?$standard_base@DV?$stream_output_adapter@D@__crt_stdio_output@@@2@@__crt_stdio_output@@AAE_NXZ 004336c3 f i libucrt:output.obj
 0001:000326c3       ?type_case_n@?$output_processor@DV?$string_output_adapter@D@__crt_stdio_output@@V?$standard_base@DV?$string_output_adapter@D@__crt_stdio_output@@@2@@__crt_stdio_output@@AAE_NXZ 004336c3 f i libucrt:output.obj
 0001:00032747       ?type_case_o@?$output_processor@DV?$string_output_adapter@D@__crt_stdio_output@@V?$standard_base@DV?$string_output_adapter@D@__crt_stdio_output@@@2@@__crt_stdio_output@@AAE_NXZ 00433747 f i libucrt:output.obj
 0001:00032747       ?type_case_o@?$output_processor@DV?$stream_output_adapter@D@__crt_stdio_output@@V?$standard_base@DV?$stream_output_adapter@D@__crt_stdio_output@@@2@@__crt_stdio_output@@AAE_NXZ 00433747 f i libucrt:output.obj
 0001:00032764       ?type_case_p@?$output_processor@DV?$string_output_adapter@D@__crt_stdio_output@@V?$standard_base@DV?$string_output_adapter@D@__crt_stdio_output@@@2@@__crt_stdio_output@@AAE_NXZ 00433764 f i libucrt:output.obj
 0001:00032764       ?type_case_p@?$output_processor@DV?$stream_output_adapter@D@__crt_stdio_output@@V?$standard_base@DV?$stream_output_adapter@D@__crt_stdio_output@@@2@@__crt_stdio_output@@AAE_NXZ 00433764 f i libucrt:output.obj
 0001:0003277a       ?type_case_s@?$output_processor@DV?$string_output_adapter@D@__crt_stdio_output@@V?$standard_base@DV?$string_output_adapter@D@__crt_stdio_output@@@2@@__crt_stdio_output@@AAE_NXZ 0043377a f i libucrt:output.obj
 0001:0003277a       ?type_case_s@?$output_processor@DV?$stream_output_adapter@D@__crt_stdio_output@@V?$standard_base@DV?$stream_output_adapter@D@__crt_stdio_output@@@2@@__crt_stdio_output@@AAE_NXZ 0043377a f i libucrt:output.obj
 0001:000327eb       ?unget@?$c_string_character_source@D@__crt_strtox@@QAEXD@Z 004337eb f i libucrt:output.obj
 0001:00032814       ?unget@?$c_string_character_source@_W@__crt_strtox@@QAEX_W@Z 00433814 f i libucrt:output.obj
 0001:00032850       ?update_locale_slow@__crt_cached_ptd_host@@AAEXXZ 00433850 f i libucrt:output.obj
 0001:000328ab       ?validate@?$c_string_character_source@D@__crt_strtox@@QBE_NXZ 004338ab f i libucrt:output.obj
 0001:000328ab       ?validate@?$c_string_character_source@_W@__crt_strtox@@QBE_NXZ 004338ab f i libucrt:output.obj
 0001:000328c6       ?validate@?$stream_output_adapter@D@__crt_stdio_output@@QBE_NAAV__crt_cached_ptd_host@@@Z 004338c6 f i libucrt:output.obj
 0001:000328fe       ?validate@?$string_output_adapter@D@__crt_stdio_output@@QBE_NAAV__crt_cached_ptd_host@@@Z 004338fe f i libucrt:output.obj
 0001:0003292f       ?validate_stream_is_ansi_if_required@?$__acrt_stdio_char_traits@D@@SA_NQAU_iobuf@@@Z 0043392f f i libucrt:output.obj
 0001:000329b6       ?write_character@?$output_adapter_common@DV?$stream_output_adapter@D@__crt_stdio_output@@@__crt_stdio_output@@QBEXDQAHAAV__crt_cached_ptd_host@@@Z 004339b6 f i libucrt:output.obj
 0001:000329d8       ?write_character_without_count_update@?$stream_output_adapter@D@__crt_stdio_output@@QBE_NDAAV__crt_cached_ptd_host@@@Z 004339d8 f i libucrt:output.obj
 0001:00032a12       ?write_string@?$stream_output_adapter@D@__crt_stdio_output@@QBEXQBDHQAHAAV__crt_cached_ptd_host@@@Z 00433a12 f i libucrt:output.obj
 0001:00032a3e       ?write_string@?$string_output_adapter@D@__crt_stdio_output@@QBEXQBDHQAHAAV__crt_cached_ptd_host@@@Z 00433a3e f i libucrt:output.obj
 0001:00032aa5       ?write_string_impl@?$output_adapter_common@DV?$stream_output_adapter@D@__crt_stdio_output@@@__crt_stdio_output@@IBEXQBDHQAHAAV__crt_cached_ptd_host@@@Z 00433aa5 f i libucrt:output.obj
 0001:00032b24       ___acrt_locale_get_ctype_array_value 00433b24 f i libucrt:output.obj
 0001:00032b46       ___stdio_common_vfprintf   00433b46 f   libucrt:output.obj
 0001:00032bea       ___stdio_common_vsprintf   00433bea f   libucrt:output.obj
 0001:00032c2b       ??0_LocaleUpdate@@QAE@QAU__crt_locale_pointers@@@Z 00433c2b f i libucrt:stricmp.obj
 0001:00032cad       ___ascii_stricmp           00433cad f   libucrt:stricmp.obj
 0001:00032ce6       __stricmp                  00433ce6 f   libucrt:stricmp.obj
 0001:00032d2f       __stricmp_l                00433d2f f   libucrt:stricmp.obj
 0001:00032dc0       _strncpy                   00433dc0 f   libucrt:strncpy.obj
 0001:00032ee4       __time64                   00433ee4 f   libucrt:time.obj
 0001:00032f50       _isalnum                   00433f50 f   libucrt:_ctype.obj
 0001:00032fe0       _isalpha                   00433fe0 f   libucrt:_ctype.obj
 0001:00033070       _isdigit                   00434070 f   libucrt:_ctype.obj
 0001:00033100       _islower                   00434100 f   libucrt:_ctype.obj
 0001:00033190       _isprint                   00434190 f   libucrt:_ctype.obj
 0001:00033220       _ispunct                   00434220 f   libucrt:_ctype.obj
 0001:000332b0       _isspace                   004342b0 f   libucrt:_ctype.obj
 0001:00033340       _isupper                   00434340 f   libucrt:_ctype.obj
 0001:000333c4       ??$is_overflow_condition@_K@__crt_strtox@@YA_NI_K@Z 004343c4 f i libucrt:strtox.obj
 0001:00033405       ??$parse_integer@KV?$c_string_character_source@D@__crt_strtox@@$00@__crt_strtox@@YAKAAV__crt_cached_ptd_host@@V?$c_string_character_source@D@0@H_N@Z 00434405 f i libucrt:strtox.obj
 0001:0003364c       ??$parse_integer@KV?$c_string_character_source@_W@__crt_strtox@@$00@__crt_strtox@@YAKAAV__crt_cached_ptd_host@@V?$c_string_character_source@_W@0@H_N@Z 0043464c f i libucrt:strtox.obj
 0001:00033c56       ??$parse_integer@_KV?$c_string_character_source@D@__crt_strtox@@$00@__crt_strtox@@YA_KAAV__crt_cached_ptd_host@@V?$c_string_character_source@D@0@H_N@Z 00434c56 f i libucrt:strtox.obj
 0001:00033f1e       __ischartype_l             00434f1e f i libucrt:strtox.obj
 0001:00033f75       _strtol                    00434f75 f   libucrt:strtox.obj
 0001:00033fbb       _strtoul                   00434fbb f   libucrt:strtox.obj
 0001:00034001       _strtoull                  00435001 f   libucrt:strtox.obj
 0001:0003404d       _wcstol                    0043504d f   libucrt:strtox.obj
 0001:000340a0       _strncmp                   004350a0 f   libucrt:strncmp.obj
 0001:00034118       ??$assemble_floating_point_snan@N@__crt_strtox@@YAX_NAAN@Z 00435118 f i libucrt:atof.obj
 0001:00034139       ??$assemble_floating_point_value_t@M@__crt_strtox@@YA?AW4SLD_STATUS@@_NH_KAAM@Z 00435139 f i libucrt:atof.obj
 0001:00034169       ??$assemble_floating_point_value_t@N@__crt_strtox@@YA?AW4SLD_STATUS@@_NH_KAAN@Z 00435169 f i libucrt:atof.obj
 0001:0003420f       ??$convert_decimal_string_to_floating_type@M@__crt_strtox@@YA?AW4SLD_STATUS@@ABUfloating_point_string@0@AAM@Z 0043520f f i libucrt:atof.obj
 0001:00034230       ??$convert_decimal_string_to_floating_type@N@__crt_strtox@@YA?AW4SLD_STATUS@@ABUfloating_point_string@0@AAN@Z 00435230 f i libucrt:atof.obj
 0001:00034251       ??$convert_hexadecimal_string_to_floating_type@M@__crt_strtox@@YA?AW4SLD_STATUS@@ABUfloating_point_string@0@AAM@Z 00435251 f i libucrt:atof.obj
 0001:00034272       ??$convert_hexadecimal_string_to_floating_type@N@__crt_strtox@@YA?AW4SLD_STATUS@@ABUfloating_point_string@0@AAN@Z 00435272 f i libucrt:atof.obj
 0001:00034293       ??$parse_floating_point@V?$c_string_character_source@D@__crt_strtox@@N@__crt_strtox@@YA?AW4SLD_STATUS@@QAU__crt_locale_pointers@@V?$c_string_character_source@D@0@QAN@Z 00435293 f i libucrt:atof.obj
 0001:00034313       ??$parse_floating_point_from_source@V?$c_string_character_source@D@__crt_strtox@@@__crt_strtox@@YA?AW4floating_point_parse_result@0@QAU__crt_locale_pointers@@AAV?$c_string_character_source@D@0@AAUfloating_point_string@0@@Z 00435313 f i libucrt:atof.obj
 0001:0003470b       ??$parse_floating_point_possible_infinity@DV?$c_string_character_source@D@__crt_strtox@@PBD@__crt_strtox@@YA?AW4floating_point_parse_result@0@AADAAV?$c_string_character_source@D@0@PBD@Z 0043570b f i libucrt:atof.obj
 0001:000347be       ??$parse_floating_point_possible_nan@DV?$c_string_character_source@D@__crt_strtox@@PBD@__crt_strtox@@YA?AW4floating_point_parse_result@0@AADAAV?$c_string_character_source@D@0@PBD@Z 004357be f i libucrt:atof.obj
 0001:000348c2       ??$parse_floating_point_possible_nan_is_ind@DV?$c_string_character_source@D@__crt_strtox@@@__crt_strtox@@YA_NAADAAV?$c_string_character_source@D@0@@Z 004358c2 f i libucrt:atof.obj
 0001:000348fe       ??$parse_floating_point_possible_nan_is_snan@DV?$c_string_character_source@D@__crt_strtox@@@__crt_strtox@@YA_NAADAAV?$c_string_character_source@D@0@@Z 004358fe f i libucrt:atof.obj
 0001:0003493a       ??$parse_floating_point_write_result@M@__crt_strtox@@YA?AW4SLD_STATUS@@W4floating_point_parse_result@0@ABUfloating_point_string@0@QAM@Z 0043593a f i libucrt:atof.obj
 0001:00034aa6       ??$parse_floating_point_write_result@N@__crt_strtox@@YA?AW4SLD_STATUS@@W4floating_point_parse_result@0@ABUfloating_point_string@0@QAN@Z 00435aa6 f i libucrt:atof.obj
 0001:00034bca       ??R<lambda_e51f7abad2595a5950d3223319845217>@@QBE_NXZ 00435bca f i libucrt:atof.obj
 0001:00034bca       ??R<lambda_32aa245da1b5b882fa96db788295c8b2>@@QBE_NXZ 00435bca f i libucrt:atof.obj
 0001:00034bca       ??R<lambda_690cf26ff5d754c94c32cf642e9f01bc>@@QBE_NXZ 00435bca f i libucrt:atof.obj
 0001:00034bf0       ?as_double@floating_point_value@__crt_strtox@@QBEAANXZ 00435bf0 f i libucrt:atof.obj
 0001:00034c15       ?as_float@floating_point_value@__crt_strtox@@QBEAAMXZ 00435c15 f i libucrt:atof.obj
 0001:00034c3a       ?assemble_floating_point_infinity@__crt_strtox@@YAX_NABVfloating_point_value@1@@Z 00435c3a f i libucrt:atof.obj
 0001:00034c7a       ?assemble_floating_point_value@__crt_strtox@@YA?AW4SLD_STATUS@@_KH_N1ABVfloating_point_value@1@@Z 00435c7a f i libucrt:atof.obj
 0001:00034fcd       ?assemble_floating_point_value_from_big_integer@__crt_strtox@@YA?AW4SLD_STATUS@@ABUbig_integer@1@I_N1ABVfloating_point_value@1@@Z 00435fcd f i libucrt:atof.obj
 0001:0003515f       ?assemble_floating_point_zero@__crt_strtox@@YAX_NABVfloating_point_value@1@@Z 0043615f f i libucrt:atof.obj
 0001:00035194       ?convert_decimal_string_to_floating_type_common@__crt_strtox@@YA?AW4SLD_STATUS@@ABUfloating_point_string@1@ABVfloating_point_value@1@@Z 00436194 f i libucrt:atof.obj
 0001:00036eb3       ?convert_hexadecimal_string_to_floating_type_common@__crt_strtox@@YA?AW4SLD_STATUS@@ABUfloating_point_string@1@ABVfloating_point_value@1@@Z 00437eb3 f i libucrt:atof.obj
 0001:00036f59       ?denormal_mantissa_mask@floating_point_value@__crt_strtox@@QBE_KXZ 00437f59 f i libucrt:atof.obj
 0001:00036f70       ?divide@__crt_strtox@@YA_KAAUbig_integer@1@ABU21@@Z 00437f70 f i libucrt:atof.obj
 0001:000373f8       ?normal_mantissa_mask@floating_point_value@__crt_strtox@@QBE_KXZ 004383f8 f i libucrt:atof.obj
 0001:0003740f       _atof                      0043840f f   libucrt:atof.obj
 0001:000374b0       _qsort                     004384b0 f   libucrt:qsort.obj
 0001:000379a0       _strcspn                   004389a0 f   libucrt:strcspn.obj
 0001:000379e6       __strnicmp                 004389e6 f   libucrt:strnicmp.obj
 0001:00037a53       __strnicmp_l               00438a53 f   libucrt:strnicmp.obj
 0001:00037b1e       __tolower_l                00438b1e f   libucrt:tolower_toupper.obj
 0001:00037c1c       __toupper_l                00438c1c f   libucrt:tolower_toupper.obj
 0001:00037d1a       _tolower                   00438d1a f   libucrt:tolower_toupper.obj
 0001:00037d4a       _toupper                   00438d4a f   libucrt:tolower_toupper.obj
 0001:00037d7a       __wtol                     00438d7a f   libucrt:atox.obj
 0001:00037db9       _atoi                      00438db9 f   libucrt:atox.obj
 0001:00037e45       ??$__crt_fast_encode_pointer@P6AHXZ@@YAP6AHXZQ6AHXZ@Z 00438e45 f i libucrt:onexit.obj
 0001:00037e45       ??$__crt_fast_encode_pointer@P6AXH@Z@@YAP6AXH@ZQ6AXH@Z@Z 00438e45 f i libucrt:signal.obj
 0001:00037e45       ??$__crt_fast_encode_pointer@PAX@@YAPAXQAX@Z 00438e45 f i libucrt:initialization.obj
 0001:00037e45       ??$__crt_fast_encode_pointer@PAP6AXXZ@@YAPAP6AXXZQAP6AXXZ@Z 00438e45 f i libucrt:onexit.obj
 0001:00037e45       ??$__crt_fast_encode_pointer@P6GXPAXK0@Z@@YAP6GXPAXK0@ZQ6GX0K0@Z@Z 00438e45 f i libucrt:exit.obj
 0001:00037e45       ??$__crt_fast_encode_pointer@P6GHPA_WKJ@Z@@YAP6GHPA_WKJ@ZQ6GH0KJ@Z@Z 00438e45 f i libucrt:winapi_thunks.obj
 0001:00037e45       ??$__crt_fast_encode_pointer@P6AHPAU_exception@@@Z@@YAP6AHPAU_exception@@@ZQ6AH0@Z@Z 00438e45 f i libucrt:matherr.obj
 0001:000380bb       ___acrt_initialize_thread_local_exit_callback 004390bb f   libucrt:exit.obj
 0001:000380ca       __c_exit                   004390ca f   libucrt:exit.obj
 0001:000380d9       __cexit                    004390d9 f   libucrt:exit.obj
 0001:000380e8       __exit                     004390e8 f   libucrt:exit.obj
 0001:000380fe       __register_thread_local_exe_atexit_callback 004390fe f   libucrt:exit.obj
 0001:00038124       _exit                      00439124 f   libucrt:exit.obj
 0001:000381f1       _fopen                     004391f1 f   libucrt:fopen.obj
 0001:000382af       __fwrite_internal          004392af f   libucrt:fwrite.obj
 0001:00038326       __fwrite_nolock_internal   00439326 f   libucrt:fwrite.obj
 0001:000384d0       _fwrite                    004394d0 f   libucrt:fwrite.obj
 0001:0003862f       _fclose                    0043962f f   libucrt:fclose.obj
 0001:00038660       _strspn                    00439660 f   libucrt:strspn.obj
 0001:0003875a       ??$make_input_adapter_character_source@V?$string_input_adapter@D@__crt_stdio_input@@@__crt_strtox@@YA?AV?$input_adapter_character_source@V?$string_input_adapter@D@__crt_stdio_input@@@0@QAV?$string_input_adapter@D@__crt_stdio_input@@_KQA_N@Z 0043975a f i libucrt:input.obj
 0001:00038778       ??$parse_floating_point@V?$input_adapter_character_source@V?$string_input_adapter@D@__crt_stdio_input@@@__crt_strtox@@M@__crt_strtox@@YA?AW4SLD_STATUS@@QAU__crt_locale_pointers@@V?$input_adapter_character_source@V?$string_input_adapter@D@__crt_stdio_input@@@0@QAM@Z 00439778 f i libucrt:input.obj
 0001:00038802       ??$parse_floating_point@V?$input_adapter_character_source@V?$string_input_adapter@D@__crt_stdio_input@@@__crt_strtox@@N@__crt_strtox@@YA?AW4SLD_STATUS@@QAU__crt_locale_pointers@@V?$input_adapter_character_source@V?$string_input_adapter@D@__crt_stdio_input@@@0@QAN@Z 00439802 f i libucrt:input.obj
 0001:0003888c       ??$parse_floating_point_from_source@V?$input_adapter_character_source@V?$string_input_adapter@D@__crt_stdio_input@@@__crt_strtox@@@__crt_strtox@@YA?AW4floating_point_parse_result@0@QAU__crt_locale_pointers@@AAV?$input_adapter_character_source@V?$string_input_adapter@D@__crt_stdio_input@@@0@AAUfloating_point_string@0@@Z 0043988c f i libucrt:input.obj
 0001:00038cd7       ??$parse_floating_point_possible_infinity@DV?$input_adapter_character_source@V?$string_input_adapter@D@__crt_stdio_input@@@__crt_strtox@@_K@__crt_strtox@@YA?AW4floating_point_parse_result@0@AADAAV?$input_adapter_character_source@V?$string_input_adapter@D@__crt_stdio_input@@@0@_K@Z 00439cd7 f i libucrt:input.obj
 0001:00038d96       ??$parse_floating_point_possible_nan@DV?$input_adapter_character_source@V?$string_input_adapter@D@__crt_stdio_input@@@__crt_strtox@@_K@__crt_strtox@@YA?AW4floating_point_parse_result@0@AADAAV?$input_adapter_character_source@V?$string_input_adapter@D@__crt_stdio_input@@@0@_K@Z 00439d96 f i libucrt:input.obj
 0001:00038e9e       ??$parse_floating_point_possible_nan_is_ind@DV?$input_adapter_character_source@V?$string_input_adapter@D@__crt_stdio_input@@@__crt_strtox@@@__crt_strtox@@YA_NAADAAV?$input_adapter_character_source@V?$string_input_adapter@D@__crt_stdio_input@@@0@@Z 00439e9e f i libucrt:input.obj
 0001:00038ed8       ??$parse_floating_point_possible_nan_is_snan@DV?$input_adapter_character_source@V?$string_input_adapter@D@__crt_stdio_input@@@__crt_strtox@@@__crt_strtox@@YA_NAADAAV?$input_adapter_character_source@V?$string_input_adapter@D@__crt_stdio_input@@@0@@Z 00439ed8 f i libucrt:input.obj
 0001:00038f12       ??$parse_integer@_KV?$input_adapter_character_source@V?$string_input_adapter@D@__crt_stdio_input@@@__crt_strtox@@$00@__crt_strtox@@YA_KAAV__crt_cached_ptd_host@@V?$input_adapter_character_source@V?$string_input_adapter@D@__crt_stdio_input@@@0@H_N@Z 00439f12 f i libucrt:input.obj
 0001:00039216       ??$parse_integer@_KV?$input_adapter_character_source@V?$string_input_adapter@D@__crt_stdio_input@@@__crt_strtox@@@__crt_strtox@@YA_KQAU__crt_locale_pointers@@V?$input_adapter_character_source@V?$string_input_adapter@D@__crt_stdio_input@@@0@H_N@Z 0043a216 f i libucrt:input.obj
 0001:00039272       ??$process_floating_point_specifier_t@M@?$input_processor@DV?$string_input_adapter@D@__crt_stdio_input@@@__crt_stdio_input@@AAE_NXZ 0043a272 f i libucrt:input.obj
 0001:000392db       ??$process_floating_point_specifier_t@N@?$input_processor@DV?$string_input_adapter@D@__crt_stdio_input@@@__crt_stdio_input@@AAE_NXZ 0043a2db f i libucrt:input.obj
 0001:00039344       ??$process_string_specifier_tchar@D@?$input_processor@DV?$string_input_adapter@D@__crt_stdio_input@@@__crt_stdio_input@@AAE_NW4conversion_mode@1@D@Z 0043a344 f i libucrt:input.obj
 0001:000394a6       ??$process_string_specifier_tchar@_W@?$input_processor@DV?$string_input_adapter@D@__crt_stdio_input@@@__crt_stdio_input@@AAE_NW4conversion_mode@1@_W@Z 0043a4a6 f i libucrt:input.obj
 0001:00039615       ??$skip_whitespace@Vstring_input_adapter@__crt_stdio_input@@D@__crt_stdio_input@@YAHAAV?$string_input_adapter@D@0@QAU__crt_locale_pointers@@@Z 0043a615 f i libucrt:input.obj
 0001:00039644       ??$write_floating_point@M@?$input_processor@DV?$string_input_adapter@D@__crt_stdio_input@@@__crt_stdio_input@@AAE_NABM@Z 0043a644 f i libucrt:input.obj
 0001:00039678       ??$write_floating_point@N@?$input_processor@DV?$string_input_adapter@D@__crt_stdio_input@@@__crt_stdio_input@@AAE_NABN@Z 0043a678 f i libucrt:input.obj
 0001:000396b2       ??0?$format_string_parser@D@__crt_stdio_input@@QAE@_KQBE@Z 0043a6b2 f i libucrt:input.obj
 0001:000396fc       ??0?$input_adapter_character_source@V?$string_input_adapter@D@__crt_stdio_input@@@__crt_strtox@@QAE@$$QAV01@@Z 0043a6fc f i libucrt:input.obj
 0001:00039739       ??0?$input_adapter_character_source@V?$string_input_adapter@D@__crt_stdio_input@@@__crt_strtox@@QAE@QAV?$string_input_adapter@D@__crt_stdio_input@@_KQA_N@Z 0043a739 f i libucrt:input.obj
 0001:0003976a       ??0?$input_processor@DV?$string_input_adapter@D@__crt_stdio_input@@@__crt_stdio_input@@QAE@ABV?$string_input_adapter@D@1@_KQBDQAU__crt_locale_pointers@@QAD@Z 0043a76a f i libucrt:input.obj
 0001:000397ae       ??R<lambda_644f8ab42ed3fd1d660977a2364b3a7d>@@QBE_NXZ 0043a7ae f i libucrt:input.obj
 0001:000397ae       ??R<lambda_f765c90ab33e8386abf09c0f079d37e9>@@QBE_NXZ 0043a7ae f i libucrt:input.obj
 0001:000397ae       ??R<lambda_f1fa4c266c18b246f3ed9c36247dab4f>@@QBE_NXZ 0043a7ae f i libucrt:input.obj
 0001:000397d8       ?advance@?$format_string_parser@D@__crt_stdio_input@@QAE_NXZ 0043a7d8 f i libucrt:input.obj
 0001:000398f0       ?get@?$input_adapter_character_source@V?$string_input_adapter@D@__crt_stdio_input@@@__crt_strtox@@QAEDXZ 0043a8f0 f i libucrt:input.obj
 0001:00039927       ?get@?$string_input_adapter@D@__crt_stdio_input@@QAEHXZ 0043a927 f i libucrt:input.obj
 0001:0003993d       ?is_character_allowed_in_string@?$input_processor@DV?$string_input_adapter@D@__crt_stdio_input@@@__crt_stdio_input@@ABE_NW4conversion_mode@2@H@Z 0043a93d f i libucrt:input.obj
 0001:0003998d       ?length@?$format_string_parser@D@__crt_stdio_input@@QBEIXZ 0043a98d f i libucrt:input.obj
 0001:000399ce       ?process@?$input_processor@DV?$string_input_adapter@D@__crt_stdio_input@@@__crt_stdio_input@@QAEHXZ 0043a9ce f i libucrt:input.obj
 0001:00039a52       ?process_character_count_specifier@?$input_processor@DV?$string_input_adapter@D@__crt_stdio_input@@@__crt_stdio_input@@AAE_NXZ 0043aa52 f i libucrt:input.obj
 0001:00039a6a       ?process_conversion_specifier@?$input_processor@DV?$string_input_adapter@D@__crt_stdio_input@@@__crt_stdio_input@@AAE_NXZ 0043aa6a f i libucrt:input.obj
 0001:00039ade       ?process_floating_point_specifier@?$input_processor@DV?$string_input_adapter@D@__crt_stdio_input@@@__crt_stdio_input@@AAE_NXZ 0043aade f i libucrt:input.obj
 0001:00039b0e       ?process_integer_specifier@?$input_processor@DV?$string_input_adapter@D@__crt_stdio_input@@@__crt_stdio_input@@AAE_NI_N@Z 0043ab0e f i libucrt:input.obj
 0001:00039b73       ?process_literal_character@?$input_processor@DV?$string_input_adapter@D@__crt_stdio_input@@@__crt_stdio_input@@AAE_NXZ 0043ab73 f i libucrt:input.obj
 0001:00039ba9       ?process_literal_character_tchar@?$input_processor@DV?$string_input_adapter@D@__crt_stdio_input@@@__crt_stdio_input@@AAE_ND@Z 0043aba9 f i libucrt:input.obj
 0001:00039bf7       ?process_state@?$input_processor@DV?$string_input_adapter@D@__crt_stdio_input@@@__crt_stdio_input@@AAE_NXZ 0043abf7 f i libucrt:input.obj
 0001:00039c39       ?process_string_specifier@?$input_processor@DV?$string_input_adapter@D@__crt_stdio_input@@@__crt_stdio_input@@AAE_NW4conversion_mode@2@@Z 0043ac39 f i libucrt:input.obj
 0001:00039c81       ?process_whitespace@?$input_processor@DV?$string_input_adapter@D@__crt_stdio_input@@@__crt_stdio_input@@AAE_NXZ 0043ac81 f i libucrt:input.obj
 0001:00039c9e       ?restore_state@?$input_adapter_character_source@V?$string_input_adapter@D@__crt_stdio_input@@@__crt_strtox@@QAE_N_K@Z 0043ac9e f i libucrt:input.obj
 0001:00039cc3       ?scan_conversion_specifier@?$format_string_parser@D@__crt_stdio_input@@AAE_NXZ 0043acc3 f i libucrt:input.obj
 0001:00039e2e       ?scan_optional_field_width@?$format_string_parser@D@__crt_stdio_input@@AAE_NXZ 0043ae2e f i libucrt:input.obj
 0001:00039ec2       ?scan_optional_length_modifier@?$format_string_parser@D@__crt_stdio_input@@AAEXXZ 0043aec2 f i libucrt:input.obj
 0001:00039fd5       ?scan_optional_literal_character_trail_bytes_tchar@?$format_string_parser@D@__crt_stdio_input@@AAE_ND@Z 0043afd5 f i libucrt:input.obj
 0001:0003a027       ?scan_optional_wide_modifier@?$format_string_parser@D@__crt_stdio_input@@AAEXXZ 0043b027 f i libucrt:input.obj
 0001:0003a045       ?scan_scanset_range@?$format_string_parser@D@__crt_stdio_input@@AAE_NXZ 0043b045 f i libucrt:input.obj
 0001:0003a186       ?set_wide_for_c_s_or_scanset@?$format_string_parser@D@__crt_stdio_input@@AAEXXZ 0043b186 f i libucrt:input.obj
 0001:0003a1a7       ?to_floating_point_length@__crt_stdio_input@@YAIW4length_modifier@1@@Z 0043b1a7 f i libucrt:input.obj
 0001:0003a1ca       ?to_integer_length@__crt_stdio_input@@YAIW4length_modifier@1@@Z 0043b1ca f i libucrt:input.obj
 0001:0003a21d       ?unget@?$input_adapter_character_source@V?$string_input_adapter@D@__crt_stdio_input@@@__crt_strtox@@QAEXD@Z 0043b21d f i libucrt:input.obj
 0001:0003a264       ?unget@?$string_input_adapter@D@__crt_stdio_input@@QAEXH@Z 0043b264 f i libucrt:input.obj
 0001:0003a283       ?validate@?$format_string_parser@D@__crt_stdio_input@@QBE_NXZ 0043b283 f i libucrt:input.obj
 0001:0003a29f       ?validate@?$input_adapter_character_source@V?$string_input_adapter@D@__crt_stdio_input@@@__crt_strtox@@QBE_NXZ 0043b29f f i libucrt:input.obj
 0001:0003a2c0       ?validate@?$string_input_adapter@D@__crt_stdio_input@@QAE_NXZ 0043b2c0 f i libucrt:input.obj
 0001:0003a2e2       ?write_character@?$input_processor@DV?$string_input_adapter@D@__crt_stdio_input@@@__crt_stdio_input@@AAE_NQA_WIAAPA_WAAID@Z 0043b2e2 f i libucrt:input.obj
 0001:0003a34f       ?write_integer@?$input_processor@DV?$string_input_adapter@D@__crt_stdio_input@@@__crt_stdio_input@@AAE_N_K@Z 0043b34f f i libucrt:input.obj
 0001:0003a3bd       ___stdio_common_vsscanf    0043b3bd f   libucrt:input.obj
 0001:0003a3e1       ??$__acrt_convert_wcs_mbs_cp@D_WV<lambda_62f6974d9771e494a5ea317cc32e971c>@@U__crt_win32_buffer_internal_dynamic_resizing@@@@YAHQBDAAV?$__crt_win32_buffer@_WU__crt_win32_buffer_internal_dynamic_resizing@@@@ABV<lambda_62f6974d9771e494a5ea317cc32e971c>@@I@Z 0043b3e1 f i libucrt:unlink.obj
 0001:0003a493       ??$__acrt_mbs_to_wcs_cp@U__crt_win32_buffer_internal_dynamic_resizing@@@@YAHQBDAAV?$__crt_win32_buffer@_WU__crt_win32_buffer_internal_dynamic_resizing@@@@I@Z 0043b493 f i libucrt:unlink.obj
 0001:0003a4b0       ?__acrt_get_utf8_acp_compatibility_codepage@@YAIXZ 0043b4b0 f i libucrt:unlink.obj
 0001:0003a4ef       ?_deallocate@?$__crt_win32_buffer@DU__crt_win32_buffer_internal_dynamic_resizing@@@@AAEXXZ 0043b4ef f i libucrt:argv_wildcards.obj
 0001:0003a4ef       ?_deallocate@?$__crt_win32_buffer@_WU__crt_win32_buffer_internal_dynamic_resizing@@@@AAEXXZ 0043b4ef f i libucrt:unlink.obj
 0001:0003a509       ?allocate@?$__crt_win32_buffer@_WU__crt_win32_buffer_internal_dynamic_resizing@@@@QAEHI@Z 0043b509 f i libucrt:unlink.obj
 0001:0003a548       ?allocate@__crt_win32_buffer_internal_dynamic_resizing@@SAHQAPAXIABV__crt_win32_buffer_empty_debug_info@@@Z 0043b548 f i libucrt:unlink.obj
 0001:0003a567       _remove                    0043b567 f   libucrt:unlink.obj
 0001:0003a5d1       _frexp                     0043b5d1 f   libucrt:frexp.obj
 0001:0003a6cb       ___acrt_initialize_stdio   0043b6cb f   libucrt:_file.obj
 0001:0003a793       ___acrt_iob_func           0043b793 f   libucrt:_file.obj
 0001:0003a7a3       ___acrt_uninitialize_stdio 0043b7a3 f   libucrt:_file.obj
 0001:0003a7ef       __lock_file                0043b7ef f   libucrt:_file.obj
 0001:0003a803       __unlock_file              0043b803 f   libucrt:_file.obj
 0001:0003a9c0       ___acrt_get_sigabrt_handler 0043b9c0 f   libucrt:signal.obj
 0001:0003a9e7       ___acrt_initialize_signal_handlers 0043b9e7 f   libucrt:signal.obj
 0001:0003aa05       _raise                     0043ba05 f   libucrt:signal.obj
 0001:0003abf8       _signal                    0043bbf8 f   libucrt:signal.obj
 0001:0003adb7       _bsearch                   0043bdb7 f   libucrt:bsearch.obj
 0001:0003afd6       __beginthreadex            0043bfd6 f   libucrt:thread.obj
 0001:0003b059       __endthreadex              0043c059 f   libucrt:thread.obj
 0001:0003b067       _malloc                    0043c067 f   libucrt:malloc.obj
 0001:0003b080       _modf                      0043c080 f   libucrt:modf_pentium4.obj
 0001:0003b0c0       __modf_pentium4            0043c0c0 f   libucrt:modf_pentium4.obj
 0001:0003b3a4       _puts                      0043c3a4 f   libucrt:puts.obj
 0001:0003b3d4       _free                      0043c3d4 f   libucrt:free.obj
 0001:0003b3ef       __get_printf_count_output  0043c3ef f   libucrt:printf_count_output.obj
 0001:0003b404       __set_printf_count_output  0043c404 f   libucrt:printf_count_output.obj
 0001:0003b683       _setlocale                 0043c683 f   libucrt:setlocale.obj
 0001:0003b6c0       _strpbrk                   0043c6c0 f   libucrt:strpbrk.obj
 0001:0003b700       _rename                    0043c700 f   libucrt:rename.obj
 0001:0003b7ae       _feof                      0043c7ae f   libucrt:feoferr.obj
 0001:0003bde8       __ftelli64_nolock_internal 0043cde8 f   libucrt:ftell.obj
 0001:0003bdf3       _ftell                     0043cdf3 f   libucrt:ftell.obj
 0001:0003be23       ?LongLongSub@@YAJ_J0PA_J@Z 0043ce23 f i libucrt:fseek.obj
 0001:0003c0fe       _fseek                     0043d0fe f   libucrt:fseek.obj
 0001:0003c375       ___acrt_stdio_flush_nolock 0043d375 f   libucrt:fflush.obj
 0001:0003c3de       __fflush_nolock            0043d3de f   libucrt:fflush.obj
 0001:0003c443       __flushall                 0043d443 f   libucrt:fflush.obj
 0001:0003c44c       _fflush                    0043d44c f   libucrt:fflush.obj
 0001:0003c4a1       __fread_nolock_s           0043d4a1 f   libucrt:fread.obj
 0001:0003c687       _fread                     0043d687 f   libucrt:fread.obj
 0001:0003c6a4       _fread_s                   0043d6a4 f   libucrt:fread.obj
 0001:0003c741       __fgetc_nolock             0043d741 f   libucrt:fgetc.obj
 0001:0003c77d       __getc_nolock              0043d77d f   libucrt:fgetc.obj
 0001:0003c788       _fgetc                     0043d788 f   libucrt:fgetc.obj
 0001:0003c9c1       __fputc_nolock_internal    0043d9c1 f   libucrt:fputc.obj
 0001:0003c9ee       _fputc                     0043d9ee f   libucrt:fputc.obj
 0001:0003cae5       _fgets                     0043dae5 f   libucrt:fgets.obj
 0001:0003ccaf       _fputs                     0043dcaf f   libucrt:fputs.obj
 0001:0003cf72       __localtime64              0043df72 f   libucrt:localtime.obj
 0001:0003cf99       ??$__crt_time_elapsed_leap_years@H@@YAHH@Z 0043df99 f i libucrt:gmtime.obj
 0001:0003cfd3       ??$__crt_time_is_leap_year@H@@YA_NH@Z 0043dfd3 f i libucrt:gmtime.obj
 0001:0003d218       ___getgmtimebuf            0043e218 f   libucrt:gmtime.obj
 0001:0003d256       __gmtime64                 0043e256 f   libucrt:gmtime.obj
 0001:0003d27d       __gmtime64_s               0043e27d f   libucrt:gmtime.obj
 0001:0003d288       ??$__acrt_convert_wcs_mbs_cp@_WDV<lambda_0fec1a7b3f42a53036604e18c2d5e07e>@@U__crt_win32_buffer_no_resizing@@@@YAHQB_WAAV?$__crt_win32_buffer@DU__crt_win32_buffer_no_resizing@@@@ABV<lambda_0fec1a7b3f42a53036604e18c2d5e07e>@@I@Z 0043e288 f i libucrt:strftime.obj
 0001:0003d34a       ??$__acrt_wcs_to_mbs_cp@U__crt_win32_buffer_no_resizing@@@@YAHQB_WAAV?$__crt_win32_buffer@DU__crt_win32_buffer_no_resizing@@@@I@Z 0043e34a f i libucrt:strftime.obj
 0001:0003d367       ??R<lambda_0fec1a7b3f42a53036604e18c2d5e07e>@@QBEHIQB_WQADI@Z 0043e367 f i libucrt:strftime.obj
 0001:0003d367       ??R<lambda_28bda7af82a03b66c1cb3803a755f95d>@@QBEHIQB_WQADI@Z 0043e367 f i libucrt:argv_wildcards.obj
 0001:0003d38b       ?allocate@?$__crt_win32_buffer@DU__crt_win32_buffer_no_resizing@@@@QAEHI@Z 0043e38b f i libucrt:strftime.obj
 0001:0003d3b2       ?set_to_nullptr@?$__crt_win32_buffer@DU__crt_win32_buffer_no_resizing@@@@QAEXXZ 0043e3b2 f i libucrt:strftime.obj
 0001:0003d3c6       __Strftime_l               0043e3c6 f   libucrt:strftime.obj
 0001:0003d4c1       _strftime                  0043e4c1 f   libucrt:strftime.obj
 0001:0003d594       __get_sys_err_msg          0043e594 f i libucrt:perror.obj
 0001:0003d5ec       _perror                    0043e5ec f   libucrt:perror.obj
 0001:0003d616       _abort                     0043e616 f   libucrt:abort.obj
 0001:0003d65a       __seh_filter_exe           0043e65a f   libucrt:exception_filter.obj
 0001:0003da51       ___acrt_allocate_buffer_for_argv 0043ea51 f   libucrt:argv_parsing.obj
 0001:0003daa0       __configure_narrow_argv    0043eaa0 f   libucrt:argv_parsing.obj
 0001:0003de6c       ___dcrt_get_or_create_wide_environment_nolock 0043ee6c f   libucrt:environment_initialization.obj
 0001:0003de71       ___dcrt_uninitialize_environments_nolock 0043ee71 f   libucrt:environment_initialization.obj
 0001:0003dec2       __initialize_narrow_environment 0043eec2 f   libucrt:environment_initialization.obj
 0001:0003e159       __crt_atexit               0043f159 f   libucrt:onexit.obj
 0001:0003e16f       __execute_onexit_table     0043f16f f   libucrt:onexit.obj
 0001:0003e1ad       __initialize_onexit_table  0043f1ad f   libucrt:onexit.obj
 0001:0003e1d6       __register_onexit_function 0043f1d6 f   libucrt:onexit.obj
 0001:0003e304       ___acrt_initialize         0043f304 f   libucrt:initialization.obj
 0001:0003e316       ___acrt_uninitialize       0043f316 f   libucrt:initialization.obj
 0001:0003e346       ___acrt_initialize_new_handler 0043f346 f   libucrt:new_handler.obj
 0001:0003e355       __callnewh                 0043f355 f   libucrt:new_handler.obj
 0001:0003e382       __query_new_handler        0043f382 f   libucrt:new_handler.obj
 0001:0003e3de       __query_app_type           0043f3de f   libucrt:report_runtime_error.obj
 0001:0003e3e4       __set_app_type             0043f3e4 f   libucrt:report_runtime_error.obj
 0001:0003e3f3       ___acrt_has_user_matherr   0043f3f3 f   libucrt:matherr.obj
 0001:0003e40b       ___acrt_initialize_user_matherr 0043f40b f   libucrt:matherr.obj
 0001:0003e41a       ___acrt_invoke_user_matherr 0043f41a f   libucrt:matherr.obj
 0001:0003e44c       ___setusermatherr          0043f44c f   libucrt:matherr.obj
 0001:0003e461       __get_narrow_winmain_command_line 0043f461 f   libucrt:argv_winmain.obj
 0001:0003e4b4       __initterm                 0043f4b4 f   libucrt:initterm.obj
 0001:0003e4df       __initterm_e               0043f4df f   libucrt:initterm.obj
 0001:0003e50d       __get_fmode                0043f50d f   libucrt:setmode.obj
 0001:0003e53a       __set_fmode                0043f53a f   libucrt:setmode.obj
 0001:0003e577       __setmode_nolock           0043f577 f   libucrt:setmode.obj
 0001:0003e746       ??0_expandlocale_locale_name_cache@@QAE@QA_WIQAU__crt_qualified_locale_data@@@Z 0043f746 f i libucrt:wsetlocale.obj
 0001:0003e790       ??1_expandlocale_locale_name_cache@@QAE@XZ 0043f790 f i libucrt:wsetlocale.obj
 0001:0003e928       ?commit_locale_name@_expandlocale_locale_name_cache@@QAEXQB_WI@Z 0043f928 f i libucrt:wsetlocale.obj
 0001:0003e96c       ?commit_locale_name_cache_already_updated@_expandlocale_locale_name_cache@@QAEXQB_WI@Z 0043f96c f i libucrt:wsetlocale.obj
 0001:0003e9a1       ___acrt_copy_locale_name   0043f9a1 f   libucrt:wsetlocale.obj
 0001:0003ea01       ___acrt_set_locale_changed 0043fa01 f   libucrt:wsetlocale.obj
 0001:0003ea0c       ___acrt_uninitialize_locale 0043fa0c f   libucrt:wsetlocale.obj
 0001:0003ea33       ___lc_lctowcs              0043fa33 f   libucrt:wsetlocale.obj
 0001:0003eaa3       ___lc_wcstolc              0043faa3 f   libucrt:wsetlocale.obj
 0001:0003ebf3       __configthreadlocale       0043fbf3 f   libucrt:wsetlocale.obj
 0001:0003f04a       __wcscats                  0044004a f   libucrt:wsetlocale.obj
 0001:0003f08b       __wsetlocale               0044008b f   libucrt:wsetlocale.obj
 0001:0003fd6c       __query_new_mode           00440d6c f   libucrt:new_mode.obj
 0001:0003fd73       __set_new_mode             00440d73 f   libucrt:new_mode.obj
 0001:0003fda2       ___p__commode              00440da2 f   libucrt:ncommode.obj
 0001:0003fda8       _terminate                 00440da8 f   libucrt:terminate.obj
 0001:0003fde4       __controlfp_s              00440de4 f   libucrt:contrlfp.obj
 0001:0003fe43       _strcpy_s                  00440e43 f   libucrt:strcpy_s.obj
 0001:0003fe9d       _calloc                    00440e9d f   libucrt:calloc.obj
 0001:0003fea8       _wcsncmp                   00440ea8 f   libucrt:wcsncmp.obj
 0001:0003fee2       ?check_synchronize_global_state_index@__crt_cached_ptd_host@@AAEIXZ 00440ee2 f i libucrt:invalid_parameter.obj
 0001:0003ff0b       ___acrt_call_reportfault   00440f0b f   libucrt:invalid_parameter.obj
 0001:00040044       ___acrt_initialize_invalid_parameter_handler 00441044 f   libucrt:invalid_parameter.obj
 0001:00040053       __invalid_parameter        00441053 f   libucrt:invalid_parameter.obj
 0001:0004008a       __invalid_parameter_internal 0044108a f   libucrt:invalid_parameter.obj
 0001:00040107       __invalid_parameter_noinfo 00441107 f   libucrt:invalid_parameter.obj
 0001:00040117       __invoke_watson            00441117 f   libucrt:invalid_parameter.obj
 0001:0004014b       ___acrt_errno_from_os_error 0044114b f   libucrt:errno.obj
 0001:0004018e       ___acrt_errno_map_os_error 0044118e f   libucrt:errno.obj
 0001:000401b1       ___acrt_errno_map_os_error_ptd 004411b1 f   libucrt:errno.obj
 0001:000401d5       ___doserrno                004411d5 f   libucrt:errno.obj
 0001:000401e8       __errno                    004411e8 f   libucrt:errno.obj
 0001:000401fb       __free_base                004411fb f   libucrt:free_base.obj
 0001:00040235       __malloc_base              00441235 f   libucrt:malloc_base.obj
 0001:00040283       _strnlen                   00441283 f   libucrt:strnlen.obj
 0001:000403a5       _wcsnlen                   004413a5 f   libucrt:strnlen.obj
 0001:00040555       ___acrt_update_locale_info 00441555 f   libucrt:locale_update.obj
 0001:00040582       ___acrt_update_locale_info_explicit 00441582 f   libucrt:locale_update.obj
 0001:000405b3       ___acrt_update_multibyte_info 004415b3 f   libucrt:locale_update.obj
 0001:000405e0       ___acrt_update_multibyte_info_explicit 004415e0 f   libucrt:locale_update.obj
 0001:00040611       ?__acrt_fp_classify@@YA?AW4__acrt_fp_class@@ABN@Z 00441611 f i libucrt:cvt.obj
 0001:00040fda       ___acrt_fp_format          00441fda f   libucrt:cvt.obj
 0001:0004115b       __wctomb_internal          0044215b f   libucrt:wctomb.obj
 0001:000412c5       __mbtowc_internal          004422c5 f   libucrt:mbtowc.obj
 0001:000413f8       __mbtowc_l                 004423f8 f   libucrt:mbtowc.obj
 0001:00041430       __fileno                   00442430 f   libucrt:fileno.obj
 0001:00041457       ___acrt_should_use_temporary_buffer 00442457 f   libucrt:_sftbuf.obj
 0001:00041492       ___acrt_stdio_begin_temporary_buffering_nolock 00442492 f   libucrt:_sftbuf.obj
 0001:0004153e       ___acrt_stdio_end_temporary_buffering_nolock 0044253e f   libucrt:_sftbuf.obj
 0001:000418ba       ___acrt_getptd             004428ba f   libucrt:per_thread_data.obj
 0001:00041975       ___acrt_getptd_head        00442975 f   libucrt:per_thread_data.obj
 0001:00041a0b       ___acrt_getptd_noexit      00442a0b f   libucrt:per_thread_data.obj
 0001:00041abc       ___acrt_getptd_noexit_explicit 00442abc f   libucrt:per_thread_data.obj
 0001:00041b5f       ___acrt_initialize_ptd     00442b5f f   libucrt:per_thread_data.obj
 0001:00041b8b       ___acrt_uninitialize_ptd   00442b8b f   libucrt:per_thread_data.obj
 0001:00041d0b       ___acrt_initialize_lowio   00442d0b f   libucrt:ioinit.obj
 0001:00041d6b       ___acrt_uninitialize_lowio 00442d6b f   libucrt:ioinit.obj
 0001:000420bb       ___acrt_AppPolicyGetProcessTerminationMethodInternal@4 004430bb f   libucrt:winapi_thunks.obj
 0001:000420fb       ___acrt_AppPolicyGetThreadInitializationTypeInternal@4 004430fb f   libucrt:winapi_thunks.obj
 0001:0004213b       ___acrt_AreFileApisANSI@0  0044313b f   libucrt:winapi_thunks.obj
 0001:0004215a       ___acrt_CompareStringEx@36 0044315a f   libucrt:winapi_thunks.obj
 0001:000421b7       ___acrt_EnumSystemLocalesEx@16 004431b7 f   libucrt:winapi_thunks.obj
 0001:0004220b       ___acrt_FlsAlloc@4         0044320b f   libucrt:winapi_thunks.obj
 0001:0004224a       ___acrt_FlsFree@4          0044324a f   libucrt:winapi_thunks.obj
 0001:00042289       ___acrt_FlsGetValue@4      00443289 f   libucrt:winapi_thunks.obj
 0001:000422c8       ___acrt_FlsSetValue@8      004432c8 f   libucrt:winapi_thunks.obj
 0001:0004230a       ___acrt_GetDateFormatEx@28 0044330a f   libucrt:winapi_thunks.obj
 0001:00042361       ___acrt_GetLocaleInfoEx@16 00443361 f   libucrt:winapi_thunks.obj
 0001:000423a0       ___acrt_GetTimeFormatEx@24 004433a0 f   libucrt:winapi_thunks.obj
 0001:000423e5       ___acrt_GetUserDefaultLocaleName@8 004433e5 f   libucrt:winapi_thunks.obj
 0001:00042421       ___acrt_InitializeCriticalSectionEx@12 00443421 f   libucrt:winapi_thunks.obj
 0001:0004246c       ___acrt_IsValidLocaleName@4 0044346c f   libucrt:winapi_thunks.obj
 0001:000424a4       ___acrt_LCIDToLocaleName@16 004434a4 f   libucrt:winapi_thunks.obj
 0001:000424e3       ___acrt_LCMapStringEx@36   004434e3 f   libucrt:winapi_thunks.obj
 0001:00042540       ___acrt_LocaleNameToLCID@8 00443540 f   libucrt:winapi_thunks.obj
 0001:00042571       ___acrt_RoInitialize@4     00443571 f   libucrt:winapi_thunks.obj
 0001:000425ac       ___acrt_RoUninitialize@0   004435ac f   libucrt:winapi_thunks.obj
 0001:000425da       ___acrt_can_use_vista_locale_apis 004435da f   libucrt:winapi_thunks.obj
 0001:000425e5       ___acrt_eagerly_load_locale_apis 004435e5 f   libucrt:winapi_thunks.obj
 0001:0004261c       ___acrt_initialize_winapi_thunks 0044361c f   libucrt:winapi_thunks.obj
 0001:00042630       ___acrt_uninitialize_winapi_thunks 00443630 f   libucrt:winapi_thunks.obj
 0001:00042666       __isctype_l                00443666 f   libucrt:isctype.obj
 0001:00042731       ___pctype_func             00443731 f   libucrt:ctype.obj
 0001:00042755       _iswctype                  00443755 f   libucrt:iswctype.obj
 0001:000427be       _fegetround                004437be f   libucrt:fegetround.obj
 0001:000427d0       ___ascii_strnicmp          004437d0 f   libucrt:_strnicm.obj
 0001:00042a1f       ___acrt_LCMapStringA       00443a1f f   libucrt:lcmapstringa.obj
 0001:00042a68       __freea_crt                00443a68 f i libucrt:lcmapstringa.obj
 0001:00042a88       ___acrt_initialize_locks   00443a88 f   libucrt:locks.obj
 0001:00042ac9       ___acrt_lock               00443ac9 f   libucrt:locks.obj
 0001:00042ae0       ___acrt_uninitialize_locks 00443ae0 f   libucrt:locks.obj
 0001:00042b11       ___acrt_unlock             00443b11 f   libucrt:locks.obj
 0001:00042b28       ___acrt_get_begin_thread_init_policy 00443b28 f   libucrt:win_policies.obj
 0001:00042b6c       ___acrt_get_process_end_policy 00443b6c f   libucrt:win_policies.obj
 0001:00042b9d       ?__acrt_stdio_allocate_stream@@YA?AV__crt_stdio_stream@@XZ 00443b9d f   libucrt:stream.obj
 0001:00042c06       ?__acrt_stdio_free_stream@@YAXV__crt_stdio_stream@@@Z 00443c06 f   libucrt:stream.obj
 0001:00042d03       ??$__acrt_stdio_parse_mode@D@@YA?AU__acrt_stdio_stream_mode@@QBD@Z 00443d03 f i libucrt:openfile.obj
 0001:00042fb0       ?__acrt_stdio_parse_mode_D@@YA_NAAU__acrt_stdio_stream_mode@@@Z 00443fb0 f i libucrt:openfile.obj
 0001:00042fcb       ?__acrt_stdio_parse_mode_T@@YA_NAAU__acrt_stdio_stream_mode@@@Z 00443fcb f i libucrt:openfile.obj
 0001:00042fea       ?__acrt_stdio_parse_mode_b@@YA_NAAU__acrt_stdio_stream_mode@@@Z 00443fea f i libucrt:openfile.obj
 0001:0004300a       ?__acrt_stdio_parse_mode_c@@YA_NAAU__acrt_stdio_stream_mode@@AA_N@Z 0044400a f i libucrt:openfile.obj
 0001:0004302c       ?__acrt_stdio_parse_mode_n@@YA_NAAU__acrt_stdio_stream_mode@@AA_N@Z 0044402c f i libucrt:openfile.obj
 0001:0004304e       ?__acrt_stdio_parse_mode_plus@@YA_NAAU__acrt_stdio_stream_mode@@AA_N@Z 0044404e f i libucrt:openfile.obj
 0001:00043084       ?__acrt_stdio_parse_mode_t@@YA_NAAU__acrt_stdio_stream_mode@@@Z 00444084 f i libucrt:openfile.obj
 0001:000430a4       ?__acrt_stdio_parse_mode_x@@YA_NAAU__acrt_stdio_stream_mode@@@Z 004440a4 f i libucrt:openfile.obj
 0001:000430c4       __openfile                 004440c4 f   libucrt:openfile.obj
 0001:0004387d       __write                    0044487d f   libucrt:write.obj
 0001:000438b4       __write_internal           004448b4 f   libucrt:write.obj
 0001:000439bc       __write_nolock             004449bc f   libucrt:write.obj
 0001:00043e09       ___acrt_stdio_flush_and_write_narrow_nolock 00444e09 f   libucrt:_flsbuf.obj
 0001:00043ea5       __close_internal           00444ea5 f   libucrt:close.obj
 0001:00043f48       __close_nolock             00444f48 f   libucrt:close.obj
 0001:00043f78       __close_nolock_internal    00444f78 f   libucrt:close.obj
 0001:00044018       ___acrt_stdio_free_buffer_nolock 00445018 f   libucrt:_freebuf.obj
 0001:00044058       __calloc_base              00445058 f   libucrt:calloc_base.obj
 0001:000440b5       ___acrt_MultiByteToWideChar 004450b5 f   libucrt:multibytetowidechar.obj
 0001:00044131       __wremove                  00445131 f   libucrt:wunlink.obj
 0001:00044159       __dsign                    00445159 f   libucrt:nan.obj
 0001:00044169       __errcode                  00445169 f   libucrt:fpexcept.obj
 0001:0004419d       __except1                  0044519d f   libucrt:fpexcept.obj
 0001:0004426b       __handle_exc               0044526b f   libucrt:fpexcept.obj
 0001:000444e4       __raise_exc                004454e4 f   libucrt:fpexcept.obj
 0001:00044507       __raise_exc_ex             00445507 f   libucrt:fpexcept.obj
 0001:000447fd       __set_errno_from_matherr   004457fd f   libucrt:fpexcept.obj
 0001:0004482c       __umatherr                 0044582c f   libucrt:fpexcept.obj
 0001:000448cc       __decomp                   004458cc f   libucrt:util.obj
 0001:0004499e       __set_exp                  0044599e f   libucrt:util.obj
 0001:000449cb       __sptype                   004459cb f   libucrt:util.obj
 0001:00044a29       ___set_fpsr_sse2           00445a29 f   libucrt:fpctrl.obj
 0001:00044aa9       __clrfp                    00445aa9 f   libucrt:fpctrl.obj
 0001:00044aba       __ctrlfp                   00445aba f   libucrt:fpctrl.obj
 0001:00044ae4       __set_statfp               00445ae4 f   libucrt:fpctrl.obj
 0001:00044b3d       __statfp                   00445b3d f   libucrt:fpctrl.obj
 0001:00044b4d       __fcloseall                00445b4d f   libucrt:closeall.obj
 0001:00044bf8       ___acrt_initialize_sse2    00445bf8 f   libucrt:mathfcns.obj
 0001:00044c08       __modf_default             00445c08 f   libucrt:modf.obj
 0001:00044d0e       ___libm_error_support      00445d0e f   libucrt:libm_error.obj
 0001:000451ad       _mbstowcs_s                004461ad f   libucrt:mbstowcs.obj
 0001:0004556f       __wcstombs_s_l             0044656f f   libucrt:wcstombs.obj
 0001:000455ad       __wrename                  004465ad f   libucrt:wrename.obj
 0001:00045783       __lseeki64                 00446783 f   libucrt:lseek.obj
 0001:000457c3       __lseeki64_internal        004467c3 f   libucrt:lseek.obj
 0001:000457e1       __lseeki64_nolock          004467e1 f   libucrt:lseek.obj
 0001:00045821       __lseeki64_nolock_internal 00446821 f   libucrt:lseek.obj
 0001:00045d05       __read                     00446d05 f   libucrt:read.obj
 0001:00045e19       __read_nolock              00446e19 f   libucrt:read.obj
 0001:0004625a       __commit                   0044725a f   libucrt:commit.obj
 0001:00046466       ___acrt_stdio_refill_and_read_narrow_nolock 00447466 f   libucrt:_filbuf.obj
 0001:00046471       ___acrt_initialize_timeset 00447471 f   libucrt:timeset.obj
 0001:000464a6       ___daylight                004474a6 f   libucrt:timeset.obj
 0001:000464ac       ___dstbias                 004474ac f   libucrt:timeset.obj
 0001:000464b2       ___timezone                004474b2 f   libucrt:timeset.obj
 0001:000464b8       ___tzname                  004474b8 f   libucrt:timeset.obj
 0001:000464be       ___wide_tzname             004474be f   libucrt:timeset.obj
 0001:000464c4       __get_daylight             004474c4 f   libucrt:timeset.obj
 0001:000464f0       __get_dstbias              004474f0 f   libucrt:timeset.obj
 0001:0004651c       __get_timezone             0044751c f   libucrt:timeset.obj
 0001:00046e04       ___tzset                   00447e04 f   libucrt:tzset.obj
 0001:00046e61       __isindst                  00447e61 f   libucrt:tzset.obj
 0001:00046eb5       ___acrt_WideCharToMultiByte 00447eb5 f   libucrt:widechartomultibyte.obj
 0001:00047f99       __Wcsftime_l               00448f99 f   libucrt:wcsftime.obj
 0001:000480f9       ___sys_errlist             004490f9 f   libucrt:syserr.obj
 0001:000480ff       ___sys_nerr                004490ff f   libucrt:syserr.obj
 0001:00048105       ___acrt_lowio_create_handle_array 00449105 f   libucrt:osfinfo.obj
 0001:00048180       ___acrt_lowio_destroy_handle_array 00449180 f   libucrt:osfinfo.obj
 0001:000481b5       ___acrt_lowio_ensure_fh_exists 004491b5 f   libucrt:osfinfo.obj
 0001:00048253       ___acrt_lowio_lock_fh      00449253 f   libucrt:osfinfo.obj
 0001:00048276       ___acrt_lowio_set_os_handle 00449276 f   libucrt:osfinfo.obj
 0001:00048308       ___acrt_lowio_unlock_fh    00449308 f   libucrt:osfinfo.obj
 0001:0004832b       __alloc_osfhnd             0044932b f   libucrt:osfinfo.obj
 0001:0004843e       __free_osfhnd              0044943e f   libucrt:osfinfo.obj
 0001:000484cf       __get_osfhandle            004494cf f   libucrt:osfinfo.obj
 0001:00048551       ??$__acrt_convert_wcs_mbs_cp@_WDV<lambda_28bda7af82a03b66c1cb3803a755f95d>@@U__crt_win32_buffer_internal_dynamic_resizing@@@@YAHQB_WAAV?$__crt_win32_buffer@DU__crt_win32_buffer_internal_dynamic_resizing@@@@ABV<lambda_28bda7af82a03b66c1cb3803a755f95d>@@I@Z 00449551 f i libucrt:argv_wildcards.obj
 0001:00048af3       ?allocate@?$__crt_win32_buffer@DU__crt_win32_buffer_internal_dynamic_resizing@@@@QAEHI@Z 00449af3 f i libucrt:argv_wildcards.obj
 0001:00048bb6       ___acrt_expand_narrow_argv_wildcards 00449bb6 f   libucrt:argv_wildcards.obj
 0001:00048bc1       ___acrt_GetModuleFileNameA 00449bc1 f   libucrt:getmodulefilenamea.obj
 0001:000491e5       ___acrt_initialize_multibyte 0044a1e5 f   libucrt:mbctype.obj
 0001:0004922d       ___acrt_update_thread_multibyte_data 0044a22d f   libucrt:mbctype.obj
 0001:00049240       __setmbcp_nolock           0044a240 f   libucrt:mbctype.obj
 0001:00049498       __ismbblead                0044a498 f   libucrt:ismbbyte.obj
 0001:000494b0       ___acrt_initialize_command_line 0044a4b0 f   libucrt:argv_data.obj
 0001:000494c9       _wcscpy_s                  0044a4c9 f   libucrt:wcscpy_s.obj
 0001:00049564       ___dcrt_get_narrow_environment_from_os 0044a564 f   libucrt:get_environment_from_os.obj
 0001:00049604       ___dcrt_get_wide_environment_from_os 0044a604 f   libucrt:get_environment_from_os.obj
 0001:00049a01       ___dcrt_set_variable_in_wide_environment_nolock 0044aa01 f   libucrt:setenv.obj
 0001:00049a0c       __recalloc_base            0044aa0c f   libucrt:recalloc.obj
 0001:00049a79       ___acrt_initialize_heap    0044aa79 f   libucrt:heap_handle.obj
 0001:00049a8a       ___acrt_uninitialize_heap  0044aa8a f   libucrt:heap_handle.obj
 0001:00049a94       ___acrt_execute_initializers 0044aa94 f   libucrt:shared_initialization.obj
 0001:00049afc       ___acrt_execute_uninitializers 0044aafc f   libucrt:shared_initialization.obj
 0001:00049ba5       _wcscat_s                  0044aba5 f   libucrt:wcscat_s.obj
 0001:00049c7e       _wcsncpy_s                 0044ac7e f   libucrt:wcsncpy_s.obj
 0001:00049c89       ___acrt_initialize_fmode   0044ac89 f   libucrt:txtmode.obj
 0001:00049c9f       ____lc_codepage_func       0044ac9f f   libucrt:initctype.obj
 0001:00049cc4       ___acrt_locale_initialize_ctype 0044acc4 f   libucrt:initctype.obj
 0001:0004a121       ___acrt_locale_free_monetary 0044b121 f   libucrt:initmon.obj
 0001:0004a21f       ___acrt_locale_initialize_monetary 0044b21f f   libucrt:initmon.obj
 0001:0004a5d5       ___acrt_locale_free_numeric 0044b5d5 f   libucrt:initnum.obj
 0001:0004a63e       ___acrt_locale_initialize_numeric 0044b63e f   libucrt:initnum.obj
 0001:0004aaf0       ___acrt_locale_free_time   0044baf0 f   libucrt:inittime.obj
 0001:0004abd4       ___acrt_locale_initialize_time 0044bbd4 f   libucrt:inittime.obj
 0001:0004ad3c       _wcsncat_s                 0044bd3c f   libucrt:wcsncat_s.obj
 0001:0004ad47       _wcscspn                   0044bd47 f   libucrt:wcscspn.obj
 0001:0004ada0       _wcspbrk                   0044bda0 f   libucrt:wcspbrk.obj
 0001:0004adee       ___acrt_GetStringTypeA     0044bdee f   libucrt:getstringtypea.obj
 0001:0004aef7       ___acrt_add_locale_ref     0044bef7 f   libucrt:locale_refcounting.obj
 0001:0004af74       ___acrt_free_locale        0044bf74 f   libucrt:locale_refcounting.obj
 0001:0004b0bc       ___acrt_locale_add_lc_time_reference 0044c0bc f   libucrt:locale_refcounting.obj
 0001:0004b0e5       ___acrt_locale_free_lc_time_if_unreferenced 0044c0e5 f   libucrt:locale_refcounting.obj
 0001:0004b116       ___acrt_locale_release_lc_time_reference 0044c116 f   libucrt:locale_refcounting.obj
 0001:0004b13f       ___acrt_release_locale_ref 0044c13f f   libucrt:locale_refcounting.obj
 0001:0004b1c0       ___acrt_update_thread_locale_data 0044c1c0 f   libucrt:locale_refcounting.obj
 0001:0004b241       __updatetlocinfoEx_nolock  0044c241 f   libucrt:locale_refcounting.obj
 0001:0004b98d       ___acrt_get_qualified_locale 0044c98d f   libucrt:get_qualified_locale.obj
 0001:0004c2f1       ___acrt_get_qualified_locale_downlevel 0044d2f1 f   libucrt:getqloc_downlevel.obj
 0001:0004c58d       __clearfp                  0044d58d f   libucrt:ieee87.obj
 0001:0004c66b       __control87                0044d66b f   libucrt:ieee87.obj
 0001:0004ca88       ___acrt_fp_strflt_to_string 0044da88 f   libucrt:_fptostr.obj
 0001:0004cb82       ___acrt_fltout             0044db82 f   libucrt:cfout.obj
 0001:0004e0bb       ?__c32rtomb_utf8@__crt_mbstring@@YAIPAD_UPAU_Mbstatet@@AAV__crt_cached_ptd_host@@@Z 0044f0bb f   libucrt:c32rtomb.obj
 0001:0004e197       ?__mbrtowc_utf8@__crt_mbstring@@YAIPA_WPBDIPAU_Mbstatet@@AAV__crt_cached_ptd_host@@@Z 0044f197 f   libucrt:mbrtowc.obj
 0001:0004e1da       ?__mbsrtowcs_utf8@__crt_mbstring@@YAIPA_WPAPBDIPAU_Mbstatet@@AAV__crt_cached_ptd_host@@@Z 0044f1da f   libucrt:mbrtowc.obj
 0001:0004e2e2       __isatty                   0044f2e2 f   libucrt:isatty.obj
 0001:0004e388       ___acrt_DownlevelLCIDToLocaleName 0044f388 f   libucrt:lcidtoname_downlevel.obj
 0001:0004e42b       ___acrt_DownlevelLocaleNameToLCID 0044f42b f   libucrt:lcidtoname_downlevel.obj
 0001:0004e457       ___acrt_GetStringTypeW     0044f457 f   libucrt:getstringtypew.obj
 0001:0004e739       ___acrt_fenv_get_common_round_control 0044f739 f   libucrt:_fenvutils.obj
 0001:0004e75b       ___acrt_fenv_get_control   0044f75b f   libucrt:_fenvutils.obj
 0001:0004e7db       ___acrt_fenv_get_status    0044f7db f   libucrt:_fenvutils.obj
 0001:0004e885       ___acrt_fenv_set_control   0044f885 f   libucrt:_fenvutils.obj
 0001:0004e900       ___acrt_fenv_set_status    0044f900 f   libucrt:_fenvutils.obj
 0001:0004e9fa       ___strncnt                 0044f9fa f   libucrt:strncnt.obj
 0001:0004ea16       ___ascii_wcsnicmp          0044fa16 f   libucrt:wcsnicmp.obj
 0001:0004ea65       __towlower_internal        0044fa65 f i libucrt:wcsnicmp.obj
 0001:0004eaa4       __wcsnicmp                 0044faa4 f   libucrt:wcsnicmp.obj
 0001:0004eaf0       __wcsnicmp_l               0044faf0 f   libucrt:wcsnicmp.obj
 0001:0004f18b       __sopen_nolock             0045018b f   libucrt:open.obj
 0001:0004f1f9       __sopen_s                  004501f9 f   libucrt:open.obj
 0001:0004f219       __wsopen_nolock            00450219 f   libucrt:open.obj
 0001:0004f543       __putwch_nolock            00450543 f   libucrt:putwch.obj
 0001:0004f575       ___acrt_stdio_allocate_buffer_nolock 00450575 f   libucrt:_getbuf.obj
 0001:0004f5d1       __copysign                 004505d1 f   libucrt:ieeemisc.obj
 0001:0004f5f4       __fpclass                  004505f4 f   libucrt:ieeemisc.obj
 0001:0004f698       __frnd                     00450698 f   libucrt:frnd.obj
 0001:0004f6ac       ?__wcsrtombs_utf8@__crt_mbstring@@YAIPADPAPB_WIPAU_Mbstatet@@AAV__crt_cached_ptd_host@@@Z 004506ac f   libucrt:wcrtomb.obj
 0001:0004f954       __wgetenv_s                00450954 f   libucrt:getenv.obj
 0001:0004f95f       ___ascii_wcsicmp           0045095f f   libucrt:wcsicmp.obj
 0001:0004f99c       __wcsicmp                  0045099c f   libucrt:wcsicmp.obj
 0001:0004f9e5       __wcsicmp_l                004509e5 f   libucrt:wcsicmp.obj
 0001:0004fb54       _strncpy_s                 00450b54 f   libucrt:strncpy_s.obj
 0001:0004fb5f       __mbsdec                   00450b5f f   libucrt:mbsdec.obj
 0001:0004fb76       __mbsdec_l                 00450b76 f   libucrt:mbsdec.obj
 0001:0004fc12       __wcsnicoll                00450c12 f   libucrt:wcsnicol.obj
 0001:0004fc7f       __wcsnicoll_l              00450c7f f   libucrt:wcsnicol.obj
 0001:0004fd3f       __msize_base               00450d3f f   libucrt:msize.obj
 0001:0004fd72       __realloc_base             00450d72 f   libucrt:realloc_base.obj
 0001:0004fec2       ___acrt_GetLocaleInfoA     00450ec2 f   libucrt:getlocaleinfoa.obj
 0001:00050197       __itow_s                   00451197 f   libucrt:xtoa.obj
 0001:000501ca       _fegetenv                  004511ca f   libucrt:fegetenv.obj
 0001:000501e7       _fesetenv                  004511e7 f   libucrt:fesetenv.obj
 0001:00050232       _feholdexcept              00451232 f   libucrt:feholdexcept.obj
 0001:00050280       __CIlog10                  00451280 f   libucrt:log10_impl.obj
 0001:000502bb       __CIlog10_default          004512bb f   libucrt:log10_impl.obj
 0001:000502cf       __log10_default            004512cf     libucrt:log10_impl.obj
 0001:00050390       _ceil                      00451390 f   libucrt:ceil_pentium4.obj
 0001:000503d0       __ceil_pentium4            004513d0 f   libucrt:ceil_pentium4.obj
 0001:000504ad       ?reset_and_return@__crt_mbstring@@YAIIPAU_Mbstatet@@@Z 004514ad f   libucrt:common_utf8.obj
 0001:000504c1       ?return_illegal_sequence@__crt_mbstring@@YAIPAU_Mbstatet@@AAV__crt_cached_ptd_host@@@Z 004514c1 f   libucrt:common_utf8.obj
 0001:000504e3       ?__mbrtoc32_utf8@__crt_mbstring@@YAIPA_UPBDIPAU_Mbstatet@@AAV__crt_cached_ptd_host@@@Z 004514e3 f   libucrt:mbrtoc32.obj
 0001:000506a1       __towlower_l               004516a1 f   libucrt:towlower.obj
 0001:0005077a       ??0__crt_seek_guard@@QAE@H_J@Z 0045177a f i libucrt:chsize.obj
 0001:000507c7       __chsize_nolock            004517c7 f   libucrt:chsize.obj
 0001:000507fe       __chsize_nolock_internal   004517fe f   libucrt:chsize.obj
 0001:000509c0       ___dcrt_lowio_ensure_console_output_initialized 004519c0 f   libucrt:initcon.obj
 0001:000509df       ___dcrt_terminate_console_output 004519df f   libucrt:initcon.obj
 0001:000509f6       ___dcrt_write_console      004519f6 f   libucrt:initcon.obj
 0001:00050a4b       ?__c16rtomb_utf8@__crt_mbstring@@YAIPAD_SPAU_Mbstatet@@AAV__crt_cached_ptd_host@@@Z 00451a4b f   libucrt:c16rtomb.obj
 0001:00050af4       ___acrt_CompareStringW     00451af4 f   libucrt:comparestringw.obj
 0001:00050b60       __CIlog10_pentium4         00451b60 f   libucrt:log10_pentium4.obj
 0001:00050b78       __log10_pentium4           00451b78     libucrt:log10_pentium4.obj
 0001:00050e10       __fFEXP                    00451e10 f   libucrt:87tran.obj
 0001:00050e67       __rtinfpopse               00451e67     libucrt:87tran.obj
 0001:00050e69       __rtinfnpopse              00451e69     libucrt:87tran.obj
 0001:00050e79       __fFLN                     00451e79     libucrt:87tran.obj
 0001:00050f2e       __rtinfpop                 00451f2e     libucrt:87tran.obj
 0001:00050f30       __rtinfnpop                00451f30     libucrt:87tran.obj
 0001:00050f40       __rtforexpinf              00451f40 f   libucrt:87tran.obj
 0001:00050f4d       __ffexpm1                  00451f4d     libucrt:87tran.obj
 0001:00051000       __trandisp1                00452000 f   libucrt:87disp.obj
 0001:00051075       __trandisp2                00452075 f   libucrt:87disp.obj
 0001:0005110f       __rttospopde               0045210f     libucrt:87disp.obj
 0001:00051114       __rttospop                 00452114     libucrt:87disp.obj
 0001:00051120       __rtnospop                 00452120 f   libucrt:87disp.obj
 0001:00051130       __rttosnpop                00452130 f   libucrt:87disp.obj
 0001:00051131       __rtnospopde               00452131     libucrt:87disp.obj
 0001:00051138       __rtzeropop                00452138     libucrt:87disp.obj
 0001:0005113a       __rtzeronpop               0045213a     libucrt:87disp.obj
 0001:00051140       __rtzerospop               00452140 f   libucrt:87disp.obj
 0001:0005114d       __rtonepop                 0045214d     libucrt:87disp.obj
 0001:00051150       __rtonenpop                00452150 f   libucrt:87disp.obj
 0001:00051160       __tosnan1                  00452160 f   libucrt:87disp.obj
 0001:00051190       __nosnan2                  00452190 f   libucrt:87disp.obj
 0001:000511a0       __tosnan2                  004521a0 f   libucrt:87disp.obj
 0001:000511d0       __nan2                     004521d0 f   libucrt:87disp.obj
 0001:00051210       __rtindfpop                00452210 f   libucrt:87disp.obj
 0001:00051212       __rtindfnpop               00452212     libucrt:87disp.obj
 0001:00051223       __rttosnpopde              00452223     libucrt:87disp.obj
 0001:00051230       __rtatan2inf               00452230 f   libucrt:87disp.obj
 0001:0005124d       __rtchsifneg               0045224d     libucrt:87disp.obj
 0001:00051260       __twoToTOS                 00452260 f   libucrt:common.obj
 0001:00051275       __load_CW                  00452275 f   libucrt:common.obj
 0001:0005128c       __convertTOStoQNaN         0045228c f   libucrt:common.obj
 0001:000512a5       __fload_withFB             004522a5 f   libucrt:common.obj
 0001:000512e8       __checkTOS_withFB          004522e8 f   libucrt:common.obj
 0001:000512fe       __fast_exit                004522fe f   libucrt:common.obj
 0001:0005130b       __math_exit                0045230b f   libucrt:common.obj
 0001:00051335       __check_overflow_exit      00452335 f   libucrt:common.obj
 0001:00051349       __check_range_exit         00452349 f   libucrt:common.obj
 0001:000513f0       __startTwoArgErrorHandling 004523f0 f   libucrt:genexcep.obj
 0001:00051407       __startOneArgErrorHandling 00452407 f   libucrt:genexcep.obj
 0001:00051443       __ceil_default             00452443 f   libucrt:ceil.obj
 0001:000514f8       ___acrt_LCMapStringW       004524f8 f   libucrt:lcmapstringw.obj
 0001:00051536       __d_inttype                00452536 f   libucrt:powhlp.obj
 0001:0005159e       __powhlp                   0045259e f   libucrt:powhlp.obj
 0001:000516c9       __87except                 004526c9 f   libucrt:87except.obj
 0001:000517e0       __FindPESection            004527e0 f   LIBCMT:pesect.obj
 0001:00051830       __IsNonwritableInCurrentImage 00452830 f   LIBCMT:pesect.obj
 0001:000518f0       __ValidateImageBase        004528f0 f   LIBCMT:pesect.obj
 0001:00051923       __EH_epilog3               00452923 f   LIBCMT:ehprolg3.obj
 0001:00051937       __EH_prolog3               00452937 f   LIBCMT:ehprolg3.obj
 0001:0005196a       __EH_prolog3_catch         0045296a f   LIBCMT:ehprolg3.obj
 0001:000519a0       __aulldvrm                 004529a0 f   LIBCMT:ulldvrm.obj
 0001:00051a40       __alldiv                   00452a40 f   LIBCMT:lldiv.obj
 0001:00051af0       __alldvrm                  00452af0 f   LIBCMT:lldvrm.obj
 0001:00051bd0       __allrem                   00452bd0 f   LIBCMT:llrem.obj
 0001:00051c90       __allmul                   00452c90 f   LIBCMT:llmul.obj
 0001:00051cd0       __aulldiv                  00452cd0 f   LIBCMT:ulldiv.obj
 0001:00051d40       __allshl                   00452d40 f   LIBCMT:llshl.obj
 0001:00051d60       __aullshr                  00452d60 f   LIBCMT:ullshr.obj
 0001:00051d80       __chkstk                   00452d80 f   LIBCMT:chkstk.obj
 0001:00051d80       __alloca_probe             00452d80 f   LIBCMT:chkstk.obj
 0001:00051db0       __alloca_probe_16          00452db0 f   LIBCMT:alloca16.obj
 0001:00051dc6       __alloca_probe_8           00452dc6     LIBCMT:alloca16.obj
 0001:00051de0       __ftol2_sse                00452de0 f   LIBCMT:ftol2.obj
 0001:00051df0       __ftoi2                    00452df0 f   LIBCMT:ftol2.obj
 0001:00051e6c       _memcmp                    00452e6c f   libvcruntime:memcmp.obj
 0001:00052d78       _wcschr                    00453d78 f   libvcruntime:wcschr.obj
 0001:00052e3f       _SDL_ShowSimpleMessageBox  00453e3f f   SDL2:SDL2.dll
 0001:00052e45       _SDL_SetMainReady          00453e45 f   SDL2:SDL2.dll
 0001:00052e4b       _SDL_iconv_string          00453e4b f   SDL2:SDL2.dll
 0001:00052e51       _SDL_wcslen                00453e51 f   SDL2:SDL2.dll
 0001:00052e57       _SDL_calloc                00453e57 f   SDL2:SDL2.dll
 0001:00052e5d       __filter_x86_sse2_floating_point_exception_default 00453e5d f   LIBCMT:x86_exception_filter.obj
 0001:00052e5d       __filter_x86_sse2_floating_point_exception 00453e5d f   LIBCMT:x86_exception_filter.obj
 0001:00052f80       ?rendershadow@@YAXHHHHABUvec@@0@Z 00453f80 f   rendercubes.obj
 0001:000539d0       ?rendershadow_tris@@YAXHH_NPAUsqr@@1@Z 004549d0 f   rendercubes.obj
 0001:00053a50       ?rendershadow_tri@@YAXPAUsqr@@HHHHHH@Z 00454a50 f   rendercubes.obj
 0001:00053d80       ?resetcubes@@YAXXZ         00454d80 f   rendercubes.obj
 0001:00053de0       ?render_square@@YAXHMMMMHHHHHPAUsqr@@0_NH@Z 00454de0 f   rendercubes.obj
 0001:000543f0       ?render_tris@@YAXHHH_NPAUsqr@@11111@Z 004553f0 f   rendercubes.obj
 0001:000544b0       ?render_2tris@@YAXPAUsqr@@0HHHHHH000@Z 004554b0 f   rendercubes.obj
 0001:00054910       ?render_flatdelta@@YAXHHHHMMMMPAUsqr@@000_N@Z 00455910 f   rendercubes.obj
 0001:00054e80       ?render_flat@@YAXHHHHHPAUsqr@@000_N@Z 00455e80 f   rendercubes.obj
 0001:00055500       ?finishstrips@@YAXXZ       00456500 f   rendercubes.obj
 0001:000555b0       ?editfocusdetails@@YA_NPAUsqr@@@Z 004565b0 f   rendercubes.obj
 0001:00055640       ?mipstats@@YAXQBH@Z        00456640 f   rendercubes.obj
 0001:00055680       ?cubetypename@@YAPBDH@Z    00456680 f   rendercubes.obj
 0001:000556c0       ?addstrip@@YAXHHHH@Z       004566c0 f   rendercubes.obj
 0001:00055880       ?renderstrips@@YAXXZ       00456880 f   rendercubes.obj
 0001:00055a00       ?renderstripssky@@YAXXZ    00456a00 f   rendercubes.obj
 0001:00055bb0       ?setupstrips@@YAXXZ        00456bb0 f   rendercubes.obj
 0001:00055ce0       ?gl_drawframe@@YAXHHMMH@Z  00456ce0 f   rendergl.obj
 0001:00056950       ?readdepth@@YAXHHAAUvec@@@Z 00457950 f   rendergl.obj
 0001:00056a30       ?depthcorrect@@YAMM@Z      00457a30 f   rendergl.obj
 0001:00056a50       ?readmatrices@@YAXXZ       00457a50 f   rendergl.obj
 0001:00056cd0       ?outsidemap@@YA_NPAVphysent@@@Z 00457cd0 f   rendergl.obj
 0001:00056d90       ?drawhudgun@@YAXXZ         00457d90 f   rendergl.obj
 0001:00056e70       ?sethudgunperspective@@YAX_N@Z 00457e70 f   rendergl.obj
 0001:00056ef0       ?setperspective@@YAXMMMM@Z 00457ef0 f   rendergl.obj
 0001:00057040       ?resetzones@@YAXXZ         00458040 f   rendergl.obj
 0001:00057060       ?drawzone@@YAXPAH0000@Z    00458060 f   rendergl.obj
 0001:00057140       ?cleanupgl@@YAXXZ          00458140 f   rendergl.obj
 0001:000571b0       ?drawminimap@@YAXHH@Z      004581b0 f   rendergl.obj
 0001:000579d0       ?var_minimapres@@YAXXZ     004589d0 f   rendergl.obj
 0001:000579e0       ?clearminimap@@YAXXZ       004589e0 f   rendergl.obj
 0001:000579f0       ?renderzones@@YAXM@Z       004589f0 f   rendergl.obj
 0001:00057bb0       ?drawreflection@@YAXMHHM_N@Z 00458bb0 f   rendergl.obj
 0001:00058650       ?genclipmatrix@@YAXMMMM@Z  00459650 f   rendergl.obj
 0001:000587b0       ?transplayer@@YAXXZ        004597b0 f   rendergl.obj
 0001:000588d0       ?recomputecamera@@YAXXZ    004598d0 f   rendergl.obj
 0001:00058c30       ?resetcamera@@YAXXZ        00459c30 f   rendergl.obj
 0001:00058c40       ?var_fogcolour@@YAXXZ      00459c40 f   rendergl.obj
 0001:00058c60       ?var_fog@@YAXXZ            00459c60 f   rendergl.obj
 0001:00058c80       ?dynfov@@YAMXZ             00459c80 f   rendergl.obj
 0001:00058d50       ?fovchanged@@YAXXZ         00459d50 f   rendergl.obj
 0001:00058dd0       ?var_scopefov@@YAXXZ       00459dd0 f   rendergl.obj
 0001:00058e50       ?var_fov@@YAXXZ            00459e50 f   rendergl.obj
 0001:00058ed0       ?fixresizedscreen@@YAXXZ   00459ed0 f   rendergl.obj
 0001:00058f90       ?rendercursor@@YAXHHH@Z    00459f90 f   rendergl.obj
 0001:00059010       ?renderaboveheadicon@@YAXPAVplayerent@@@Z 0045a010 f   rendergl.obj
 0001:00059270       ?framedquadtexture@@YAXIHHHHHH_N@Z 0045a270 f   rendergl.obj
 0001:00059410       ?blendbox@@YAXHHHH_NHPAUcolor@@@Z 0045a410 f   rendergl.obj
 0001:000599d0       ?dot@@YAXHHM@Z             0045a9d0 f   rendergl.obj
 0001:00059af0       ?circle@@YAXIMMMMMMH@Z     0045aaf0 f   rendergl.obj
 0001:00059c20       ?quad@@YAXIABUvec@@0MMMM@Z 0045ac20 f   rendergl.obj
 0001:00059d40       ?quad@@YAXIMMMMMMM@Z       0045ad40 f   rendergl.obj
 0001:00059ec0       ?box2d@@YAXHHHHH@Z         0045aec0 f   rendergl.obj
 0001:00059f70       ?box@@YAXAAUblock@@MMMM@Z  0045af70 f   rendergl.obj
 0001:0005a0c0       ?linestyle@@YAXMHHH@Z      0045b0c0 f   rendergl.obj
 0001:0005a0f0       ?line@@YAXHHHHPAUcolor@@@Z 0045b0f0 f   rendergl.obj
 0001:0005a180       ?line@@YAXHHMHHM@Z         0045b180 f   rendergl.obj
 0001:0005a270       ?disable@varray@@YAXXZ     0045b270 f   rendergl.obj
 0001:0005a2f0       ?end@varray@@YAHXZ         0045b2f0 f   rendergl.obj
 0001:0005a880       ?defattrib@varray@@YAXHHI@Z 0045b880 f   rendergl.obj
 0001:0005a990       ?begin@varray@@YAXI@Z      0045b990 f   rendergl.obj
 0001:0005a9a0       ?enable@varray@@YAXXZ      0045b9a0 f   rendergl.obj
 0001:0005a9e0       ?disablepolygonoffset@@YAXI_N@Z 0045b9e0 f   rendergl.obj
 0001:0005aa40       ?enablepolygonoffset@@YAXI@Z 0045ba40 f   rendergl.obj
 0001:0005ab00       ?gl_init@@YAXHHHH@Z        0045bb00 f   rendergl.obj
 0001:0005ac70       ?gl_checkextensions@@YAXXZ 0045bc70 f   rendergl.obj
 0001:0005aed0       ?glext@@YAXPAD@Z           0045bed0 f   rendergl.obj
 0001:0005af50       ?hasext@@YA_NPBD0@Z        0045bf50 f   rendergl.obj
 0001:0005afc0       ?getprocaddress@@YAPAXPBD@Z 0045bfc0 f   rendergl.obj
 0001:0005b010       ?show_out_of_renderloop_progress@@YAXMPBDM0@Z 0045c010 f   renderhud.obj
 0001:0005b490       ?loadingscreen@@YAXPBDZZ   0045c490 f   renderhud.obj
 0001:0005b700       ?damageblend@@YAXHPAX@Z    0045c700 f   renderhud.obj
 0001:0005b750       ?var_damagescreen@@YAXXZ   0045c750 f   renderhud.obj
 0001:0005b770       ?drawteamicons@@YAXHH_N@Z  0045c770 f   renderhud.obj
 0001:0005b860       ?drawradar@@YAXPAVplayerent@@HH@Z 0045c860 f   renderhud.obj
 0001:0005b880       ?drawradar_vicinity@@YAXPAVplayerent@@HH@Z 0045c880 f   renderhud.obj
 0001:0005c620       ?drawradar_showmap@@YAXPAVplayerent@@HH@Z 0045d620 f   renderhud.obj
 0001:0005d160       ?getradarpos@@YA?AUvec@@XZ 0045e160 f   renderhud.obj
 0001:0005d190       ?isattacking@@YA_NPAVplayerent@@@Z 0045e190 f   renderhud.obj
 0001:0005d1b0       ?hudoutf@@YAXPBDZZ         0045e1b0 f   renderhud.obj
 0001:0005d200       ?drawradarent@@YAXMMMHHM_NPBDZZ 0045e200 f   renderhud.obj
 0001:0005d4c0       ?drawequipicons@@YAXPAVplayerent@@@Z 0045e4c0 f   renderhud.obj
 0001:0005d640       ?getprevweaponsel@@YAHPAVplayerent@@@Z 0045e640 f   renderhud.obj
 0001:0005d660       ?drawktfindicator@@YAXPAVplayerent@@@Z 0045e660 f   renderhud.obj
 0001:0005d8f0       ?drawdmgindicator@@YAXPAVplayerent@@@Z 0045e8f0 f   renderhud.obj
 0001:0005db30       ?updatedmgindicator@@YAXPAVplayerent@@AAUvec@@@Z 0045eb30 f   renderhud.obj
 0001:0005dbf0       ?drawcrosshair@@YAXPAVplayerent@@HPAUcolor@@M@Z 0045ebf0 f   renderhud.obj
 0001:0005de90       ?loadcrosshair@@YAXPBD0@Z  0045ee90 f   renderhud.obj
 0001:0005e020       ?loadcrosshairtexture@@YAPAUTexture@@PBD@Z 0045f020 f   renderhud.obj
 0001:0005e0c0       ?drawscope@@YAX_N@Z        0045f0c0 f   renderhud.obj
 0001:0005e660       ?drawvoteicon@@YAXMMHH_N@Z 0045f660 f   renderhud.obj
 0001:0005e750       ?drawctficon@@YAXMMMHHMH@Z 0045f750 f   renderhud.obj
 0001:0005e8a0       ?drawradaricon@@YAXMMMHH@Z 0045f8a0 f   renderhud.obj
 0001:0005e980       ?drawequipicon@@YAXMMHH@Z  0045f980 f   renderhud.obj
 0001:0005ea80       ?drawicon@@YAXPAUTexture@@MMMHHM@Z 0045fa80 f   renderhud.obj
 0001:0005eae0       ?gl_drawhud@@YAXHHHHH_NH@Z 0045fae0 f   renderhud.obj
 0001:00061ac0       ?hudeditf@@YAXHPBDZZ       00462ac0 f   renderhud.obj
 0001:00061d10       ?loadallmapmodels@@YAXXZ   00462d10 f   rendermodel.obj
 0001:00061e60       ?renderclientp@@YAXPAVplayerent@@@Z 00462e60 f   rendermodel.obj
 0001:000620d0       ?updateclientname@@YAXPAVplayerent@@@Z 004630d0 f   rendermodel.obj
 0001:00062150       ?getclientskin@@YAPBDPBD0@Z 00463150 f   rendermodel.obj
 0001:00062280       ?renderclient@@YAXPAVplayerent@@PBD1H@Z 00463280 f   rendermodel.obj
 0001:000628f0       ?preload_mapmodels@@YA_N_N@Z 004638f0 f   rendermodel.obj
 0001:00062a20       ?preload_entmodels@@YAXXZ  00463a20 f   rendermodel.obj
 0001:00062de0       ?preload_playermodels@@YAXXZ 00463de0 f   rendermodel.obj
 0001:000631b0       ?loadskin@@YAXPBD0AAPAUTexture@@@Z 004641b0 f   rendermodel.obj
 0001:000632e0       ?findanim@@YAHPBD@Z        004642e0 f   rendermodel.obj
 0001:00063410       ?rendermodel@@YAXPBDHHMABUvec@@MMMMHPAVplayerent@@PAUmodelattach@@M@Z 00464410 f   rendermodel.obj
 0001:00063b60       ?clearmodelbatches@@YAXXZ  00464b60 f   rendermodel.obj
 0001:00063bc0       ?renderbatchedmodelshadow@@YAXPAUmodel@@AAUbatchedmodel@@@Z 00464bc0 f   rendermodel.obj
 0001:00063d60       ?renderbatchedmodel@@YAXPAUmodel@@AAUbatchedmodel@@@Z 00464d60 f   rendermodel.obj
 0001:00063fc0       ?addbatchedmodel@@YAAAUbatchedmodel@@PAUmodel@@@Z 00464fc0 f   rendermodel.obj
 0001:00064190       ?listallmapmodelattributes@@YAXPAPADH@Z 00465190 f   rendermodel.obj
 0001:000649e0       ?writemapmodelattributes@@YAXXZ 004659e0 f   rendermodel.obj
 0001:00064c60       ?mmasort2@@YAHPAPAUmapmodelattributes@@0@Z 00465c60 f   rendermodel.obj
 0001:00064ce0       ?mmasort@@YAHPAPAUmapmodelattributes@@0@Z 00465ce0 f   rendermodel.obj
 0001:00064d20       ?updatemapmodeldependencies@@YAXXZ 00465d20 f   rendermodel.obj
 0001:00065040       ?getmapmodelattributes@@YAXPAD0@Z 00466040 f   rendermodel.obj
 0001:00065140       ?resetmdlnotfound@@YAXXZ   00466140 f   rendermodel.obj
 0001:000651f0       ?cleanupmodels@@YAXXZ      004661f0 f   rendermodel.obj
 0001:00065240       ?loadmodel@@YAPAUmodel@@PBDH_N@Z 00466240 f   rendermodel.obj
 0001:000655e0       ?mapmodelregistryclear@@YAXXZ 004665e0 f   rendermodel.obj
 0001:000656d0       ?mapmodelregister_@@YAXPAPADH@Z 004666d0 f   rendermodel.obj
 0001:000657b0       ?setmodelattributes@@YAXPBDAAUmapmodelattributes@@@Z 004667b0 f   rendermodel.obj
 0001:00065980       ?sortmapmodelslots@@YAXPAPADH@Z 00466980 f   rendermodel.obj
 0001:00066020       ?tempmmunsort@@YAHPAUtempmmslot@@0@Z 00467020 f   rendermodel.obj
 0001:00066040       ?tempmmsort@@YAHPAUtempmmslot@@0@Z 00467040 f   rendermodel.obj
 0001:00066070       ?tempmmcmp@@YAHPAUtempmmslot@@0@Z 00467070 f   rendermodel.obj
 0001:00066100       ?editmapmodelslot@@YAXPAHPAD1111@Z 00467100 f   rendermodel.obj
 0001:00066370       ?deletemapmodelslot@@YAXPAHPAD@Z 00467370 f   rendermodel.obj
 0001:000665c0       ?mapmodelslotusage@@YAXPAH@Z 004675c0 f   rendermodel.obj
 0001:00066800       ?getmminfo@@YAPAUmapmodelinfo@@H@Z 00467800 f   rendermodel.obj
 0001:00066820       ?mapmodelreset@@YAXXZ      00467820 f   rendermodel.obj
 0001:00066850       ?mapmodel@@YAXPAH00PAD11@Z 00467850 f   rendermodel.obj
 0001:00066ab0       ?mmshortname@@YAPBDPBD@Z   00467ab0 f   rendermodel.obj
 0001:00066ad0       ?mdlattribute@@YAXPAD0@Z   00467ad0 f   rendermodel.obj
 0001:00066b80       ?mdlcachelimit@@YAXPAH@Z   00467b80 f   rendermodel.obj
 0001:00066bc0       ?mdlshadowdist@@YAXPAH@Z   00467bc0 f   rendermodel.obj
 0001:00066c10       ?mdltrans@@YAXPAM00@Z      00467c10 f   rendermodel.obj
 0001:00066c80       ?mdlscale@@YAXPAH@Z        00467c80 f   rendermodel.obj
 0001:00066cf0       ?mdlalphablend@@YAXPAH@Z   00467cf0 f   rendermodel.obj
 0001:00066d40       ?mdlalphatest@@YAXPAH@Z    00467d40 f   rendermodel.obj
 0001:00066d90       ?mdltranslucent@@YAXPAH@Z  00467d90 f   rendermodel.obj
 0001:00066de0       ?mdlvertexlight@@YAXPAH@Z  00467de0 f   rendermodel.obj
 0001:00066e30       ?mdlcullface@@YAXPAH@Z     00467e30 f   rendermodel.obj
 0001:00066e80       ?md3emit@@YAXPAD0PAH1@Z    00467e80 f   rendermodel.obj
 0001:00066f30       ?md3link@@YAXPAH0PAD@Z     00467f30 f   rendermodel.obj
 0001:00066fc0       ?md3anim@@YAXPADPAH1PAM@Z  00467fc0 f   rendermodel.obj
 0001:00067050       ?md3skin@@YAXPAD0@Z        00468050 f   rendermodel.obj
 0001:00067220       ?md3load@@YAXPAD@Z         00468220 f   rendermodel.obj
 0001:00067300       ?md2emit@@YAXPAD0PAH1@Z    00468300 f   rendermodel.obj
 0001:000673b0       ?md2tag@@YAXPAD0000@Z      004683b0 f   rendermodel.obj
 0001:00067700       ?md2anim@@YAXPADPAH1PAM@Z  00468700 f   rendermodel.obj
 0001:00067790       ?var_mdlstatcache@@YAXXZ   00468790 f   rendermodel.obj
 0001:000677b0       ?var_mdldyncache@@YAXXZ    004687b0 f   rendermodel.obj
 0001:000677d0       ?var_shadowyaw@@YAXXZ      004687d0 f   rendermodel.obj
 0001:00067820       ?renderclients@@YAXXZ      00468820 f   rendermodel.obj
 0001:000678c0       ?startmodelbatches@@YAXXZ  004688c0 f   rendermodel.obj
 0001:000678e0       ?endmodelbatches@@YAX_N@Z  004688e0 f   rendermodel.obj
 0001:00067dd0       ?addshotline@@YAXPAVdynent@@ABUvec@@1@Z 00468dd0 f   renderparticles.obj
 0001:00068180       ?addscorchmark@@YA_NAAUvec@@M@Z 00469180 f   renderparticles.obj
 0001:00068270       ?addbullethole@@YA_NPAVdynent@@ABUvec@@1M_N@Z 00469270 f   renderparticles.obj
 0001:00068590       ?particle_fireball@@YAXHABUvec@@@Z 00469590 f   renderparticles.obj
 0001:000685f0       ?particle_trail@@YAXHHABUvec@@0@Z 004695f0 f   renderparticles.obj
 0001:000687d0       ?particle_cube@@YAXHHHHH@Z 004697d0 f   renderparticles.obj
 0001:00068970       ?particle_splash@@YAXHHHABUvec@@@Z 00469970 f   renderparticles.obj
 0001:00068a80       ?particle_flash@@YAXHMMABUvec@@@Z 00469a80 f   renderparticles.obj
 0001:00068ae0       ?newparticle@@YAXABUvec@@0HH@Z 00469ae0 f   renderparticles.obj
 0001:00068be0       ?particlereset@@YAXXZ      00469be0 f   renderparticles.obj
 0001:00068c20       ?cleanupparticles@@YAXXZ   00469c20 f   renderparticles.obj
 0001:00068c50       ?particleinit@@YAXXZ       00469c50 f   renderparticles.obj
 0001:00068d70       ?cleanupexplosion@@YAXXZ   00469d70 f   renderparticles.obj
 0001:00068df0       ?drawexplosion@@YAX_NMMMM@Z 00469df0 f   renderparticles.obj
 0001:00068fb0       ?setupexplosion@@YAXXZ     00469fb0 f   renderparticles.obj
 0001:00069510       ?createexpmodtex@@YAIHM@Z  0046a510 f   renderparticles.obj
 0001:00069a60       ?particle_emit@@YAXHPAHHHABUvec@@@Z 0046aa60 f   renderparticles.obj
 0001:00069ba0       ?render_particles@@YAXHH@Z 0046aba0 f   renderparticles.obj
 0001:0006bf50       ?enumigraphs@@YAXAAU?$vector@PBD@@PBDH@Z 0046cf50 f   rendertext.obj
 0001:0006c060       ?_getigraph@@YAXPAD@Z      0046d060 f   rendertext.obj
 0001:0006c0f0       ?getigraph@@YAHPBD@Z       0046d0f0 f   rendertext.obj
 0001:0006c140       ?getusedigraph@@YAPAUigraph@@H@Z 0046d140 f   rendertext.obj
 0001:0006c160       ?updateigraphs@@YAXXZ      0046d160 f   rendertext.obj
 0001:0006c300       ?addigraph@@YAXPAD@Z       0046d300 f   rendertext.obj
 0001:0006c6c0       ?filterunrenderables@@YA_NPAD@Z 0046d6c0 f   rendertext.obj
 0001:0006c710       ?cutcolorstring@@YAXPADH@Z 0046d710 f   rendertext.obj
 0001:0006c7b0       ?reloadfonts@@YAXXZ        0046d7b0 f   rendertext.obj
 0001:0006c8b0       ?text_endcolumns@@YAXXZ    0046d8b0 f   rendertext.obj
 0001:0006c8f0       ?text_startcolumns@@YAXXZ  0046d8f0 f   rendertext.obj
 0001:0006cd90       ?render_igraphs@@YAXXZ     0046dd90 f   rendertext.obj
 0001:0006d090       ?queue_igraph@@YAXHHH@Z    0046e090 f   rendertext.obj
 0001:0006d260       ?getfont@@YAPAUfont@@PBD@Z 0046e260 f   rendertext.obj
 0001:0006d2c0       ?setfont@@YA_NPBD@Z        0046e2c0 f   rendertext.obj
 0001:0006d2e0       ?fontskip@@YAXPAH@Z        0046e2e0 f   rendertext.obj
 0001:0006d300       ?fontchar@@YAXPAH000@Z     0046e300 f   rendertext.obj
 0001:0006d470       ?newfont@@YAXPAD0PAH11111@Z 0046e470 f   rendertext.obj
 0001:0006d5c0       ?draw_text@@YAXPBDHHHHHHHH@Z 0046e5c0 f   rendertext.obj
 0001:0006db10       ?text_width@@YAHPBD@Z      0046eb10 f   rendertext.obj
 0001:0006db30       ?pushfont@@YAXPBD@Z        0046eb30 f   rendertext.obj
 0001:0006dbf0       ?popfont@@YAXXZ            0046ebf0 f   rendertext.obj
 0001:0006dc10       ?text_bounds@@YAXPBDAAH1H@Z 0046ec10 f   rendertext.obj
 0001:0006def0       ?draw_textf@@YAXPBDHHZZ    0046eef0 f   rendertext.obj
 0001:0006df60       ?encodeigraphs@@YAXPADPBDH@Z 0046ef60 f   rendertext.obj
 0001:0006ebc0       ?addshadowbox@@YA_NABUvec@@00ABUglmatrixf@@@Z 0046fbc0 f   shadow.obj
 0001:0006f850       ?drawstencilshadows@@YAXXZ 00470850 f   shadow.obj
 0001:0006fd20       ?sorttextureslots@@YAXPAPADH@Z 00470d20 f   texture.obj
 0001:000709b0       ?tempslotunsort@@YAHPAUtemptexslot@@0@Z 004719b0 f   texture.obj
 0001:000709d0       ?tempslotsort@@YAHPAUtemptexslot@@0@Z 004719d0 f   texture.obj
 0001:00070a50       ?texconfig_paste@@YAPAEPAXPAE@Z 00471a50 f   texture.obj
 0001:00070c30       ?texconfig_delete@@YAXPAX@Z 00471c30 f   texture.obj
 0001:00070c70       ?texconfig_copy@@YAPAXXZ   00471c70 f   texture.obj
 0001:00070d70       ?textureslotbyname@@YAXPAD@Z 00471d70 f   texture.obj
 0001:00070e50       ?gettextureorigin@@YAXPAD@Z 00471e50 f   texture.obj
 0001:00070f30       ?edittextureslot@@YAXPAHPAD1@Z 00471f30 f   texture.obj
 0001:000710d0       ?deletetextureslot@@YAXPAHPAD1@Z 004720d0 f   texture.obj
 0001:000714c0       ?textureslotusage@@YAXPAH@Z 004724c0 f   texture.obj
 0001:000715c0       ?testworldtexusage@@YA_NH@Z 004725c0 f   texture.obj
 0001:00071610       ?textureslotusagelist@@YAXPAD@Z 00472610 f   texture.obj
 0001:000717a0       ?textureslotusagegeometry@@YAXPAH00@Z 004727a0 f   texture.obj
 0001:000719c0       ?textureslotusagemapmodels@@YAXPAH@Z 004729c0 f   texture.obj
 0001:00071a00       ?gettexturelist@@YAXPAD00@Z 00472a00 f   texture.obj
 0001:00072290       ?guidetoggle@@YAXXZ        00473290 f   texture.obj
 0001:000723c0       ?cleanuptmus@@YAXXZ        004733c0 f   texture.obj
 0001:00072550       ?colortmu@@YAXHMMMM@Z      00473550 f   texture.obj
 0001:000725d0       ?committmu@@YAXHAAUtmu@@@Z 004735d0 f   texture.obj
 0001:000726a0       ?committmufunc@@YAX_NAAUtmufunc@@1@Z 004736a0 f   texture.obj
 0001:000727b0       ?parsetmufunc@@YAXAAUtmufunc@@PBD@Z 004737b0 f   texture.obj
 0001:00072980       ?draw_envbox_face@@YAXMMMMMMMMMMMMMMMMMMMMPAUTexture@@@Z 00473980 f   texture.obj
 0001:00072b30       ?loadnotexture@@YAXPAD@Z   00473b30 f   texture.obj
 0001:00072c10       ?loadskymap@@YA_N_N@Z      00473c10 f   texture.obj
 0001:00072de0       ?var_loadsky@@YAXXZ        00473de0 f   texture.obj
 0001:00072df0       ?reloadtextures@@YAXXZ     00473df0 f   texture.obj
 0001:00072ed0       ?cleanuptextures@@YAXXZ    00473ed0 f   texture.obj
 0001:000730a0       ?checktexturefilename@@YAXPBD@Z 004740a0 f   texture.obj
 0001:00073100       ?_texture@@YAXAAUSlot@@PAMPAD@Z 00474100 f   texture.obj
 0001:000732c0       ?loadsurface@@YAIPBDAAH11H_N2M2@Z 004742c0 f   texture.obj
 0001:000737a0       ?var_hirestextures@@YAXXZ  004747a0 f   texture.obj
 0001:000737c0       ?scalesurface@@YAXPAUSDL_Surface@@M@Z 004747c0 f   texture.obj
 0001:00073840       ?texdecal@@YAPAUSDL_Surface@@PAU1@@Z 00474840 f   texture.obj
 0001:000738c0       ?texformat@@YAIH@Z         004748c0 f   texture.obj
 0001:00073930       ?fixsurfaceformat@@YAPAUSDL_Surface@@PAU1@@Z 00474930 f   texture.obj
 0001:00073a80       ?fixcl@@YAHPAUSDL_Surface@@H@Z 00474a80 f   texture.obj
 0001:00073c20       ?checkgrayscale@@YA_NPAUSDL_Surface@@@Z 00474c20 f   texture.obj
 0001:00073c90       ?forcergbasurface@@YAPAUSDL_Surface@@PAU1@@Z 00474c90 f   texture.obj
 0001:00073cf0       ?forcergbsurface@@YAPAUSDL_Surface@@PAU1@@Z 00474cf0 f   texture.obj
 0001:00073d40       ?creatergbsurface@@YAPAUSDL_Surface@@HH@Z 00474d40 f   texture.obj
 0001:00073d70       ?uploadtexture@@YAXIIHHIIPAXHH_N@Z 00474d70 f   texture.obj
 0001:00073f10       ?resizetexture@@YAXHH_N0IAAH1@Z 00474f10 f   texture.obj
 0001:00074020       ?formatsize@@YAHI@Z        00475020 f   texture.obj
 0001:00074060       ?var_aniso@@YAXXZ          00475060 f   texture.obj
 0001:00074080       ?var_bilinear@@YAXXZ       00475080 f   texture.obj
 0001:000740a0       ?var_trilinear@@YAXXZ      004750a0 f   texture.obj
 0001:000740c0       ?var_texreduce@@YAXXZ      004750c0 f   texture.obj
 0001:000740e0       ?var_maxtexsize@@YAXXZ     004750e0 f   texture.obj
 0001:00075790       ?reloadtexture@@YA_NAAUTexture@@@Z 00476790 f   texture.obj
 0001:00075820       ?scaletexture@@YAXPAEIII0II@Z 00476820 f   texture.obj
 0001:00075f80       ?gettextureslot@@YAPBDH@Z  00476f80 f   texture.obj
 0001:00076040       ?inittmus@@YAXXZ           00477040 f   texture.obj
 0001:000760e0       ?textureload@@YAPAUTexture@@PBDH_N1M1@Z 004770e0 f   texture.obj
 0001:00076290       ?createtexture@@YAXHHHPAXH_N1I@Z 00477290 f   texture.obj
 0001:000764c0       ?draw_envbox@@YAXH@Z       004774c0 f   texture.obj
 0001:000769a0       ?setuptmu@@YAXHPBD0@Z      004779a0 f   texture.obj
 0001:00076a60       ?resettmu@@YAXH@Z          00477a60 f   texture.obj
 0001:00076ac0       ?lookuptexture@@YAPAUTexture@@HPAU1@_N@Z 00477ac0 f   texture.obj
 0001:00076e60       ?rewinddemo@@YAXPAD@Z      00477e60 f   client.obj
 0001:00076ea0       ?setminutesremaining@@YAXPAD@Z 00477ea0 f   client.obj
 0001:00076ed0       ?shiftgametime@@YAXH@Z     00477ed0 f   client.obj
 0001:00076f60       ?listdemos@@YAXXZ          00477f60 f   client.obj
 0001:00076fa0       ?getdemo@@YAXPAHPAD@Z      00477fa0 f   client.obj
 0001:00077050       ?deleteservermap@@YAXPAD@Z 00478050 f   client.obj
 0001:000770a0       ?getmap@@YAXPAD0@Z         004780a0 f   client.obj
 0001:00077200       ?sendmap@@YAXPAD@Z         00478200 f   client.obj
 0001:00077600       ?securemapcheck@@YA_NPBD_N@Z 00478600 f   client.obj
 0001:00077760       ?gets2c@@YAXXZ             00478760 f   client.obj
 0001:00077a40       ?sendintro@@YAXXZ          00478a40 f   client.obj
 0001:00077ce0       ?getbuildtype@@YAHXZ       00478ce0 f   client.obj
 0001:00077d30       ?c2sinfo@@YAXPAVplayerent@@@Z 00478d30 f   client.obj
 0001:000786b0       ?sendpackettoserv@@YAXHPAU_ENetPacket@@@Z 004796b0 f   client.obj
 0001:000786e0       ?addmsg@@YAXHPBDZZ         004796e0 f   client.obj
 0001:00078a40       ?cleanupclient@@YAXXZ      00479a40 f   client.obj
 0001:00078aa0       ?current_version@@YAXPAD@Z 00479aa0 f   client.obj
 0001:00078ae0       ?whereami@@YAXXZ           00479ae0 f   client.obj
 0001:00078b20       ?hudecho@@YAXPAD@Z         00479b20 f   client.obj
 0001:00078bd0       ?echo@@YAXPAD@Z            00479bd0 f   client.obj
 0001:00078c60       ?pm@@YAXPAD@Z              00479c60 f   client.obj
 0001:00078cf0       ?toserverme@@YAXPAD@Z      00479cf0 f   client.obj
 0001:00078d10       ?toserver@@YAXPAD@Z        00479d10 f   client.obj
 0001:00078d30       ?_toserver@@YAXPADHH@Z     00479d30 f   client.obj
 0001:00078e30       ?trydisconnect@@YAXXZ      00479e30 f   client.obj
 0001:00078ec0       ?disconnect@@YAXHH@Z       00479ec0 f   client.obj
 0001:000790f0       ?modlanconnect@@YAXXZ      0047a0f0 f   client.obj
 0001:00079110       ?modconnectadmin@@YAXPADPAH0@Z 0047a110 f   client.obj
 0001:00079130       ?modconnectserv@@YAXPADPAH0@Z 0047a130 f   client.obj
 0001:00079150       ?lanconnect@@YAXXZ         0047a150 f   client.obj
 0001:00079170       ?connectadmin@@YAXPADPAH0@Z 0047a170 f   client.obj
 0001:00079190       ?connectserv@@YAXPADPAH0@Z 0047a190 f   client.obj
 0001:00079320       ?connectserv_@@YAXPBDH0H@Z 0047a320 f   client.obj
 0001:000794f0       ?abortconnect@@YAXXZ       0047a4f0 f   client.obj
 0001:00079530       ?throttle@@YAXXZ           0047a530 f   client.obj
 0001:00079560       ?var_throttle_decel@@YAXXZ 0047a560 f   client.obj
 0001:00079590       ?var_throttle_accel@@YAXXZ 0047a590 f   client.obj
 0001:000795c0       ?var_throttle_interval@@YAXXZ 0047a5c0 f   client.obj
 0001:000795f0       ?allowedittoggle@@YA_NXZ   0047a5f0 f   client.obj
 0001:00079620       ?getclientnum@@YAHXZ       0047a620 f   client.obj
 0001:00079640       ?multiplayer@@YA_NPBD@Z    0047a640 f   client.obj
 0001:00079690       ?c2skeepalive@@YAXXZ       0047a690 f   client.obj
 0001:00079730       ?serverextension@@YAXPAD0@Z 0047a730 f   clientgame.obj
 0001:00079790       ?spectatecn@@YAXXZ         0047a790 f   clientgame.obj
 0001:00079820       ?changefollowplayer@@YAXPAH@Z 0047a820 f   clientgame.obj
 0001:00079830       ?togglespect@@YAXXZ        0047a830 f   clientgame.obj
 0001:00079890       ?spectatemode@@YAXH@Z      0047a890 f   clientgame.obj
 0001:00079c00       ?setfollowplayer@@YAXH@Z   0047ac00 f   clientgame.obj
 0001:00079cf0       ?spectate@@YAXXZ           0047acf0 f   clientgame.obj
 0001:00079d30       ?refreshsopmenu@@YAXPAX_N@Z 0047ad30 f   clientgame.obj
 0001:00079f80       ?setadmin@@YAXPAHPAD@Z     0047af80 f   clientgame.obj
 0001:0007a010       ?findcn@@YAXPAD@Z          0047b010 f   clientgame.obj
 0001:0007a150       ?getvita@@YAXPAH@Z         0047b150 f   clientgame.obj
 0001:0007a170       ?whois@@YAXPAH@Z           0047b170 f   clientgame.obj
 0001:0007a260       ?cleanplayervotes@@YAXPAVplayerent@@@Z 0047b260 f   clientgame.obj
 0001:0007a290       ?cmd_pause@@YAXPAH@Z       0047b290 f   clientgame.obj
 0001:0007a320       ?gonext@@YAXPAH@Z          0047b320 f   clientgame.obj
 0001:0007a440       ?setnext@@YAXPAD0@Z        0047b440 f   clientgame.obj
 0001:0007a550       ?voteresult@@YAXH@Z        0047b550 f   clientgame.obj
 0001:0007a5e0       ?votecount@@YAXH@Z         0047b5e0 f   clientgame.obj
 0001:0007a600       ?callvoteerr@@YAXH@Z       0047b600 f   clientgame.obj
 0001:0007a640       ?callvotesuc@@YAXXZ        0047b640 f   clientgame.obj
 0001:0007a670       ?displayvote@@YAXPAUvotedisplayinfo@@@Z 0047b670 f   clientgame.obj
 0001:0007a720       ?vote@@YAHH@Z              0047b720 f   clientgame.obj
 0001:0007a7f0       ?scallvote@@YAXPAHPBD1@Z   0047b7f0 f   clientgame.obj
 0001:0007a9d0       ?newvotedisplayinfo@@YAPAUvotedisplayinfo@@PAVplayerent@@HPBD11@Z 0047b9d0 f   clientgame.obj
 0001:0007aa70       ?votestring@@YAPADHPBD00@Z 0047ba70 f   clientgame.obj
 0001:0007ae70       ?dropflag@@YAXXZ           0047be70 f   clientgame.obj
 0001:0007b010       ?flagmsg@@YAXHHHH@Z        0047c010 f   clientgame.obj
 0001:0007b580       ?suicide@@YAXXZ            0047c580 f   clientgame.obj
 0001:0007b5d0       ?startmap@@YAXPBD_N1@Z     0047c5d0 f   clientgame.obj
 0001:0007bbb0       ?resetmap@@YAX_N@Z         0047cbb0 f   clientgame.obj
 0001:0007be20       ?gamemodedesc@@YAXPAHPAD@Z 0047ce20 f   clientgame.obj
 0001:0007bf00       ?preparectf@@YAX_N@Z       0047cf00 f   clientgame.obj
 0001:0007c0d0       ?zapplayerflags@@YAXPAVplayerent@@@Z 0047d0d0 f   clientgame.obj
 0001:0007c180       ?initflag@@YAXH@Z          0047d180 f   clientgame.obj
 0001:0007c230       ?initclient@@YAXXZ         0047d230 f   clientgame.obj
 0001:0007c250       ?newclient@@YAPAVplayerent@@H@Z 0047d250 f   clientgame.obj
 0001:0007c370       ?timeupdate@@YAXHH@Z       0047d370 f   clientgame.obj
 0001:0007c500       ?silenttimeupdate@@YAXHH@Z 0047d500 f   clientgame.obj
 0001:0007c540       ?pstat_weap@@YAXPAH@Z      0047d540 f   clientgame.obj
 0001:0007c610       ?dokill@@YAXPAVplayerent@@0_NH@Z 0047d610 f   clientgame.obj
 0001:0007c970       ?dodamage@@YAXHPAVplayerent@@0H_N1@Z 0047d970 f   clientgame.obj
 0001:0007cc70       ?killmessage@@YAPBDH_N@Z   0047dc70 f   clientgame.obj
 0001:0007cd40       ?setkillmessage@@YAXPBD_N0@Z 0047dd40 f   clientgame.obj
 0001:0007ce90       ?tryrespawn@@YA_NXZ        0047de90 f   clientgame.obj
 0001:0007cfe0       ?respawnself@@YAXXZ        0047dfe0 f   clientgame.obj
 0001:0007d150       ?spawnplayer@@YAXPAVplayerent@@@Z 0047e150 f   clientgame.obj
 0001:0007d1b0       ?findplayerstart@@YAXPAVplayerent@@_NH@Z 0047e1b0 f   clientgame.obj
 0001:0007d5c0       ?gotoplayerstart@@YAXPAVplayerent@@PAUentity@@@Z 0047e5c0 f   clientgame.obj
 0001:0007d630       ?nearestenemy@@YAMUvec@@H@Z 0047e630 f   clientgame.obj
 0001:0007d730       ?updateworld@@YAXHH@Z      0047e730 f   clientgame.obj
 0001:0007dd50       ?resetsleep@@YAX_N@Z       0047ed50 f   clientgame.obj
 0001:0007de20       ?addsleep_@@YAXPAHPAD0@Z   0047ee20 f   clientgame.obj
 0001:0007de40       ?addsleep@@YAXHPBD_N@Z     0047ee40 f   clientgame.obj
 0001:0007df60       ?showrespawntimer@@YAXXZ   0047ef60 f   clientgame.obj
 0001:0007e0a0       ?showhudtimer@@YA_NHHPBD_N@Z 0047f0a0 f   clientgame.obj
 0001:0007e260       ?moveotherplayers@@YAXXZ   0047f260 f   clientgame.obj
 0001:0007e520       ?predictplayer@@YAXPAVplayerent@@_N@Z 0047f520 f   clientgame.obj
 0001:0007e6b0       ?movelocalplayer@@YAXXZ    0047f6b0 f   clientgame.obj
 0001:0007e790       ?freebotent@@YAXPAVbotent@@@Z 0047f790 f   clientgame.obj
 0001:0007e810       ?newbotent@@YAPAVbotent@@XZ 0047f810 f   clientgame.obj
 0001:0007e980       ?newplayerent@@YAPAVplayerent@@XZ 0047f980 f   clientgame.obj
 0001:0007ea00       ?spawnstate@@YAXPAVplayerent@@@Z 0047fa00 f   clientgame.obj
 0001:0007ea70       ?deathstate@@YAXPAVplayerent@@@Z 0047fa70 f   clientgame.obj
 0001:0007eca0       ?currentserver@@YAPBDH@Z   0047fca0 f   clientgame.obj
 0001:0007eed0       ?teaminfo@@YAXPBD0@Z       0047fed0 f   clientgame.obj
 0001:0007f290       ?playerinfolocal@@YAXPBD@Z 00480290 f   clientgame.obj
 0001:0007f2b0       ?playerinfo@@YAXPAHPBD@Z   004802b0 f   clientgame.obj
 0001:0007fc40       ?stopdemo@@YAXXZ           00480c40 f   clientgame.obj
 0001:0007fee0       ?curmodeattr@@YAXPAD@Z     00480ee0 f   clientgame.obj
 0001:00080270       ?_setskin@@YAHHH@Z         00481270 f   clientgame.obj
 0001:00080300       ?benchme@@YAXXZ            00481300 f   clientgame.obj
 0001:00080350       ?newteam@@YAXPAD@Z         00481350 f   clientgame.obj
 0001:000803f0       ?teamatoi@@YAHPBD@Z        004813f0 f   clientgame.obj
 0001:00080450       ?var_checkcurname@@YAXXZ   00481450 f   clientgame.obj
 0001:00080460       ?var_getcurname@@YAXXZ     00481460 f   clientgame.obj
 0001:000804b0       ?newname@@YAXPBD@Z         004814b0 f   clientgame.obj
 0001:000805a0       ?clearmuted@@YAXPAD@Z      004815a0 f   clientgame.obj
 0001:000805f0       ?listmuted@@YAXXZ          004815f0 f   clientgame.obj
 0001:00080840       ?muteplayer@@YAXPAH@Z      00481840 f   clientgame.obj
 0001:00080880       ?clearignored@@YAXPAH@Z    00481880 f   clientgame.obj
 0001:000808c0       ?listignored@@YAXXZ        004818c0 f   clientgame.obj
 0001:00080b10       ?ignore@@YAXPAH@Z          00481b10 f   clientgame.obj
 0001:00080b50       ?highlight@@YAPBDPBD@Z     00481b50 f   clientgame.obj
 0001:00080e20       ?colorpj@@YAPADH@Z         00481e20 f   clientgame.obj
 0001:00080e60       ?colorping@@YAPADH@Z       00481e60 f   clientgame.obj
 0001:00080ea0       ?duplicatename@@YA_NPAVplayerent@@PAD@Z 00481ea0 f   clientgame.obj
 0001:00080fb0       ?setskin@@YAXPAVplayerent@@HH@Z 00481fb0 f   clientgame.obj
 0001:00080ff0       ?getclientmode@@YAHXZ      00481ff0 f   clientgame.obj
 0001:00081000       ?mode@@YAXPAH@Z            00482000 f   clientgame.obj
 0001:00081010       ?zapplayer@@YAXAAPAVplayerent@@@Z 00482010 f   clientgame.obj
 0001:00081060       ?clearvote@@YAXXZ          00482060 f   clientgame.obj
 0001:000810b0       ?getclientmap@@YAPADXZ     004820b0 f   clientgame.obj
 0001:000810c0       ?callvote@@YAXHPBD00@Z     004820c0 f   clientgame.obj
 0001:00081340       ?colorname@@YAPADPAVplayerent@@PADPBD@Z 00482340 f   clientgame.obj
 0001:00081510       ?getclient@@YAPAVplayerent@@H@Z 00482510 f   clientgame.obj
 0001:00081540       ?smoverviewflyforbidden@@YA_NXZ 00482540 f   clientgame.obj
 0001:00081560       ?updatefollowplayer@@YAPAVplayerent@@H@Z 00482560 f   clientgame.obj
 0001:000817b0       ?localservertoclient@@YAXHPAEH_N@Z 004827b0 f   clients2c.obj
 0001:00081810       ?receivefile@@YAXPAEH@Z    00482810 f   clients2c.obj
 0001:00081c80       ?parsemessages@@YAXHPAVplayerent@@AAU?$databuf@E@@_N@Z 00482c80 f   clients2c.obj
 0001:000866e0       ?onChangeVote@@YAXHH@Z     004876e0 f   clients2c.obj
 0001:00086700       ?onCallVote@@YAXHHPAD0@Z   00487700 f   clients2c.obj
 0001:00086730       ?parsepositions@@YAXAAU?$databuf@E@@@Z 00487730 f   clients2c.obj
 0001:00087450       ?updatelagtime@@YAXPAVplayerent@@@Z 00488450 f   clients2c.obj
 0001:000874a0       ?updateplayerpos@@YAXPAVplayerent@@@Z 004884a0 f   clients2c.obj
 0001:00087570       ?changemapserv@@YA_NPADHHH@Z 00488570 f   clients2c.obj
 0001:00087770       ?neterr@@YAXPBD@Z          00488770 f   clients2c.obj
 0001:000877a0       ?servertoclient@@YAXHPAEH_N@Z 004887a0 f   clients2c.obj
 0001:00087800       ?clear@packetqueue@@QAEXXZ 00488800 f   packetqueue.obj
 0001:00087850       ??0packetqueue@@QAE@XZ     00488850 f   packetqueue.obj
 0001:00087870       ??1packetqueue@@QAE@XZ     00488870 f   packetqueue.obj
 0001:00087880       ?flushtolog@packetqueue@@QAE_NPBD@Z 00488880 f   packetqueue.obj
 0001:00087a00       ?queue@packetqueue@@QAEXPAU_ENetPacket@@@Z 00488a00 f   packetqueue.obj
 0001:00087bb0       ?initserver@@YAX_N@Z       00488bb0 f   server.obj
 0001:000884b0       ?restartlogging@@YAXXZ     004894b0 f   server.obj
 0001:00088580       ?quitproc@@YAXH@Z          00489580 f   server.obj
 0001:000885a0       ?processmasterinput@@YAXPBDH0@Z 004895a0 f   server.obj
 0001:00088770       ?extinfo_teamscorebuf@@YAXAAU?$databuf@E@@@Z 00489770 f   server.obj
 0001:00088940       ?extinfo_statsbuf@@YAXAAU?$databuf@E@@HHAAIAAU_ENetAddress@@AAUENetBuffer@@HPAH@Z 00489940 f   server.obj
 0001:00088c30       ?extinfo_cnbuf@@YAXAAU?$databuf@E@@H@Z 00489c30 f   server.obj
 0001:00088ca0       ?extping_uplinkstats@@YAXAAU?$databuf@E@@@Z 00489ca0 f   server.obj
 0001:00088cf0       ?extping_maprot@@YAXAAU?$databuf@E@@@Z 00489cf0 f   server.obj
 0001:00088d10       ?extping_serverinfo@@YAXAAU?$databuf@E@@0@Z 00489d10 f   server.obj
 0001:00088ea0       ?extping_namelist@@YAXAAU?$databuf@E@@@Z 00489ea0 f   server.obj
 0001:00088f10       ?getpongflags@@YAHI@Z      00489f10 f   server.obj
 0001:00088fa0       ?cleanupserver@@YAXXZ      00489fa0 f   server.obj
 0001:00089030       ?serverslice@@YAXI@Z       0048a030 f   server.obj
 0001:00089fd0       ?linequalitystats@@YAXH@Z  0048afd0 f   server.obj
 0001:0008a2e0       ?loggamestatus@@YAXPBD@Z   0048b2e0 f   server.obj
 0001:0008a8c0       ?sendworldstate@@YAXXZ     0048b8c0 f   server.obj
 0001:0008a930       ?resetserverifempty@@YAXXZ 0048b930 f   server.obj
 0001:0008a990       ?checkintermission@@YAXXZ  0048b990 f   server.obj
 0001:0008ab20       ?addclient@@YAAAUclient@@XZ 0048bb20 f   server.obj
 0001:0008ae30       ?process@@YAXPAU_ENetPacket@@HH@Z 0048be30 f   server.obj
 0001:0008fef0       ?polldeferredprocessing@@YAXXZ 00490ef0 f   server.obj
 0001:000901d0       ?deferredprocessingthread@@YAHPAX@Z 004911d0 f   server.obj
 0001:000902d0       ?checktype@@YAHHPAUclient@@@Z 004912d0 f   server.obj
 0001:00090350       ?forcedeath@@YAXPAUclient@@@Z 00491350 f   server.obj
 0001:000903b0       ?sendwelcome@@YAXPAUclient@@H@Z 004913b0 f   server.obj
 0001:00090450       ?welcomepacket@@YAXAAUpacketbuf@@H@Z 00491450 f   server.obj
 0001:00090910       ?welcomeinitclient@@YAXAAUpacketbuf@@H@Z 00491910 f   server.obj
 0001:00090960       ?sendinitclient@@YAXAAUclient@@@Z 00491960 f   server.obj
 0001:000909f0       ?putinitclient@@YAXAAUclient@@AAUpacketbuf@@@Z 004919f0 f   server.obj
 0001:00090ac0       ?sendservinfo@@YAXAAUclient@@@Z 00491ac0 f   server.obj
 0001:00090b40       ?restorescore@@YA_NAAUclient@@@Z 00491b40 f   server.obj
 0001:00090c80       ?sendresume@@YAXAAUclient@@_N@Z 00491c80 f   server.obj
 0001:00090cf0       ?sendiplist@@YAXHH@Z       00491cf0 f   server.obj
 0001:00090e50       ?disconnect_client@@YAXHH@Z 00491e50 f   server.obj
 0001:00090fe0       ?senddisconnectedscores@@YAXH@Z 00491fe0 f   server.obj
 0001:000911e0       ?changeclientrole@@YAXHHPAD_N@Z 004921e0 f   server.obj
 0001:000913f0       ?callvotepacket@@YAXHPAUvoteinfo@@@Z 004923f0 f   server.obj
 0001:000916a0       ?scallvote@@YA_NPAUvoteinfo@@PAU_ENetPacket@@@Z 004926a0 f   server.obj
 0001:00091bf0       ?scallvoteerr@@YAXPAUvoteinfo@@H@Z 00492bf0 f   server.obj
 0001:00091cf0       ?scallvotesuc@@YAXPAUvoteinfo@@@Z 00492cf0 f   server.obj
 0001:00091df0       ?svote@@YA_NHHPAU_ENetPacket@@@Z 00492df0 f   server.obj
 0001:00091eb0       ?kick_abuser@@YAXHAAH0H@Z  00492eb0 f   server.obj
 0001:00091f30       ?roleconf@@YAHH@Z          00492f30 f   server.obj
 0001:00091f90       ?sendserveropinfo@@YAXH@Z  00492f90 f   server.obj
 0001:00091fe0       ?serveroperator@@YAHXZ     00492fe0 f   server.obj
 0001:00092010       ?getbantype@@YAHH@Z        00493010 f   server.obj
 0001:00092110       ?addgban@@YAXPBD@Z         00493110 f   server.obj
 0001:00092290       ?checkgban@@YA_NI@Z        00493290 f   server.obj
 0001:000922c0       ?cleargbans@@YAXXZ         004932c0 f   server.obj
 0001:000922e0       ?startgame@@YAXPBDHH_N@Z   004932e0 f   server.obj
 0001:00092c80       ?startdemoplayback@@YAXPBD@Z 00493c80 f   server.obj
 0001:00092e50       ?resetserver@@YAXPBDHH@Z   00493e50 f   server.obj
 0001:00093040       ?refillteams@@YA_N_NH@Z    00494040 f   server.obj
 0001:00093380       ?shuffleteams@@YAXH@Z      00494380 f   server.obj
 0001:000936c0       ?calcscores@@YAHXZ         004946c0 f   server.obj
 0001:00093810       ?calcscoresmatch@@YAHXZ    00494810 f   server.obj
 0001:000938c0       ?calcscoresvita@@YAHXZ     004948c0 f   server.obj
 0001:00093960       ?updateclientteam@@YA_NHHH@Z 00494960 f   server.obj
 0001:00093e50       ?autospawncheck@@YAXXZ     00494e50 f   server.obj
 0001:00093f00       ?canspawn@@YAHPAUclient@@@Z 00494f00 f   server.obj
 0001:00094100       ?updatesdesc@@YAXPBDPAU_ENetAddress@@@Z 00495100 f   server.obj
 0001:000941a0       ?updatedescallowed@@YA_NXZ 004951a0 f   server.obj
 0001:000941c0       ?processevents@@YAXXZ      004951c0 f   server.obj
 0001:000943b0       ?clearevent@@YAXPAUclient@@@Z 004953b0 f   server.obj
 0001:00094440       ?processevent@@YAXPAUclient@@AAUakimboevent@@@Z 00495440 f   server.obj
 0001:00094480       ?processevent@@YAXPAUclient@@AAUreloadevent@@@Z 00495480 f   server.obj
 0001:000946f0       ?processevent@@YAXPAUclient@@AAUpickupevent@@@Z 004956f0 f   server.obj
 0001:00094750       ?processevent@@YAXPAUclient@@AAUsuicideevent@@@Z 00495750 f   server.obj
 0001:00094790       ?processevent@@YAXPAUclient@@AAUshotevent@@@Z 00495790 f   server.obj
 0001:00094c80       ?processevent@@YAXPAUclient@@AAUexplodeevent@@@Z 00495c80 f   server.obj
 0001:00094e70       ?serverdamage@@YAXPAUclient@@0HH_NABUvec@@@Z 00495e70 f   server.obj
 0001:00095520       ?checkitemspawns@@YAXH@Z   00496520 f   server.obj
 0001:000955a0       ?serverpickup@@YA_NHH@Z    004965a0 f   server.obj
 0001:000958d0       ?spawntime@@YAHH@Z         004968d0 f   server.obj
 0001:00095960       ?numplayers@@YAHXZ         00496960 f   server.obj
 0001:00095a80       ?sendvoicecomteam@@YAXHH@Z 00496a80 f   server.obj
 0001:00095be0       ?sendteamtext@@YAXPADHH@Z  00496be0 f   server.obj
 0001:00095da0       ?spamdetect@@YA_NPAUclient@@PAD@Z 00496da0 f   server.obj
 0001:00095ee0       ?arenacheck@@YAXXZ         00496ee0 f   server.obj
 0001:000963c0       ?distributespawns@@YAXXZ   004973c0 f   server.obj
 0001:00096460       ?distributeteam@@YAXH@Z    00497460 f   server.obj
 0001:000965d0       ?cmpscore@@YAHPBH0@Z       004975d0 f   server.obj
 0001:00096600       ?htf_forceflag@@YAXH@Z     00497600 f   server.obj
 0001:00096810       ?resetflag@@YAXH@Z         00497810 f   server.obj
 0001:00096830       ?sdropflag@@YAXH@Z         00497830 f   server.obj
 0001:00096850       ?ctfreset@@YAXXZ           00497850 f   server.obj
 0001:000968d0       ?clienthasflag@@YAHH@Z     004978d0 f   server.obj
 0001:00096930       ?flagaction@@YAXHHH@Z      00497930 f   server.obj
 0001:00096fd0       ?flagmessage@@YAXHHHH@Z    00497fd0 f   server.obj
 0001:00097040       ?sendflaginfo@@YAXHH@Z     00498040 f   server.obj
 0001:00097100       ?flagdistance@@YA_NAAUsflaginfo@@H@Z 00498100 f   server.obj
 0001:000972c0       ?check_ffire@@YAXPAUclient@@0H@Z 004982c0 f   server.obj
 0001:00097370       ?check_afk@@YAXXZ          00498370 f   server.obj
 0001:00097560       ?putflaginfo@@YAXAAUpacketbuf@@H@Z 00498560 f   server.obj
 0001:00097600       ?readdemo@@YAXXZ           00498600 f   server.obj
 0001:00097700       ?setupdemoplayback@@YAXXZ  00498700 f   server.obj
 0001:00097900       ?checkdemotransmissions@@YAXXZ 00498900 f   server.obj
 0001:00097b70       ?senddemo@@YAXHH@Z         00498b70 f   server.obj
 0001:00097dd0       ?listdemos@@YAXH@Z         00498dd0 f   server.obj
 0001:000980d0       ?donedemosort@@YAHPAPAUdemo_s@@0@Z 004990d0 f   server.obj
 0001:000980f0       ?setupdemorecord@@YAXXZ    004990f0 f   server.obj
 0001:000984e0       ?enddemorecord@@YAXXZ      004994e0 f   server.obj
 0001:00098840       ?demorecord_beginintermission@@YAXXZ 00499840 f   server.obj
 0001:000988e0       ?recordpacket@@YAXHPAU_ENetPacket@@@Z 004998e0 f   server.obj
 0001:00098910       ?recordpacket@@YAXHPAXH@Z  00499910 f   server.obj
 0001:00098930       ?writedemo@@YAXHPAXH@Z     00499930 f   server.obj
 0001:00098a80       ?demoworkerthread@@YAHPAX@Z 00499a80 f   server.obj
 0001:00099010       ?initdemoslot@@YAPAUdemo_s@@XZ 0049a010 f   server.obj
 0001:000993e0       ?sendspawn@@YAXPAUclient@@@Z 0049a3e0 f   server.obj
 0001:000994b0       ?sendservmsgverbose@@YAXPBDH@Z 0049a4b0 f   server.obj
 0001:000994d0       ?sendservmsg@@YAXPBDH@Z    0049a4d0 f   server.obj
 0001:000994f0       ?sendf@@YAXHHPBDZZ         0049a4f0 f   server.obj
 0001:00099cd0       ?findscore@@YAPAUsavedscore@@AAUclient@@_N@Z 0049acd0 f   server.obj
 0001:00099f00       ?findcnbyaddress@@YAHPAU_ENetAddress@@@Z 0049af00 f   server.obj
 0001:00099f40       ?setpausemode@@YAXH@Z      0049af40 f   server.obj
 0001:00099fb0       ?changemastermode@@YAXH@Z  0049afb0 f   server.obj
 0001:0009a070       ?changematchteamsize@@YAXH@Z 0049b070 f   server.obj
 0001:0009a190       ?sendservermode@@YAH_N@Z   0049b190 f   server.obj
 0001:0009a1d0       ?numteamclients@@YAPAHH@Z  0049b1d0 f   server.obj
 0001:0009a240       ?numactiveclients@@YAHXZ   0049b240 f   server.obj
 0001:0009a290       ?numnonlocalclients@@YAHXZ 0049b290 f   server.obj
 0001:0009a2a0       ?numlocalclients@@YAHXZ    0049b2a0 f   server.obj
 0001:0009a2b0       ?numclients@@YAHXZ         0049b2b0 f   server.obj
 0001:0009a2c0       ?countclients@@YAHH_N@Z    0049b2c0 f   server.obj
 0001:0009a310       ?getclientbysequence@@YAPAUclient@@H@Z 0049b310 f   server.obj
 0001:0009a350       ?buildworldstate@@YA_NXZ   0049b350 f   server.obj
 0001:0009a9a0       ?sendpacket@@YAXHHPAU_ENetPacket@@H_N@Z 0049b9a0 f   server.obj
 0001:0009aac0       ?cleanworldstate@@YAXPAU_ENetPacket@@@Z 0049bac0 f   server.obj
 0001:0009ab50       ?valid_client@@YA_NH@Z     0049bb50 f   server.obj
 0001:0009ab70       ?getservermap@@YAPAUservermap@@PBD@Z 0049bb70 f   server.obj
 0001:0009ac00       ?recalcgamesuggestions@servermaprot@@QAEPAUservermap@@H@Z 0049bc00 f   server.obj
 0001:0009b140       ?randommap@@YAPAUservermap@@XZ 0049c140 f   server.obj
 0001:0009b180       ?calcmappenalties@servermaprot@@QAEXXZ 0049c180 f   server.obj
 0001:0009b330       ?poll_serverthreads@@YAXXZ 0049c330 f   server.obj
 0001:0009bb10       ?pushvitasforsaving@@YA_N_N@Z 0049cb10 f   server.obj
 0001:0009bd20       ?readvitas@@YAHPBD@Z       0049cd20 f   server.obj
 0001:0009be20       ?parsevitas@@YAHPADH@Z     0049ce20 f   server.obj
 0001:0009c330       ?addcc@vita_s@@QAEXPBD@Z   0049d330 f   server.obj
 0001:0009c390       ?addip@vita_s@@QAEXI@Z     0049d390 f   server.obj
 0001:0009c3d0       ?addname@vita_s@@QAEXPBD@Z 0049d3d0 f   server.obj
 0001:0009c430       ?servparallfun@@YAXXZ      0049d430 f   server.obj
 0001:0009c480       ?initserverparameter@@YAXPBD0@Z 0049d480 f   server.obj
 0001:0009c500       ?initserverparameter@@YAXPBDH@Z 0049d500 f   server.obj
 0001:0009c530       ?addservparstr@@YA_NPBDHHH0PAD1P6AXXZ_N30@Z 0049d530 f   server.obj
 0001:0009c5f0       ?addservparint@@YAHPBDHHHQAPBDPAH2P6AXXZ_N40@Z 0049d5f0 f   server.obj
 0001:0009c6b0       ?findpattern@@YA_NPAD0@Z   0049d6b0 f   server.obj
 0001:0009c790       ?issimilar@@YA_NDD@Z       0049d790 f   server.obj
 0001:0009c850       ?filter_use_hx_modeinfo@@YAXXZ 0049d850 f   server.obj
 0001:0009c980       ?filterconfigset@@YAXPADPAX@Z 0049d980 f   server.obj
 0001:0009caa0       ?parse@configsetvalues@@QAE_NPAD@Z 0049daa0 f   server.obj
 0001:0009cba0       ?add@configsetvalues@@QAEXU1@@Z 0049dba0 f   server.obj
 0001:0009cc10       ?readserverconfigsthread@@YAHPAX@Z 0049dc10 f   server.obj
 0001:0009d080       ?process@serverconfigfile@@QAEXXZ 0049e080 f   server.obj
 0001:0009d140       ?trypreload@serverconfigfile@@QAEXXZ 0049e140 f   server.obj
 0001:0009d260       ?isbusy@serverconfigfile@@QAE_NXZ 0049e260 f   server.obj
 0001:0009d280       ?load@serverconfigfile@@UAE_NXZ 0049e280 f   server.obj
 0001:0009d450       ?init@serverconfigfile@@QAEXPBD_N@Z 0049e450 f   server.obj
 0001:0009d530       ?serverwritemap@@YA_NPBDHHHPAE@Z 0049e530 f   server.obj
 0001:0009d6e0       ?checklocalmap@@YAPBDPBD@Z 0049e6e0 f   server.obj
 0001:0009d770       ?readmapsthread@@YAHPAX@Z  0049e770 f   server.obj
 0001:0009dd20       ?tagmapfile@@YAXPBD0H@Z    0049ed20 f   server.obj
 0001:0009dd50       ?trymapfiles@@YAXPBD0H@Z   0049ed50 f   server.obj
 0001:0009df30       ?getmapfilenameindex@@YAHPBD0@Z 0049ef30 f   server.obj
 0001:0009dfa0       ?updateservermap@@YAXH_N@Z 0049efa0 f   server.obj
 0001:0009e080       ?servermapsortweight@@YAHPAPAUservermap@@0@Z 0049f080 f   server.obj
 0001:0009e0a0       ?servermapsortname@@YAHPAPAUservermap@@0@Z 0049f0a0 f   server.obj
 0001:0009e0e0       ?writevitas@@YAXPAUstream@@AAU?$vector@Uvitakey_s@@@@@Z 0049f0e0 f   server.obj
 0001:0009e460       ?enddemoplayback@@YAXXZ    0049f460 f   server.obj
 0001:0009e500       ?localdisconnect@@YAXXZ    0049f500 f   server.obj
 0001:0009e550       ?localconnect@@YAXXZ       0049f550 f   server.obj
 0001:0009e630       ?localclienttoserver@@YAXHPAU_ENetPacket@@@Z 0049f630 f   server.obj
 0001:0009e680       ?writeservercfg@@YAXXZ     0049f680 f   serverbrowser.obj
 0001:0009e7e0       ?updatefrommaster@@YAXPAH@Z 0049f7e0 f   serverbrowser.obj
 0001:0009e8f0       ?retrieveservers@@YAXAAU?$vector@D@@@Z 0049f8f0 f   serverbrowser.obj
 0001:0009ed00       ?progress_callback_retrieveservers@@YAHPAXM@Z 0049fd00 f   serverbrowser.obj
 0001:0009ed50       ?clearservers@@YAXXZ       0049fd50 f   serverbrowser.obj
 0001:0009edf0       ?serverinfokey@@YA_NPAXH_N@Z 0049fdf0 f   serverbrowser.obj
 0001:0009eea0       ?serverskey@@YA_NPAXH_N@Z  0049fea0 f   serverbrowser.obj
 0001:0009f450       ?refreshservers@@YAXPAX_N@Z 004a0450 f   serverbrowser.obj
 0001:000a0760       ?assignserverfavourites@@YA_NXZ 004a1760 f   serverbrowser.obj
 0001:000a0b90       ?serverbrowseralternativeviews@@YAXH@Z 004a1b90 f   serverbrowser.obj
 0001:000a0e30       ?favcatcheck@@YAPBDAAUserverinfo@@PBDPAD@Z 004a1e30 f   serverbrowser.obj
 0001:000a1010       ?favcatcheckkey@@YA_NAAUserverinfo@@PBD@Z 004a2010 f   serverbrowser.obj
 0001:000a1380       ?listfavcats@@YAXXZ        004a2380 f   serverbrowser.obj
 0001:000a13d0       ?addfavcategory@@YAXPBD@Z  004a23d0 f   serverbrowser.obj
 0001:000a17e0       ?favcatargname@@YAPBDPBDH@Z 004a27e0 f   serverbrowser.obj
 0001:000a1840       ?var_showonlyfavourites@@YAXXZ 004a2840 f   serverbrowser.obj
 0001:000a1870       ?matchplayername@@YA_NPBD@Z 004a2870 f   serverbrowser.obj
 0001:000a18e0       ?searchnickname@@YAXPBD@Z  004a28e0 f   serverbrowser.obj
 0001:000a19c0       ?sicompare@@YAHPAPAUserverinfo@@0@Z 004a29c0 f   serverbrowser.obj
 0001:000a1bf0       ?serversortprepare@@YAXXZ  004a2bf0 f   serverbrowser.obj
 0001:000a1c90       ?checkpings@@YAXXZ         004a2c90 f   serverbrowser.obj
 0001:000a2990       ?checkresolver@@YAXXZ      004a3990 f   serverbrowser.obj
 0001:000a2ba0       ?pingservers@@YAX_NPAUserverinfo@@@Z 004a3ba0 f   serverbrowser.obj
 0001:000a2ec0       ?chooseextping@@YAHPAUserverinfo@@@Z 004a3ec0 f   serverbrowser.obj
 0001:000a3160       ?findserverinfo@@YAPAUserverinfo@@U_ENetAddress@@@Z 004a4160 f   serverbrowser.obj
 0001:000a31b0       ?connectwithtimeout@@YAHIPBDAAU_ENetAddress@@@Z 004a41b0 f   serverbrowser.obj
 0001:000a33a0       ?connectthread@@YAHPAX@Z   004a43a0 f   serverbrowser.obj
 0001:000a34a0       ?resolvercheck@@YA_NPAPBDPAU_ENetAddress@@@Z 004a44a0 f   serverbrowser.obj
 0001:000a3550       ?resolverquery@@YAXPBD@Z   004a4550 f   serverbrowser.obj
 0001:000a35a0       ?resolverclear@@YAXXZ      004a45a0 f   serverbrowser.obj
 0001:000a3670       ?resolverstop@@YAXAAUresolverthread@@@Z 004a4670 f   serverbrowser.obj
 0001:000a36d0       ?resolverinit@@YAXXZ       004a46d0 f   serverbrowser.obj
 0001:000a37e0       ?resolverloop@@YAHPAX@Z    004a47e0 f   serverbrowser.obj
 0001:000a39e0       ?getconnectedserverinfo@@YAPAUserverinfo@@XZ 004a49e0 f   serverbrowser.obj
 0001:000a3a40       ?addserver@@YAXPBDHH@Z     004a4a40 f   serverbrowser.obj
 0001:000a3cf0       ?resolverwait@@YA_NPBDPAU_ENetAddress@@@Z 004a4cf0 f   serverbrowser.obj
 0001:000a4020       ?flushmasterinput@@YAXXZ   004a5020 f   serverms.obj
 0001:000a41c0       ?flushmasteroutput@@YAXXZ  004a51c0 f   serverms.obj
 0001:000a4240       ?processmasterinput@@YAXXZ 004a5240 f   serverms.obj
 0001:000a4370       ?requestmasterf@@YA_NPBDZZ 004a5370 f   serverms.obj
 0001:000a4430       ?requestmaster@@YA_NPBD@Z  004a5430 f   serverms.obj
 0001:000a44b0       ?disconnectmaster@@YAXXZ   004a54b0 f   serverms.obj
 0001:000a4510       ?connectmaster@@YAIXZ      004a5510 f   serverms.obj
 0001:000a47d0       ?serverms@@YAXHHHPADHABU_ENetAddress@@PAH22222HPBDH@Z 004a57d0 f   serverms.obj
 0001:000a50c0       ?servermsinit@@YAX_N@Z     004a60c0 f   serverms.obj
 0001:000a5340       ?transformclipentities@@YAXXZ 004a6340 f   editing.obj
 0001:000a5880       ?selectionwalk@@YAXPAD00@Z 004a6880 f   editing.obj
 0001:000a6490       ?selectionflip@@YAXPAD@Z   004a7490 f   editing.obj
 0001:000a6560       ?selectionrotate@@YAXPAH@Z 004a7560 f   editing.obj
 0001:000a6630       ?movemap@@YAXPAH00@Z       004a7630 f   editing.obj
 0001:000a6950       ?newent@@YAXPADPAM111111@Z 004a7950 f   editing.obj
 0001:000a6a50       ?edittagclip@@YAXPAD@Z     004a7a50 f   editing.obj
 0001:000a6b60       ?edittag@@YAXPAH@Z         004a7b60 f   editing.obj
 0001:000a6c10       ?var_fullbright@@YAXXZ     004a7c10 f   editing.obj
 0001:000a6c50       ?perlin@@YAXPAH00@Z        004a7c50 f   editing.obj
 0001:000a6dd0       ?stairs@@YAXPAH0@Z         004a7dd0 f   editing.obj
 0001:000a6e80       ?slope@@YAXPAH0@Z          004a7e80 f   editing.obj
 0001:000a6f50       ?arch@@YAXPAH@Z            004a7f50 f   editing.obj
 0001:000a7070       ?archvertex@@YAXPAH0PAD@Z  004a8070 f   editing.obj
 0001:000a70f0       ?setvdelta@@YAXPAH@Z       004a80f0 f   editing.obj
 0001:000a71a0       ?equalize@@YAXPAH@Z        004a81a0 f   editing.obj
 0001:000a7260       ?corner@@YAXXZ             004a8260 f   editing.obj
 0001:000a7270       ?solid@@YAXPAH@Z           004a8270 f   editing.obj
 0001:000a7290       ?heightfield@@YAXPAH@Z     004a8290 f   editing.obj
 0001:000a72b0       ?edittype@@YAXH@Z          004a82b0 f   editing.obj
 0001:000a73a0       ?replace@@YAXXZ            004a83a0 f   editing.obj
 0001:000a7520       ?settex@@YAXPAH0@Z         004a8520 f   editing.obj
 0001:000a7630       ?edittex@@YAXPAH0@Z        004a8630 f   editing.obj
 0001:000a7770       ?renderhudtexturepreview@@YAXHH_N@Z 004a8770 f   editing.obj
 0001:000a79d0       ?editheight@@YAXPAH0@Z     004a89d0 f   editing.obj
 0001:000a7aa0       ?editdrag@@YAX_N@Z         004a8aa0 f   editing.obj
 0001:000a7b90       ?edittexturestack@@YAXPADPAH@Z 004a8b90 f   editing.obj
 0001:000a7c30       ?tofronttex@@YAXXZ         004a8c30 f   editing.obj
 0001:000a7c80       ?paste@@YAXXZ              004a8c80 f   editing.obj
 0001:000a81e0       ?copy@@YAXXZ               004a91e0 f   editing.obj
 0001:000a8470       ?resetcopybuffers@@YAXXZ   004a9470 f   editing.obj
 0001:000a8500       ?backupeditundo@@YAHAAU?$vector@E@@HH@Z 004a9500 f   editing.obj
 0001:000a8650       ?rlencodeundo@@YAHHAAU?$vector@E@@PAUblock@@@Z 004a9650 f   editing.obj
 0001:000a8720       ?restoreeditundo@@YAXAAU?$databuf@E@@@Z 004a9720 f   editing.obj
 0001:000a8920       ?editredo@@YAXXZ           004a9920 f   editing.obj
 0001:000a8a10       ?gotoundolevel@@YAXPAD@Z   004a9a10 f   editing.obj
 0001:000a8b30       ?editundo@@YAXXZ           004a9b30 f   editing.obj
 0001:000a8c20       ?netblockpaste@@YAXABUblock@@HH_N@Z 004a9c20 f   editing.obj
 0001:000a9420       ?gotoposition@@YAXPAD0000@Z 004aa420 f   editing.obj
 0001:000a9750       ?gotoentity@@YAXPAH@Z      004aa750 f   editing.obj
 0001:000a9890       ?restoreposition@@YAXAAUblock@@@Z 004aa890 f   editing.obj
 0001:000a98d0       ?restoreposition@@YAXQAF@Z 004aa8d0 f   editing.obj
 0001:000a99a0       ?makeundo@@YAXAAUblock@@@Z 004aa9a0 f   editing.obj
 0001:000a99f0       ?storeposition@@YAXQAF@Z   004aa9f0 f   editing.obj
 0001:000a9a40       ?pruneundos@@YAXH@Z        004aaa40 f   editing.obj
 0001:000a9d80       ?makesel@@YAX_N@Z          004aad80 f   editing.obj
 0001:000a9ea0       ?checkselections@@YAXXZ    004aaea0 f   editing.obj
 0001:000aa000       ?resetselections@@YAXXZ    004ab000 f   editing.obj
 0001:000aa020       ?addselection@@YAXHHHHH@Z  004ab020 f   editing.obj
 0001:000aa180       ?noselection@@YA_NXZ       004ab180 f   editing.obj
 0001:000aa1b0       ?correctsel@@YA_NAAUblock@@@Z 004ab1b0 f   editing.obj
 0001:000aa210       ?edittoggle@@YAXXZ         004ab210 f   editing.obj
 0001:000aa220       ?var_showeditingsettings@@YAXXZ 004ab220 f   editing.obj
 0001:000aa260       ?var_editingsettingsvisibletime@@YAXXZ 004ab260 f   editing.obj
 0001:000aa2c0       ?editheightxy@@YAX_NHAAUblock@@@Z 004ab2c0 f   editing.obj
 0001:000aa3e0       ?edittexxy@@YAXHHAAUblock@@@Z 004ab3e0 f   editing.obj
 0001:000aa5b0       ?edittypexy@@YAXHAAUblock@@@Z 004ab5b0 f   editing.obj
 0001:000aa6b0       ?setvdeltaxy@@YAXHAAUblock@@@Z 004ab6b0 f   editing.obj
 0001:000aa7c0       ?editequalisexy@@YAX_NAAUblock@@@Z 004ab7c0 f   editing.obj
 0001:000aaa70       ?edittagxy@@YAXHHAAUblock@@@Z 004aba70 f   editing.obj
 0001:000aab80       ?slopexy@@YAXHHAAUblock@@@Z 004abb80 f   editing.obj
 0001:000aacf0       ?stairsxy@@YAXHHAAUblock@@@Z 004abcf0 f   editing.obj
 0001:000aae70       ?selfliprotate@@YAXAAUblock@@H@Z 004abe70 f   editing.obj
 0001:000ab0c0       ?archxy@@YAXHPAHAAUblock@@@Z 004ac0c0 f   editing.obj
 0001:000ab210       ?netblockpastexy@@YAXPAU?$databuf@E@@HHHHH@Z 004ac210 f   editing.obj
 0001:000ab310       ?reseteditor@@YAXXZ        004ac310 f   editing.obj
 0001:000ab420       ?toggleedit@@YAX_N@Z       004ac420 f   editing.obj
 0001:000ab660       ?noteditmode@@YA_NPBD@Z    004ac660 f   editing.obj
 0001:000ab6b0       ?editinfo@@YAPADXZ         004ac6b0 f   editing.obj
 0001:000ab930       ?rendereditingsettings@@YAXXZ 004ac930 f   editing.obj
 0001:000abdd0       ?renderhudtexturepreviews@@YAXXZ 004acdd0 f   editing.obj
 0001:000abe60       ?cursorupdate@@YAXXZ       004ace60 f   editing.obj
 0001:000accd0       ?perlinnoise_2D@@YAMMMHM@Z 004adcd0 f   rndmap.obj
 0001:000ace80       ?interpolatednoise@@YAMMMH@Z 004ade80 f   rndmap.obj
 0001:000acf80       ?interpolate@@YAMMMM@Z     004adf80 f   rndmap.obj
 0001:000acfd0       ?smoothednoise@@YAMHHH@Z   004adfd0 f   rndmap.obj
 0001:000ad250       ?noise@@YAMHHH@Z           004ae250 f   rndmap.obj
 0001:000ad2a0       ?perlinarea@@YAXAAUblock@@HHH@Z 004ae2a0 f   rndmap.obj
 0001:000ad5a0       ?showmapstats@@YAXXZ       004ae5a0 f   world.obj
 0001:000ad5e0       ?mapareacheck@@YAXPAD@Z    004ae5e0 f   world.obj
 0001:000ad800       ?mapmrproper@@YAX_N@Z      004ae800 f   world.obj
 0001:000ae090       ?countperfectmips@@YAXHHHHPAH@Z 004af090 f   world.obj
 0001:000ae140       ?newmap@@YAXPAH@Z          004af140 f   world.obj
 0001:000ae280       ?mapshrink@@YAXXZ          004af280 f   world.obj
 0001:000ae2b0       ?mapenlarge@@YAXXZ         004af2b0 f   world.obj
 0001:000ae2e0       ?mapsize@@YAXXZ            004af2e0 f   world.obj
 0001:000ae340       ?sqrdefault@@YAXPAUsqr@@@Z 004af340 f   world.obj
 0001:000ae370       ?setupworld@@YAXH@Z        004af370 f   world.obj
 0001:000ae410       ?nextplayerstart@@YAXPAH@Z 004af410 f   world.obj
 0001:000ae5d0       ?scalelights@@YAXHH@Z      004af5d0 f   world.obj
 0001:000ae720       ?scalecomp@@YAXAAEH@Z      004af720 f   world.obj
 0001:000ae750       ?enumtodoentities@@YAXXZ   004af750 f   world.obj
 0001:000ae7f0       ?addtodoentity@@YAXHPBD@Z  004af7f0 f   world.obj
 0001:000ae870       ?cleartodoentities@@YAXPBD@Z 004af870 f   world.obj
 0001:000ae980       ?enumentities@@YAXPAD@Z    004af980 f   world.obj
 0001:000aea30       ?editentity@@YAXPAPADH@Z   004afa30 f   world.obj
 0001:000aed40       ?addentity@@YAXPAD@Z       004afd40 f   world.obj
 0001:000aee10       ?deleteentity@@YAXPAD@Z    004afe10 f   world.obj
 0001:000aeef0       ?clearents@@YAXPAD@Z       004afef0 f   world.obj
 0001:000af000       ?entset@@YAXPADPAM111111@Z 004b0000 f   world.obj
 0001:000af0a0       ?findtype@@YAHPBD@Z        004b00a0 f   world.obj
 0001:000af120       ?unlistdeletedentity@@YAXPAD@Z 004b0120 f   world.obj
 0001:000af1f0       ?getdeletedentities@@YAXXZ 004b01f0 f   world.obj
 0001:000af290       ?undelent@@YAXPAD@Z        004b0290 f   world.obj
 0001:000af4d0       ?delent@@YAXXZ             004b04d0 f   world.obj
 0001:000af5a0       ?deletesoundentity@@YAXAAUentity@@@Z 004b05a0 f   world.obj
 0001:000af610       ?getentattr@@YAXPAH0@Z     004b0610 f   world.obj
 0001:000af720       ?getenttype@@YAXXZ         004b0720 f   world.obj
 0001:000af750       ?entproperty@@YAXPAHPAM0@Z 004b0750 f   world.obj
 0001:000af9c0       ?intersectangular@@YA_NABUvec@@U1@1MAAM@Z 004b09c0 f   world.obj
 0001:000afa80       ?var_pointatent@@YAXXZ     004b0a80 f   world.obj
 0001:000afad0       ?_pointatent@@YAX_N@Z      004b0ad0 f   world.obj
 0001:000afb60       ?closestenttype@@YAXPAD@Z  004b0b60 f   world.obj
 0001:000afc20       ?remipmore@@YAXABUblock@@H@Z 004b0c20 f   world.obj
 0001:000afc90       ?closestent@@YAHXZ         004b0c90 f   world.obj
 0001:000b0000       ?remipgenerous@@YAXABUblock@@@Z 004b1000 f   world.obj
 0001:000b0080       ?newentity@@YAXHHHHPBDMMMMMMM@Z 004b1080 f   world.obj
 0001:000b0430       ?worldbordercheck@@YA_NHHHHHH@Z 004b1430 f   world.obj
 0001:000b04f0       ?empty_world@@YA_NH_N@Z    004b14f0 f   world.obj
 0001:000b0b20       ?findentity@@YAHHHE@Z      004b1b20 f   world.obj
 0001:000b0b80       ?findentity@@YAHHH@Z       004b1b80 f   world.obj
 0001:000b0bd0       ?calcworldvisibility@@YAXXZ 004b1bd0 f   world.obj
 0001:000b0fc0       ?clearworldvisibility@@YAXXZ 004b1fc0 f   world.obj
 0001:000b0fe0       ?remip@@YAXABUblock@@H@Z   004b1fe0 f   world.obj
 0001:000b14e0       ?loadallxmaps@@YAHXZ       004b24e0 f   worldio.obj
 0001:000b1870       ?loadxmap@@YAXPBD@Z        004b2870 f   worldio.obj
 0001:000b1a10       ?writeallxmaps@@YAXXZ      004b2a10 f   worldio.obj
 0001:000b1a80       ?writexmap@@YAXPAUxmap@@PBD@Z 004b2a80 f   worldio.obj
 0001:000b1b60       ?xmapfilename@@YAPADPBD0@Z 004b2b60 f   worldio.obj
 0001:000b1b90       ?restorexmap@@YAXPAPADH@Z  004b2b90 f   worldio.obj
 0001:000b27a0       ?getxmapbynick@@YAPAUxmap@@PBDPAH_N@Z 004b37a0 f   worldio.obj
 0001:000b2830       ?xmapdescstring@@YAPBDPAUxmap@@_N@Z 004b3830 f   worldio.obj
 0001:000b28a0       ?xmapdelete@@YAXAAPAUxmap@@@Z 004b38a0 f   worldio.obj
 0001:000b28d0       ?validxmapname@@YA_NPBD@Z  004b38d0 f   worldio.obj
 0001:000b2980       ?hexbinwrite@@YAXPAUstream@@PAXH_N@Z 004b3980 f   worldio.obj
 0001:000b2a60       ?enumfiles@@YAXPAD0@Z      004b3a60 f   worldio.obj
 0001:000b2b60       ?getfiledesc@@YAPADPBD00@Z 004b3b60 f   worldio.obj
 0001:000b2f50       ?var_mapoverride_nostencilshadows@@YAXXZ 004b3f50 f   worldio.obj
 0001:000b2f90       ?var_mapoverride_limitwaveheight@@YAXXZ 004b3f90 f   worldio.obj
 0001:000b2fd0       ?var_mapoverride_nowaterreflect@@YAXXZ 004b3fd0 f   worldio.obj
 0001:000b3010       ?changemapflag@@YAXHH@Z    004b4010 f   worldio.obj
 0001:000b30f0       ?showmapdims@@YAXXZ        004b40f0 f   worldio.obj
 0001:000b3150       ?save_world9@@YAXPAD@Z     004b4150 f   worldio.obj
 0001:000b3570       ?cmp_npe@@YAHPBUnumbered_persistent_entity@@0@Z 004b4570 f   worldio.obj
 0001:000b3580       ?rebuildtexlists@@YAXXZ    004b4580 f   worldio.obj
 0001:000b3710       ?var_mapinfo_comment@@YAXXZ 004b4710 f   worldio.obj
 0001:000b3720       ?var_mapinfo_license@@YAXXZ 004b4720 f   worldio.obj
 0001:000b3730       ?mapartist@@YAXPAD@Z       004b4730 f   worldio.obj
 0001:000b3a10       ?modeinfo@@YAXPAD0@Z       004b4a10 f   worldio.obj
 0001:000b4440       ?getvantagepoint@@YA_NQAF@Z 004b5440 f   worldio.obj
 0001:000b4550       ?setvantagepoint@@YAXXZ    004b5550 f   worldio.obj
 0001:000b47d0       ?clearvantagepoint@@YA_NXZ 004b57d0 f   worldio.obj
 0001:000b4870       ?getcurrentmapconfig@@YAXAAU?$vector@D@@_N@Z 004b5870 f   worldio.obj
 0001:000b4b80       ?extractconfigfile@@YAXXZ  004b5b80 f   worldio.obj
 0001:000b4cb0       ?embedconfigfile@@YA_NXZ   004b5cb0 f   worldio.obj
 0001:000b4e90       ?packheaderextras@@YA?AU?$databuf@E@@H@Z 004b5e90 f   worldio.obj
 0001:000b5380       ?parseheaderextra@@YAX_NH@Z 004b6380 f   worldio.obj
 0001:000b5510       ?unpackheaderextra@@YAXPAEH@Z 004b6510 f   worldio.obj
 0001:000b5670       ?findheaderextra@@YAHH@Z   004b6670 f   worldio.obj
 0001:000b56a0       ?listheaderextras@@YAXXZ   004b66a0 f   worldio.obj
 0001:000b5700       ?deleteheaderextra@@YAXH@Z 004b6700 f   worldio.obj
 0001:000b5740       ?voptimize@@YAXXZ          004b6740 f   worldio.obj
 0001:000b57e0       ?xmapbackup@@YAXPBD0@Z     004b67e0 f   worldio.obj
 0001:000b5880       ?clearheaderextras@@YAXXZ  004b6880 f   worldio.obj
 0001:000b5900       ?rldecodecubes@@YA_NAAU?$databuf@E@@PAUsqr@@HH_N@Z 004b6900 f   worldio.obj
 0001:000b5cf0       ?rlencodecubes@@YAXAAU?$vector@E@@PAUsqr@@H_N@Z 004b6cf0 f   worldio.obj
 0001:000b60d0       ?setnames@@YAPAPBDPBD@Z    004b70d0 f   worldio.obj
 0001:000b61b0       ?load_world@@YAHPAD@Z      004b71b0 f   worldio.obj
 0001:000b77b0       ?writemap@@YAXPBDHPAE@Z    004b87b0 f   worldio.obj
 0001:000b7900       ?writecfggz@@YAXPBDHHPAE@Z 004b8900 f   worldio.obj
 0001:000b79c0       ?gotovantagepoint@@YA_NXZ  004b89c0 f   worldio.obj
 0001:000b7af0       ?setmapinfo@@YAXPBD0@Z     004b8af0 f   worldio.obj
 0001:000b7bc0       ?save_world@@YAXPAD_N1@Z   004b8bc0 f   worldio.obj
 0001:000b82d0       ?readmap@@YAPAEPBDPAH1@Z   004b92d0 f   worldio.obj
 0001:000b83a0       ?readmcfggz@@YAPAEPBDPAH1@Z 004b93a0 f   worldio.obj
 0001:000b84c0       ?automapconfig@@YAXXZ      004b94c0 f   worldio.obj
 0001:000b84f0       ?flagmapconfigerror@@YAXH@Z 004b94f0 f   worldio.obj
 0001:000b8510       ?flagmapconfigchange@@YAXXZ 004b9510 f   worldio.obj
 0001:000b8570       ?adddynlight@@YAXPAVphysent@@ABUvec@@HHHEEE@Z 004b9570 f   worldlight.obj
 0001:000b8710       ?preparedynlight@@YAXAAUdlight@@@Z 004b9710 f   worldlight.obj
 0001:000b8890       ?var_ambient@@YAXXZ        004b9890 f   worldlight.obj
 0001:000b88d0       ?postlightarea@@YAXABUblock@@@Z 004b98d0 f   worldlight.obj
 0001:000b8990       ?postlightarealine@@YAXPAUsqr@@H@Z 004b9990 f   worldlight.obj
 0001:000b8bc0       ?calclightsource@@YAXABUpersistent_entity@@M_N@Z 004b9bc0 f   worldlight.obj
 0001:000b8d10       ?lightray@@YAXMMABUpersistent_entity@@M_N@Z 004b9d10 f   worldlight.obj
 0001:000b92f0       ?freeblockp@@YAXPAUblock@@@Z 004ba2f0 f   worldlight.obj
 0001:000b9300       ?blockcopy@@YAPAUblock@@ABU1@@Z 004ba300 f   worldlight.obj
 0001:000b93b0       ?blockpaste@@YAXABUblock@@HH_NPAE@Z 004ba3b0 f   worldlight.obj
 0001:000b9540       ?blockpaste@@YAXABUblock@@@Z 004ba540 f   worldlight.obj
 0001:000b9620       ?freeblock@@YAXAAPAUblock@@@Z 004ba620 f   worldlight.obj
 0001:000b9640       ?blocktexusage@@YAXABUblock@@PAE@Z 004ba640 f   worldlight.obj
 0001:000b9680       ?fullbrightlight@@YAXH@Z   004ba680 f   worldlight.obj
 0001:000b96c0       ?calclight@@YAXXZ          004ba6c0 f   worldlight.obj
 0001:000b98b0       ?removedynlights@@YAXPAVphysent@@@Z 004ba8b0 f   worldlight.obj
 0001:000b9960       ?cleardynlights@@YAXXZ     004ba960 f   worldlight.obj
 0001:000b99b0       ?dodynlights@@YAXXZ        004ba9b0 f   worldlight.obj
 0001:000b9c80       ?undodynlights@@YAXXZ      004bac80 f   worldlight.obj
 0001:000b9dd0       ?computeraytable@@YAXMMM@Z 004badd0 f   worldocull.obj
 0001:000ba150       ?toggleocull@@YAXXZ        004bb150 f   worldocull.obj
 0001:000ba160       ?isoccluded@@YAHMMMMM@Z    004bb160 f   worldocull.obj
 0001:000ba580       ?disableraytable@@YAXXZ    004bb580 f   worldocull.obj
 0001:000ba5c0       ?distlod@@YAXAAH0HM@Z      004bb5c0 f   worldrender.obj
 0001:000ba640       ?render_seg_new@@YAXMMMHHHHH@Z 004bb640 f   worldrender.obj
 0001:000bb480       ?issemi@@YA_NHHHHHHH@Z     004bc480 f   worldrender.obj
 0001:000bb560       ?render_wall@@YAXPAUsqr@@0HHHHH00_NH@Z 004bc560 f   worldrender.obj
 0001:000bb850       ?lod_factor@@YAHXZ         004bc850 f   worldrender.obj
 0001:000bb860       ?render_world@@YAXMMMMHHMMHH@Z 004bc860 f   worldrender.obj
 0001:000bbc40       ?entstats_@@YAXXZ          004bcc40 f   entities.obj
 0001:000bbff0       ?flagscore@@YAXH@Z         004bcff0 f   entities.obj
 0001:000bc020       ?flagreturn@@YAXH@Z        004bd020 f   entities.obj
 0001:000bc050       ?flagpickup@@YAXH@Z        004bd050 f   entities.obj
 0001:000bc0d0       ?var_nextprimary@@YAXXZ    004bd0d0 f   entities.obj
 0001:000bc1f0       ?trypickupflag@@YAXHPAVplayerent@@@Z 004bd1f0 f   entities.obj
 0001:000bc2f0       ?trypickup@@YAXHPAVplayerent@@@Z 004bd2f0 f   entities.obj
 0001:000bc3a0       ?renderentarrow@@YAXABUentity@@ABUvec@@M@Z 004bd3a0 f   entities.obj
 0001:000bc3c0       ?renderentarrow@@YAXABUentity@@ABUvec@@MQAM@Z 004bd3c0 f   entities.obj
 0001:000bc8e0       ?renderclip@@YAXHHHMMMMMH@Z 004bd8e0 f   entities.obj
 0001:000bcc50       ?renderent@@YAXAAUentity@@@Z 004bdc50 f   entities.obj
 0001:000bcda0       ?var_edithideentmask@@YAXXZ 004bdda0 f   entities.obj
 0001:000bcdb0       ?clampentityattributes@@YAXAAUpersistent_entity@@@Z 004bddb0 f   entities.obj
 0001:000bcee0       ?toucheditingsettings@@YAX_N@Z 004bdee0 f   entities.obj
 0001:000bcf60       ?formatentityattributes@@YAPBDABUpersistent_entity@@_N@Z 004bdf60 f   entities.obj
 0001:000bd320       ?resetpickups@@YAXH@Z      004be320 f   entities.obj
 0001:000bd3e0       ?setpickupspawn@@YAXH_N@Z  004be3e0 f   entities.obj
 0001:000bd410       ?pickupeffects@@YAXHPAVplayerent@@@Z 004be410 f   entities.obj
 0001:000bd660       ?flagstolen@@YAXHH@Z       004be660 f   entities.obj
 0001:000bd6b0       ?flagdropped@@YAXHMMM@Z    004be6b0 f   entities.obj
 0001:000bd9b0       ?flaginbase@@YAXH@Z        004be9b0 f   entities.obj
 0001:000bda20       ?flagidle@@YAXH@Z          004bea20 f   entities.obj
 0001:000bda40       ?checkitems@@YAXPAVplayerent@@@Z 004bea40 f   entities.obj
 0001:000bdee0       ?syncentchanges@@YAX_N@Z   004beee0 f   entities.obj
 0001:000bdfa0       ?tryflagdrop@@YAX_N@Z      004befa0 f   entities.obj
 0001:000be140       ?rendermapmodels@@YAXXZ    004bf140 f   entities.obj
 0001:000be2b0       ?renderentities@@YAXXZ     004bf2b0 f   entities.obj
 0001:000be6f0       ?rendereditentities@@YAXXZ 004bf6f0 f   entities.obj
 0001:000beec0       ?mousemove@@YAXHH@Z        004bfec0 f   physics.obj
 0001:000bf0d0       ?fixcamerarange@@YAXPAVphysent@@@Z 004c00d0 f   physics.obj
 0001:000bf150       ?crouch@@YAX_N@Z           004c0150 f   physics.obj
 0001:000bf180       ?jumpn@@YAX_N@Z            004c0180 f   physics.obj
 0001:000bf210       ?attack@@YAX_N@Z           004c0210 f   physics.obj
 0001:000bf350       ?right@@YAX_N@Z            004c0350 f   physics.obj
 0001:000bf3a0       ?left@@YAX_N@Z             004c03a0 f   physics.obj
 0001:000bf400       ?forward@@YAX_N@Z          004c0400 f   physics.obj
 0001:000bf460       ?backward@@YAX_N@Z         004c0460 f   physics.obj
 0001:000bf4b0       ?movebounceent@@YAXPAVbounceent@@H_N@Z 004c04b0 f   physics.obj
 0001:000bf4d0       ?interppos@@YAXPAVphysent@@@Z 004c04d0 f   physics.obj
 0001:000bf580       ?var_maxrolleffect@@YAXXZ  004c0580 f   physics.obj
 0001:000bf5a0       ?var_maxroll@@YAXXZ        004c05a0 f   physics.obj
 0001:000bf5c0       ?mmcollide@@YA_NPAVphysent@@AAM1@Z 004c05c0 f   physics.obj
 0001:000bfc10       ?cornertest@@YAHHHAAH00AAPAUsqr@@1@Z 004c0c10 f   physics.obj
 0001:000bfd70       ?plcollide@@YA_NPAVphysent@@0AAM11@Z 004c0d70 f   physics.obj
 0001:000bfec0       ?objcollide@@YA_NPAVphysent@@ABUvec@@MM@Z 004c0ec0 f   physics.obj
 0001:000bff60       ?resizephysent@@YAXPAVphysent@@HHMM@Z 004c0f60 f   physics.obj
 0001:000c00c0       ?updatecrouch@@YAXPAVplayerent@@_N@Z 004c10c0 f   physics.obj
 0001:000c0150       ?moveplayer@@YAXPAVphysent@@H_N@Z 004c1150 f   physics.obj
 0001:000c0270       ?physicsframe@@YAXXZ       004c1270 f   physics.obj
 0001:000c0300       ?entinmap@@YAXPAVphysent@@@Z 004c1300 f   physics.obj
 0001:000c0470       ?collide@@YA_NPAVphysent@@_NMM@Z 004c1470 f   physics.obj
 0001:000c0b50       ?raycube@@YAMABUvec@@0AAU1@@Z 004c1b50 f   physics.obj
 0001:000c1000       ?raycubelos@@YA_NABUvec@@0M@Z 004c2000 f   physics.obj
 0001:000c10e0       ?moveplayer@@YAXPAVphysent@@H_NH@Z 004c20e0 f   physics.obj
 0001:000c2850       ?winners@@YAXXZ            004c3850 f   scoreboard.obj
 0001:000c2c20       ?asciiscores@@YAPBD_N@Z    004c3c20 f   scoreboard.obj
 0001:000c3540       ?renderscores@@YAXPAX_N@Z  004c4540 f   scoreboard.obj
 0001:000c45b0       ?reorderscorecolumns@@YAXXZ 004c55b0 f   scoreboard.obj
 0001:000c4770       ?renderteamscore@@YAXPAUteamscore@@@Z 004c5770 f   scoreboard.obj
 0001:000c48e0       ?renderscore@@YAXPAVplayerent@@@Z 004c58e0 f   scoreboard.obj
 0001:000c4bf0       ?renderdiscscores@@YAXH@Z  004c5bf0 f   scoreboard.obj
 0001:000c4fb0       ?sortcolumns@@YAHPAUcoldata@@0@Z 004c5fb0 f   scoreboard.obj
 0001:000c4fd0       ?var_sc_name@@YAXXZ        004c5fd0 f   scoreboard.obj
 0001:000c4fe0       ?var_sc_clientnum@@YAXXZ   004c5fe0 f   scoreboard.obj
 0001:000c4ff0       ?var_sc_lag@@YAXXZ         004c5ff0 f   scoreboard.obj
 0001:000c5000       ?var_sc_ratio@@YAXXZ       004c6000 f   scoreboard.obj
 0001:000c5010       ?var_sc_deaths@@YAXXZ      004c6010 f   scoreboard.obj
 0001:000c5020       ?var_sc_frags@@YAXXZ       004c6020 f   scoreboard.obj
 0001:000c5030       ?var_sc_flags@@YAXXZ       004c6030 f   scoreboard.obj
 0001:000c5070       ?showscores@@YAX_N@Z       004c6070 f   scoreboard.obj
 0001:000c50a0       ?consolescores@@YAXXZ      004c60a0 f   scoreboard.obj
 0001:000c50c0       ?calcteamscores@@YAXQAH@Z  004c60c0 f   scoreboard.obj
 0001:000c5340       ?checkakimbo@@YAXXZ        004c6340 f   weapon.obj
 0001:000c54c0       ?renderstats@knife@@UAEXXZ 004c64c0 f   weapon.obj
 0001:000c54d0       ?attackfx@knife@@UAEXABUvec@@0H@Z 004c64d0 f   weapon.obj
 0001:000c54e0       ?modelanim@knife@@UAEHXZ   004c64e0 f   weapon.obj
 0001:000c5520       ?attack@knife@@UAE_NAAUvec@@@Z 004c6520 f   weapon.obj
 0001:000c5740       ?flashtime@knife@@UBEHXZ   004c6740 f   weapon.obj
 0001:000c5750       ??0knife@@QAE@PAVplayerent@@@Z 004c6750 f   weapon.obj
 0001:000c57a0       ?timerout@akimbo@@QAE_NXZ  004c67a0 f   weapon.obj
 0001:000c57c0       ?renderhudmodel@akimbo@@UAEXXZ 004c67c0 f   weapon.obj
 0001:000c57e0       ?reset@akimbo@@UAEXXZ      004c67e0 f   weapon.obj
 0001:000c5800       ?updatetimers@akimbo@@UAEXH@Z 004c6800 f   weapon.obj
 0001:000c5830       ?selectable@akimbo@@UAE_NXZ 004c6830 f   weapon.obj
 0001:000c5880       ?onselecting@akimbo@@UAEX_N@Z 004c6880 f   weapon.obj
 0001:000c58a0       ?onammopicked@akimbo@@UAEXXZ 004c68a0 f   weapon.obj
 0001:000c5940       ?attackfx@akimbo@@UAEXABUvec@@0H@Z 004c6940 f   weapon.obj
 0001:000c5a20       ??0akimbo@@QAE@PAVplayerent@@@Z 004c6a20 f   weapon.obj
 0001:000c5a80       ?selectable@pistol@@UAE_NXZ 004c6a80 f   weapon.obj
 0001:000c5ad0       ??0pistol@@QAE@PAVplayerent@@@Z 004c6ad0 f   weapon.obj
 0001:000c5b20       ?selectable@assaultrifle@@UAE_NXZ 004c6b20 f   weapon.obj
 0001:000c5b70       ?dynrecoil@assaultrifle@@UAEMXZ 004c6b70 f   weapon.obj
 0001:000c5bb0       ?dynspread@assaultrifle@@UAEHXZ 004c6bb0 f   weapon.obj
 0001:000c5bf0       ??0assaultrifle@@QAE@PAVplayerent@@@Z 004c6bf0 f   weapon.obj
 0001:000c5c40       ?selectable@carbine@@UAE_NXZ 004c6c40 f   weapon.obj
 0001:000c5c90       ??0carbine@@QAE@PAVplayerent@@@Z 004c6c90 f   weapon.obj
 0001:000c5ce0       ?setscope@sniperrifle@@QAEX_N@Z 004c6ce0 f   weapon.obj
 0001:000c5d30       ?renderaimhelp@sniperrifle@@UAEX_N@Z 004c6d30 f   weapon.obj
 0001:000c5da0       ?renderhudmodel@sniperrifle@@UAEXXZ 004c6da0 f   weapon.obj
 0001:000c5dc0       ?onownerdies@sniperrifle@@UAEXXZ 004c6dc0 f   weapon.obj
 0001:000c5de0       ?ondeselecting@sniperrifle@@UAEXXZ 004c6de0 f   weapon.obj
 0001:000c5df0       ?onselecting@sniperrifle@@UAEX_N@Z 004c6df0 f   weapon.obj
 0001:000c5e10       ?selectable@sniperrifle@@UAE_NXZ 004c6e10 f   weapon.obj
 0001:000c5e60       ?dynrecoil@sniperrifle@@UAEMXZ 004c6e60 f   weapon.obj
 0001:000c5eb0       ?dynspread@sniperrifle@@UAEHXZ 004c6eb0 f   weapon.obj
 0001:000c5f10       ?reload@sniperrifle@@UAE_N_N@Z 004c6f10 f   weapon.obj
 0001:000c6040       ?attackfx@sniperrifle@@UAEXABUvec@@0H@Z 004c7040 f   weapon.obj
 0001:000c62d0       ??0sniperrifle@@QAE@PAVplayerent@@@Z 004c72d0 f   weapon.obj
 0001:000c6320       ?dynspread@subgun@@UAEHXZ  004c7320 f   weapon.obj
 0001:000c6360       ?selectable@subgun@@UAE_NXZ 004c7360 f   weapon.obj
 0001:000c63b0       ??0subgun@@QAE@PAVplayerent@@@Z 004c73b0 f   weapon.obj
 0001:000c6400       ?selectable@shotgun@@UAE_NXZ 004c7400 f   weapon.obj
 0001:000c6450       ?attackfx@shotgun@@UAEXABUvec@@0H@Z 004c7450 f   weapon.obj
 0001:000c6500       ?attack@shotgun@@UAE_NAAUvec@@@Z 004c7500 f   weapon.obj
 0001:000c6510       ?attackphysics@shotgun@@UAEXAAUvec@@0@Z 004c7510 f   weapon.obj
 0001:000c6540       ??0shotgun@@QAE@PAVplayerent@@@Z 004c7540 f   weapon.obj
 0001:000c6590       ?onownerdies@gun@@UAEXXZ   004c7590 f   weapon.obj
 0001:000c65a0       ?checkautoreload@gun@@QAEXXZ 004c75a0 f   weapon.obj
 0001:000c65d0       ?modelanim@gun@@UAEHXZ     004c75d0 f   weapon.obj
 0001:000c6610       ?attackfx@gun@@UAEXABUvec@@0H@Z 004c7610 f   weapon.obj
 0001:000c66d0       ?attack@gun@@UAE_NAAUvec@@@Z 004c76d0 f   weapon.obj
 0001:000c68e0       ??0gun@@QAE@PAVplayerent@@H@Z 004c78e0 f   weapon.obj
 0001:000c6930       ?removebounceent@grenades@@UAEXPAVbounceent@@@Z 004c7930 f   weapon.obj
 0001:000c6950       ?onownerdies@grenades@@UAEXXZ 004c7950 f   weapon.obj
 0001:000c69a0       ?onselecting@grenades@@UAEX_N@Z 004c79a0 f   weapon.obj
 0001:000c6a30       ?reset@grenades@@UAEXXZ    004c7a30 f   weapon.obj
 0001:000c6a50       ?selectable@grenades@@UAE_NXZ 004c7a50 f   weapon.obj
 0001:000c6a80       ?renderstats@grenades@@UAEXXZ 004c7a80 f   weapon.obj
 0001:000c6b10       ?dropnade@grenades@@QAEXXZ 004c7b10 f   weapon.obj
 0001:000c6b40       ?thrownade@grenades@@QAEXABUvec@@@Z 004c7b40 f   weapon.obj
 0001:000c6cd0       ?thrownade@grenades@@QAEXXZ 004c7cd0 f   weapon.obj
 0001:000c6da0       ?activatenade@grenades@@QAEXABUvec@@@Z 004c7da0 f   weapon.obj
 0001:000c6f10       ?modelanim@grenades@@UAEHXZ 004c7f10 f   weapon.obj
 0001:000c6f70       ?attackfx@grenades@@UAEXABUvec@@0H@Z 004c7f70 f   weapon.obj
 0001:000c7030       ?attack@grenades@@UAE_NAAUvec@@@Z 004c8030 f   weapon.obj
 0001:000c7410       ?busy@grenades@@UAE_NXZ    004c8410 f   weapon.obj
 0001:000c7420       ?flashtime@grenades@@UBEHXZ 004c8420 f   weapon.obj
 0001:000c7430       ??0grenades@@QAE@PAVplayerent@@@Z 004c8430 f   weapon.obj
 0001:000c74a0       ?onmoved@grenadeent@@UAEXABUvec@@@Z 004c84a0 f   weapon.obj
 0001:000c74e0       ?oncollision@grenadeent@@UAEXXZ 004c84e0 f   weapon.obj
 0001:000c7570       ?applyphysics@grenadeent@@UAE_NXZ 004c8570 f   weapon.obj
 0001:000c7580       ?destroy@grenadeent@@UAEXXZ 004c8580 f   weapon.obj
 0001:000c7660       ?moveoutsidebbox@grenadeent@@QAEXABUvec@@PAVplayerent@@@Z 004c8660 f   weapon.obj
 0001:000c76e0       ?_throw@grenadeent@@QAEXABUvec@@0@Z 004c86e0 f   weapon.obj
 0001:000c7870       ?activate@grenadeent@@QAEXABUvec@@0@Z 004c8870 f   weapon.obj
 0001:000c7940       ?splash@grenadeent@@QAEXXZ 004c8940 f   weapon.obj
 0001:000c7b70       ?explode@grenadeent@@QAEXXZ 004c8b70 f   weapon.obj
 0001:000c7c50       ??1grenadeent@@UAE@XZ      004c8c50 f   weapon.obj
 0001:000c7c80       ??0grenadeent@@QAE@PAVplayerent@@H@Z 004c8c80 f   weapon.obj
 0001:000c7d00       ?deselectable@weapon@@UAE_NXZ 004c8d00 f   weapon.obj
 0001:000c7d10       ?selectable@weapon@@UAE_NXZ 004c8d10 f   weapon.obj
 0001:000c7d30       ?dynrecoil@weapon@@UAEMXZ  004c8d30 f   weapon.obj
 0001:000c7d40       ?dynspread@weapon@@UAEHXZ  004c8d40 f   weapon.obj
 0001:000c7d50       ?renderaimhelp@weapon@@UAEX_N@Z 004c8d50 f   weapon.obj
 0001:000c7db0       ?renderhudmodel@weapon@@UAEXXZ 004c8db0 f   weapon.obj
 0001:000c7dd0       ?onselecting@weapon@@UAEX_N@Z 004c8dd0 f   weapon.obj
 0001:000c7e60       ?updatetimers@weapon@@UAEXH@Z 004c8e60 f   weapon.obj
 0001:000c7e90       ?renderhudmodel@weapon@@QAEXHH@Z 004c8e90 f   weapon.obj
 0001:000c8070       ?attackphysics@weapon@@UAEXAAUvec@@0@Z 004c9070 f   weapon.obj
 0001:000c8330       ?renderstats@weapon@@UAEXXZ 004c9330 f   weapon.obj
 0001:000c8450       ?reload@weapon@@UAE_N_N@Z  004c9450 f   weapon.obj
 0001:000c8570       ?attacksound@weapon@@UAEXXZ 004c9570 f   weapon.obj
 0001:000c85d0       ?modelattacking@weapon@@QAE_NXZ 004c95d0 f   weapon.obj
 0001:000c8610       ?sendshoot@weapon@@QAEXAAUvec@@0H@Z 004c9610 f   weapon.obj
 0001:000c86a0       ?flashtime@weapon@@UBEHXZ  004c96a0 f   weapon.obj
 0001:000c86c0       ??0weapon@@QAE@PAVplayerent@@H@Z 004c96c0 f   weapon.obj
 0001:000c8710       ?accuracyreset@@YAXXZ      004c9710 f   weapon.obj
 0001:000c87d0       ?accuracyinfo@@YAXXZ       004c97d0 f   weapon.obj
 0001:000c89c0       ?weapstr@@YAPBDH@Z         004c99c0 f   weapon.obj
 0001:000c89e0       ?raydamage@@YAXAAUvec@@0PAVplayerent@@@Z 004c99e0 f   weapon.obj
 0001:000c90e0       ?shorten@@YAXABUvec@@AAU1@M@Z 004ca0e0 f   weapon.obj
 0001:000c91a0       ?radialeffect@@YAXPAVplayerent@@AAUvec@@H0H@Z 004ca1a0 f   weapon.obj
 0001:000c92e0       ?expdist@@YAMPAVplayerent@@AAUvec@@ABU2@@Z 004ca2e0 f   weapon.obj
 0001:000c93a0       ?hitpush@@YAXHPAVplayerent@@0AAUvec@@1H_NH@Z 004ca3a0 f   weapon.obj
 0001:000c9450       ?hit@@YAXHPAVplayerent@@0ABUvec@@H_NH@Z 004ca450 f   weapon.obj
 0001:000c9710       ?intersectclosest@@YAPAVplayerent@@ABUvec@@0PBV1@AAMAAH_N@Z 004ca710 f   weapon.obj
 0001:000c98a0       ?intersect@@YA_NPAUentity@@ABUvec@@1PAU2@@Z 004ca8a0 f   weapon.obj
 0001:000c9aa0       ?intersect@@YAHPAVplayerent@@ABUvec@@1PAU2@@Z 004caaa0 f   weapon.obj
 0001:000ca4a0       ?tryreload@@YAXPAVplayerent@@@Z 004cb4a0 f   weapon.obj
 0001:000ca7f0       ?quicknadethrow@@YAX_N@Z   004cb7f0 f   weapon.obj
 0001:000ca880       ?shiftweapon@@YAXPAH@Z     004cb880 f   weapon.obj
 0001:000caac0       ?requestweapon@@YAXPAD@Z   004cbac0 f   weapon.obj
 0001:000cab70       ?selectweapon@@YAXPAUweapon@@@Z 004cbb70 f   weapon.obj
 0001:000cac50       ?checkweaponswitch@@YAXXZ  004cbc50 f   weapon.obj
 0001:000cad10       ?updatelastaction@@YAXPAVplayerent@@H@Z 004cbd10 f   weapon.obj
 0001:000cad40       ?preload_hudguns@@YAXXZ    004cbd40 f   weapon.obj
 0001:000cb0a0       ?createrays@@YAXABUvec@@0@Z 004cc0a0 f   weapon.obj
 0001:000cb4e0       ?setscope@@YAX_N@Z         004cc4e0 f   weapon.obj
 0001:000cb540       ?equipplayer@weapon@@SAXPAVplayerent@@@Z 004cc540 f   weapon.obj
 0001:000cb870       ?removebounceents@@YAXPAVplayerent@@@Z 004cc870 f   weapon.obj
 0001:000cb8d0       ?checkweaponstate@@YAXXZ   004cc8d0 f   weapon.obj
 0001:000cb9a0       ?shoot@@YAXPAVplayerent@@AAUvec@@@Z 004cc9a0 f   weapon.obj
 0001:000cba00       ?movebounceents@@YAXXZ     004cca00 f   weapon.obj
 0001:000cbb10       ?damageeffect@@YAXHPAVplayerent@@@Z 004ccb10 f   weapon.obj
 0001:000cbb40       ?addgib@@YAXPAVplayerent@@@Z 004ccb40 f   weapon.obj
 0001:000cbdf0       ?clearbounceents@@YAXXZ    004ccdf0 f   weapon.obj
 0001:000cbe70       ?playerincrosshair@@YAPAVplayerent@@XZ 004cce70 f   weapon.obj
 0001:000cbec0       ?r_accuracy@@YAXH@Z        004ccec0 f   weapon.obj
 0001:000cc060       ?intersectgeometry@@YAXABUvec@@AAU1@@Z 004cd060 f   weapon.obj
 0001:000ccff0       ?renderbounceents@@YAXXZ   004cdff0 f   weapon.obj
 0001:000cd230       ?debugargs@@YAXPAPADH@Z    004ce230 f   command.obj
 0001:000cd290       ?listoptions@@YAXPAD@Z     004ce290 f   command.obj
 0001:000cd3e0       ?cslimiterr@@YAXPBD@Z      004ce3e0 f   command.obj
 0001:000cd400       ?dumpexecutionstack@@YAXPAUstream@@@Z 004ce400 f   command.obj
 0001:000cd4a0       ?isolatecontext@@YAXPAD@Z  004ce4a0 f   command.obj
 0001:000cd510       ?scriptcontext@@YAXPAD0@Z  004ce510 f   command.obj
 0001:000cd550       ?identnames@@YAXAAU?$vector@PBD@@_N@Z 004ce550 f   command.obj
 0001:000cd630       ?deletecfg@@YAXXZ          004ce630 f   command.obj
 0001:000cd720       ?writecfg@@YAXXZ           004ce720 f   command.obj
 0001:000ce350       ?enumalias@@YAXPAD@Z       004cf350 f   command.obj
 0001:000ce4a0       ?sortident@@YAHPAPAUident@@0@Z 004cf4a0 f   command.obj
 0001:000ce610       ?bnot_@@YAXPAH@Z           004cf610 f   command.obj
 0001:000ce670       ?bxor_@@YAXPAH0@Z          004cf670 f   command.obj
 0001:000ce6e0       ?bor_@@YAXPAH0@Z           004cf6e0 f   command.obj
 0001:000ce750       ?band_@@YAXPAH0@Z          004cf750 f   command.obj
 0001:000ce7c0       ?ora_@@YAXPAD0@Z           004cf7c0 f   command.obj
 0001:000ce870       ?anda_@@YAXPAD0@Z          004cf870 f   command.obj
 0001:000ce920       ?gtef_@@YAXPAM0@Z          004cf920 f   command.obj
 0001:000ce990       ?ltef_@@YAXPAM0@Z          004cf990 f   command.obj
 0001:000cea00       ?gtf_@@YAXPAM0@Z           004cfa00 f   command.obj
 0001:000cea70       ?ltf_@@YAXPAM0@Z           004cfa70 f   command.obj
 0001:000ceae0       ?notequalf_@@YAXPAM0@Z     004cfae0 f   command.obj
 0001:000ceb60       ?equalf_@@YAXPAM0@Z        004cfb60 f   command.obj
 0001:000cebe0       ?floor_@@YAXPAM@Z          004cfbe0 f   command.obj
 0001:000cec90       ?ceil_@@YAXPAM@Z           004cfc90 f   command.obj
 0001:000ced10       ?round_@@YAXPAM@Z          004cfd10 f   command.obj
 0001:000ced80       ?gte_@@YAXPAH0@Z           004cfd80 f   command.obj
 0001:000cedf0       ?lte_@@YAXPAH0@Z           004cfdf0 f   command.obj
 0001:000cee60       ?gt_@@YAXPAH0@Z            004cfe60 f   command.obj
 0001:000ceed0       ?lt_@@YAXPAH0@Z            004cfed0 f   command.obj
 0001:000cef40       ?notequal_@@YAXPAH0@Z      004cff40 f   command.obj
 0001:000cefb0       ?equal_@@YAXPAH0@Z         004cffb0 f   command.obj
 0001:000cf020       ?not_@@YAXPAH@Z            004d0020 f   command.obj
 0001:000cf090       ?powf_@@YAXPAM0@Z          004d0090 f   command.obj
 0001:000cf150       ?modf_@@YAXPAM0@Z          004d0150 f   command.obj
 0001:000cf240       ?divf_@@YAXPAM0@Z          004d0240 f   command.obj
 0001:000cf300       ?subf_@@YAXPAM0@Z          004d0300 f   command.obj
 0001:000cf3b0       ?mod_@@YAXPAH0@Z           004d03b0 f   command.obj
 0001:000cf420       ?div_@@YAXPAH0@Z           004d0420 f   command.obj
 0001:000cf490       ?sub_@@YAXPAH0@Z           004d0490 f   command.obj
 0001:000cf500       ?mulf_@@YAXPAPADH@Z        004d0500 f   command.obj
 0001:000cf600       ?addf_@@YAXPAPADH@Z        004d0600 f   command.obj
 0001:000cf6f0       ?mul_@@YAXPAPADH@Z         004d06f0 f   command.obj
 0001:000cf790       ?add_@@YAXPAPADH@Z         004d0790 f   command.obj
 0001:000cf820       ?diveqf@@YAXPADPAM@Z       004d0820 f   command.obj
 0001:000cf840       ?muleqf@@YAXPADPAM@Z       004d0840 f   command.obj
 0001:000cf860       ?subeqf@@YAXPADPAM@Z       004d0860 f   command.obj
 0001:000cf880       ?addeqf@@YAXPADPAM@Z       004d0880 f   command.obj
 0001:000cf8a0       ?modifyfvar@@YAXPBDMD@Z    004d08a0 f   command.obj
 0001:000cfa90       ?diveq@@YAXPADPAH@Z        004d0a90 f   command.obj
 0001:000cfab0       ?muleq@@YAXPADPAH@Z        004d0ab0 f   command.obj
 0001:000cfad0       ?subeq@@YAXPADPAH@Z        004d0ad0 f   command.obj
 0001:000cfaf0       ?addeq@@YAXPADPAH@Z        004d0af0 f   command.obj
 0001:000cfb10       ?modifyvar@@YAXPBDHD@Z     004d0b10 f   command.obj
 0001:000cfd30       ?sortlist@@YAXPAD@Z        004d0d30 f   command.obj
 0001:000cfdc0       ?testchar@@YAXPADPAH@Z     004d0dc0 f   command.obj
 0001:000cff50       ?toany@@YAXPADP6AHH@Z@Z    004d0f50 f   command.obj
 0001:000cff80       ?addpunct@@YAXPAD0@Z       004d0f80 f   command.obj
 0001:000d00a0       ?strreplace@@YAXPAD00@Z    004d10a0 f   command.obj
 0001:000d02e0       ?substr_@@YAXPADPAH1@Z     004d12e0 f   command.obj
 0001:000d0600       ?find@@YAHPADPBD@Z         004d1600 f   command.obj
 0001:000d0810       ?indexlist@@YAPADPBDH@Z    004d1810 f   command.obj
 0001:000d09d0       ?looplist@@YAXPAD00_N@Z    004d19d0 f   command.obj
 0001:000d0e70       ?format2@@YAXPAPADH@Z      004d1e70 f   command.obj
 0001:000d0f50       ?format@@YAXPAPADH@Z       004d1f50 f   command.obj
 0001:000d1260       ?whilea@@YAXPAD0@Z         004d2260 f   command.obj
 0001:000d1300       ?loopa@@YAXPADPAH0@Z       004d2300 f   command.obj
 0001:000d1480       ?ifthen@@YAXPAD00@Z        004d2480 f   command.obj
 0001:000d14a0       ?execdir@@YAXPBD@Z         004d24a0 f   command.obj
 0001:000d17f0       ?exec@@YAXPBD@Z            004d27f0 f   command.obj
 0001:000d1810       ?cleancubescript@@YAXPAD@Z 004d2810 f   command.obj
 0001:000d18e0       ?complete@@YAXPAD_N@Z      004d28e0 f   command.obj
 0001:000d1910       ?commandcomplete@@YAXPAD_N@Z 004d2910 f   command.obj
 0001:000d1ea0       ?addnickcomplete@@YAXPAD@Z 004d2ea0 f   command.obj
 0001:000d1ec0       ?addlistcomplete@@YAXPAD0@Z 004d2ec0 f   command.obj
 0001:000d1ee0       ?addfilecomplete@@YAXPAD00@Z 004d2ee0 f   command.obj
 0001:000d1f00       ?addcomplete@@YAXPADH00@Z  004d2f00 f   command.obj
 0001:000d22e0       ?nickcomplete@@YA_NPAD_N@Z 004d32e0 f   command.obj
 0001:000d2640       ?resetcomplete@@YAXXZ      004d3640 f   command.obj
 0001:000d2660       ?identhash@@YAXPA_K@Z      004d3660 f   command.obj
 0001:000d26e0       ?parseword@@YAPADAAPBDHPAHH@Z 004d36e0 f   command.obj
 0001:000d2840       ?lookup@@YAPADPADH@Z       004d3840 f   command.obj
 0001:000d29d0       ?parseexp@@YAPADAAPBDHH@Z  004d39d0 f   command.obj
 0001:000d2ec0       ?getvarrange@@YAXPAD0@Z    004d3ec0 f   command.obj
 0001:000d2fa0       ?_getalias@@YAXPAD@Z       004d3fa0 f   command.obj
 0001:000d3200       ?delalias@@YAXPBD@Z        004d4200 f   command.obj
 0001:000d3330       ?pusha@@YAXPBDPAD@Z        004d4330 f   command.obj
 0001:000d3390       ?newident@@YAPAUident@@PBDH@Z 004d4390 f   command.obj
 0001:000d3460       ?popident@@YAXAAUident@@@Z 004d4460 f   command.obj
 0001:000d34b0       ?pushident@@YAXAAUident@@PADH@Z 004d44b0 f   command.obj
 0001:000d3590       ?clearstack@@YAXAAPAUidentstack@@@Z 004d4590 f   command.obj
 0001:000d3660       ?setcontext@@YAXPBD0@Z     004d4660 f   command.obj
 0001:000d3670       ?resetcontext@@YAXXZ       004d4670 f   command.obj
 0001:000d3690       ?setfvar@@YAXPBDM_N@Z      004d4690 f   command.obj
 0001:000d36e0       ?push@@YAXPBD0@Z           004d46e0 f   command.obj
 0001:000d3770       ?pop@@YAXPBD@Z             004d4770 f   command.obj
 0001:000d3800       ?identexists@@YA_NPBD@Z    004d4800 f   command.obj
 0001:000d3820       ?exchangestr@@YAPADPADPBD@Z 004d4820 f   command.obj
 0001:000d3860       ?floatret@@YAXM_N@Z        004d4860 f   command.obj
 0001:000d38a0       ?alias@@YAXPBD0_N1@Z       004d48a0 f   command.obj
 0001:000d3a80       ?setvar@@YAXPBDH_N@Z       004d4a80 f   command.obj
 0001:000d3ac0       ?exechook@@YA_NHPBD0ZZ     004d4ac0 f   command.obj
 0001:000d3d00       ?svariable@@YAPADPBD0PAPADP6AXXZ2_N@Z 004d4d00 f   command.obj
 0001:000d3dc0       ?execfile@@YA_NPBD@Z       004d4dc0 f   command.obj
 0001:000d3fb0       ?scripterr@@YAXXZ          004d4fb0 f   command.obj
 0001:000d4040       ?floatstr@@YAPBDM_N@Z      004d5040 f   command.obj
 0001:000d40d0       ?pushscontext@@YAXH@Z      004d50d0 f   command.obj
 0001:000d4140       ?popscontext@@YAHXZ        004d5140 f   command.obj
 0001:000d42a0       ?execute@@YAHPBD@Z         004d52a0 f   command.obj
 0001:000d42d0       ?conc@@YAPADPAPBDH_N@Z     004d52d0 f   command.obj
 0001:000d4510       ?listlen@@YAHPBD@Z         004d5510 f   command.obj
 0001:000d45d0       ?explodelist@@YAXPBDAAU?$vector@PAD@@@Z 004d55d0 f   command.obj
 0001:000d4780       ?resultcharvector@@YAXABU?$vector@D@@H@Z 004d5780 f   command.obj
 0001:000d4820       ?result@@YAXPBD@Z          004d5820 f   command.obj
 0001:000d4860       ?getalias@@YAPBDPBD@Z      004d5860 f   command.obj
 0001:000d4880       ?executeret@@YAPADPBD@Z    004d5880 f   command.obj
 0001:000d5e70       ?intret@@YAXH@Z            004d6e70 f   command.obj
 0001:000d5ed0       ?fvariable@@YAMPBDMMMPAMP6AXXZ_N@Z 004d6ed0 f   command.obj
 0001:000d5f90       ?addcommand@@YA_NPBDP6AXXZ0@Z 004d6f90 f   command.obj
 0001:000d6020       ?variable@@YAHPBDHHHPAHP6AXXZ_N@Z 004d7020 f   command.obj
 0001:000d60e0       ?getmod@@YAXPAD@Z          004d70e0 f   autodownload.obj
 0001:000d6120       ?writepcksourcecfg@@YAXXZ  004d7120 f   autodownload.obj
 0001:000d6240       ?pckserversort@@YAHPAPAUpckserver@@0@Z 004d7240 f   autodownload.obj
 0001:000d62a0       ?packagesort_host@@YAHPAPAUpackage@@0@Z 004d72a0 f   autodownload.obj
 0001:000d62e0       ?packagesort_name@@YAHPAPAUpackage@@0@Z 004d72e0 f   autodownload.obj
 0001:000d6320       ?packagesort_server@@YAHPAPAUpackage@@0@Z 004d7320 f   autodownload.obj
 0001:000d6340       ?dlpackage@@YA_NAAUhttpget@@PAUpackage@@PAUpckserver@@@Z 004d7340 f   autodownload.obj
 0001:000d65b0       ?progress_callback_dlpackage@@YAHPAXM@Z 004d75b0 f   autodownload.obj
 0001:000d6680       ?processdownload@@YAXPAUpackage@@PAUstream@@@Z 004d7680 f   autodownload.obj
 0001:000d6b50       ?pollautodownloadresponse@@YAXXZ 004d7b50 f   autodownload.obj
 0001:000d6c60       ?setupautodownload@@YAXXZ  004d7c60 f   autodownload.obj
 0001:000d6c90       ?pingallpckservers@@YAHPAX@Z 004d7c90 f   autodownload.obj
 0001:000d6ef0       ?pingpckserver@@YAHPAX@Z   004d7ef0 f   autodownload.obj
 0001:000d7370       ?getpckserver@@YAXXZ       004d8370 f   autodownload.obj
 0001:000d7440       ?addpckserver@@YAXPAD0@Z   004d8440 f   autodownload.obj
 0001:000d75e0       ?resetpckservers@@YAXXZ    004d85e0 f   autodownload.obj
 0001:000d7620       ?downloadpackages@@YAH_N@Z 004d8620 f   autodownload.obj
 0001:000d7bd0       ?requirepackage@@YA_NHPBD0@Z 004d8bd0 f   autodownload.obj
 0001:000d8050       ?pasteclipboard@textinputbuffer@@QAEXXZ 004d9050 f   console.obj
 0001:000d80a0       ?say@textinputbuffer@@QAE_NPBD@Z 004d90a0 f   console.obj
 0001:000d81c0       ?keypress@@YAXHH_NW4SDL_Keymod@@@Z 004d91c0 f   console.obj
 0001:000d8390       ?processtextinput@@YAXPBD@Z 004d9390 f   console.obj
 0001:000d83d0       ?consolekey@@YAXH_NW4SDL_Keymod@@@Z 004d93d0 f   console.obj
 0001:000d89d0       ?execbind@@YAXAAUkeym@@_N@Z 004d99d0 f   console.obj
 0001:000d8b30       ?loadhistory@@YAXXZ        004d9b30 f   console.obj
 0001:000d8d50       ?savehistory@@YAXXZ        004d9d50 f   console.obj
 0001:000d8e70       ?history_@@YAXPAH@Z        004d9e70 f   console.obj
 0001:000d8eb0       ?var_checkmapmsg@@YAXXZ    004d9eb0 f   console.obj
 0001:000d8f10       ?var_getmapmsg@@YAXXZ      004d9f10 f   console.obj
 0001:000d8f60       ?inputcommand@@YAXPAD00PAH@Z 004d9f60 f   console.obj
 0001:000d9000       ?saycommand@@YAXPAD@Z      004da000 f   console.obj
 0001:000d9120       ?onrelease@@YAXPAD@Z       004da120 f   console.obj
 0001:000d9250       ?searchbinds@@YAXPBDH@Z    004da250 f   console.obj
 0001:000d9480       ?bindc@@YA_NHPBDH@Z        004da480 f   console.obj
 0001:000d94b0       ?keybind@@YAXPBDH@Z        004da4b0 f   console.obj
 0001:000d9500       ?bindk@@YAXPBD0H@Z         004da500 f   console.obj
 0001:000d9660       ?bindkey@@YA_NPAUkeym@@PBDH@Z 004da660 f   console.obj
 0001:000d9870       ?findkeycode@@YAXPBD@Z     004da870 f   console.obj
 0001:000d9950       ?findkey@@YAXPAH@Z         004da950 f   console.obj
 0001:000d99e0       ?autokeymap@@YAPAUkeym@@HH@Z 004da9e0 f   console.obj
 0001:000d9ab0       ?findbindc@@YAPAUkeym@@H@Z 004daab0 f   console.obj
 0001:000d9ae0       ?findbinda@@YAPAPAUkeym@@PBDH@Z 004daae0 f   console.obj
 0001:000d9c80       ?findbind@@YAPAUkeym@@PBD@Z 004dac80 f   console.obj
 0001:000d9ce0       ?keymap@@YAXPAHPAD@Z       004dace0 f   console.obj
 0001:000d9d60       ?toggleconsole@@YAXXZ      004dad60 f   console.obj
 0001:000d9da0       ?setconskip@@YAXPAH@Z      004dada0 f   console.obj
 0001:000d9e90       ?var_maxcon@@YAXXZ         004dae90 f   console.obj
 0001:000d9ee0       ?addreleaseaction@@YAPADPBD@Z 004daee0 f   console.obj
 0001:000d9fd0       ?writebinds@@YAXPAUstream@@@Z 004dafd0 f   console.obj
 0001:000da100       ?clientlogf@@YAXPBDZZ      004db100 f   console.obj
 0001:000da210       ?getcurcommand@@YAPADPAH@Z 004db210 f   console.obj
 0001:000da240       ?rendercommand@@YAHHHH@Z   004db240 f   console.obj
 0001:000da320       ?renderconsole@@YAXXZ      004db320 f   console.obj
 0001:000da330       ?conoutf@@YAXPBDZZ         004db330 f   console.obj
 0001:000da5c0       ?listcerts@@YAXXZ          004db5c0 f   crypto.obj
 0001:000da6a0       ?loadcertdir@@YAXXZ        004db6a0 f   crypto.obj
 0001:000da7f0       ?loadcert@@YAXPBD@Z        004db7f0 f   crypto.obj
 0001:000da8d0       ?rebuildcerttree@@YAXXZ    004db8d0 f   crypto.obj
 0001:000dac00       ?marksuperseded@@YAXPAUcert@@@Z 004dbc00 f   crypto.obj
 0001:000daff0       ?sign@makecert@@QAEPADPBEPBD@Z 004dbff0 f   crypto.obj
 0001:000db2e0       ?addline@makecert@@QAEXPBD00@Z 004dc2e0 f   crypto.obj
 0001:000db4a0       ??1makecert@@QAE@XZ        004dc4a0 f   crypto.obj
 0001:000db4d0       ??0makecert@@QAE@H@Z       004dc4d0 f   crypto.obj
 0001:000db570       ?movecertfile@cert@@QAEXPBD@Z 004dc570 f   crypto.obj
 0001:000db690       ?getnewcertfilename@cert@@QAEPADPBD@Z 004dc690 f   crypto.obj
 0001:000db730       ?getcertfilename@cert@@QAEPADPBD@Z 004dc730 f   crypto.obj
 0001:000db7c0       ?parse@cert@@QAE_NXZ       004dc7c0 f   crypto.obj
 0001:000dbbf0       ?authkey_@@YAXPAPADH@Z     004dcbf0 f   crypto.obj
 0001:000dc080       ?getauthkey@@YAPBEPBD@Z    004dd080 f   crypto.obj
 0001:000dc0e0       ?delauthkey@@YA_NPBD@Z     004dd0e0 f   crypto.obj
 0001:000dc1c0       ??0authkey@@QAE@PBD0@Z     004dd1c0 f   crypto.obj
 0001:000dc230       ?mypubkey@@YAXXZ           004dd230 f   crypto.obj
 0001:000dc2b0       ?saveprivkey@@YAXPBDPAE1QAEI@Z 004dd2b0 f   crypto.obj
 0001:000dc680       ?savepreprivkey@@YAXPBDPAEE1I@Z 004dd680 f   crypto.obj
 0001:000dc990       ?privkey_from_prepriv@@YAXPAEPBEH0@Z 004dd990 f   crypto.obj
 0001:000dcb50       ?ge25519_scalarmult_base@@YAXPAUge25519@@PBUsc25519@@@Z 004ddb50 f   crypto.obj
 0001:000dcdd0       ?ge25519_double_scalarmult_vartime@@YAXPAUge25519@@PBU1@PBUsc25519@@12@Z 004dddd0 f   crypto.obj
 0001:000dd970       ?ge25519_pack@@YAXQAEPBUge25519@@@Z 004de970 f   crypto.obj
 0001:000dda20       ?ge25519_unpackneg_vartime@@YAHPAUge25519@@QBE@Z 004dea20 f   crypto.obj
 0001:000de490       ?sc25519_2interleave2@@YAXQAEPBUsc25519@@1@Z 004df490 f   crypto.obj
 0001:000de580       ?sc25519_window3@@YAXQACPBUsc25519@@@Z 004df580 f   crypto.obj
 0001:000de9f0       ?sc25519_mul@@YAXPAUsc25519@@PBU1@1@Z 004df9f0 f   crypto.obj
 0001:000ded60       ?sc25519_add@@YAXPAUsc25519@@PBU1@1@Z 004dfd60 f   crypto.obj
 0001:000def30       ?sc25519_to32bytes@@YAXQAEPBUsc25519@@@Z 004dff30 f   crypto.obj
 0001:000def50       ?sc25519_from64bytes@@YAXPAUsc25519@@QBE@Z 004dff50 f   crypto.obj
 0001:000df1d0       ?sc25519_from32bytes@@YAXPAUsc25519@@QBE@Z 004e01d0 f   crypto.obj
 0001:000df780       ?fe25519_pow2523@@YAXPAUfe25519@@PBU1@@Z 004e0780 f   crypto.obj
 0001:000dfa50       ?fe25519_invert@@YAXPAUfe25519@@PBU1@@Z 004e0a50 f   crypto.obj
 0001:000dfec0       ?fe25519_square@@YAXPAUfe25519@@PBU1@@Z 004e0ec0 f   crypto.obj
 0001:000dfed0       ?fe25519_mul@@YAXPAUfe25519@@PBU1@1@Z 004e0ed0 f   crypto.obj
 0001:000e00d0       ?fe25519_sub@@YAXPAUfe25519@@PBU1@1@Z 004e10d0 f   crypto.obj
 0001:000e0240       ?fe25519_add@@YAXPAUfe25519@@PBU1@1@Z 004e1240 f   crypto.obj
 0001:000e0350       ?fe25519_neg@@YAXPAUfe25519@@PBU1@@Z 004e1350 f   crypto.obj
 0001:000e0490       ?fe25519_setzero@@YAXPAUfe25519@@@Z 004e1490 f   crypto.obj
 0001:000e04c0       ?fe25519_setone@@YAXPAUfe25519@@@Z 004e14c0 f   crypto.obj
 0001:000e0500       ?fe25519_getparity@@YAEPBUfe25519@@@Z 004e1500 f   crypto.obj
 0001:000e0530       ?fe25519_cmov@@YAXPAUfe25519@@PBU1@E@Z 004e1530 f   crypto.obj
 0001:000e05c0       ?fe25519_iseq_vartime@@YAHPBUfe25519@@0@Z 004e15c0 f   crypto.obj
 0001:000e0630       ?fe25519_pack@@YAXQAEPBUfe25519@@@Z 004e1630 f   crypto.obj
 0001:000e0670       ?fe25519_unpack@@YAXPAUfe25519@@QBE@Z 004e1670 f   crypto.obj
 0001:000e0700       ?fe25519_freeze@@YAXPAUfe25519@@@Z 004e1700 f   crypto.obj
 0001:000e08a0       ?passphrase2key@@YAXPBDPBEHPAEHPAHHH@Z 004e18a0 f   crypto.obj
 0001:000e0de0       ?entropy_init@@YAXI@Z      004e1de0 f   crypto.obj
 0001:000e1090       ?seedMT_do@@YAXIPAII@Z     004e2090 f   crypto.obj
 0001:000e10c0       ?sha512@@YAXPAEPBEH@Z      004e20c0 f   crypto.obj
 0001:000e12d0       ?sha512_compress@@YAXPA_KPBE@Z 004e22d0 f   crypto.obj
 0001:000e2030       ?hash@tiger@@YAXPBEHAAThashval@1@@Z 004e3030 f   crypto.obj
 0001:000e20a0       ?hash_finish@tiger@@YAXAAThashval@1@PAUincremental_buffer@1@@Z 004e30a0 f   crypto.obj
 0001:000e2170       ?hash_incremental@tiger@@YAXPBEHAAThashval@1@PAUincremental_buffer@1@@Z 004e3170 f   crypto.obj
 0001:000e2200       ?hash_init@tiger@@YAPAUincremental_buffer@1@AAThashval@1@@Z 004e3200 f   crypto.obj
 0001:000e2260       ?gensboxes@tiger@@YAXXZ    004e3260 f   crypto.obj
 0001:000e2410       ?compress@tiger@@YAXPB_KQA_K@Z 004e3410 f   crypto.obj
 0001:000e2e50       ?authsetup@@YAXPAPADH@Z    004e3e50 f   crypto.obj
 0001:000e36c0       ?seedMT@@YAXI@Z            004e46c0 f   crypto.obj
 0001:000e3710       ?popMT@@YAXXZ              004e4710 f   crypto.obj
 0001:000e3730       ?tigerhash@@YAXPAEPBEH@Z   004e4730 f   crypto.obj
 0001:000e3740       ?entropy_add_block@@YAXPBEH@Z 004e4740 f   crypto.obj
 0001:000e3860       ?entropy_save@@YAXXZ       004e4860 f   crypto.obj
 0001:000e3920       ?hex2bin@@YAHPAEPBDH@Z     004e4920 f   crypto.obj
 0001:000e39b0       ?tigerhash_init@@YAPAXPAE@Z 004e49b0 f   crypto.obj
 0001:000e39c0       ?tigerhash_finish@@YAXPAEPAX@Z 004e49c0 f   crypto.obj
 0001:000e39e0       ?tigerhash_add@@YAXPAEPBXHPAX@Z 004e49e0 f   crypto.obj
 0001:000e3a80       ?entropy_add_byte@@YAXE@Z  004e4a80 f   crypto.obj
 0001:000e3ac0       ?ed25519_pubkey_from_private@@YAXPAEPBE@Z 004e4ac0 f   crypto.obj
 0001:000e3b20       ?entropy_get@@YAXPAEH@Z    004e4b20 f   crypto.obj
 0001:000e3bd0       ?bin2hex@@YAPBDPADPBEH@Z   004e4bd0 f   crypto.obj
 0001:000e3c20       ?ed25519_sign@@YAXPAEPAHPBEH2@Z 004e4c20 f   crypto.obj
 0001:000e3d80       ?ed25519_sign_check@@YAPAEPAEHPBE@Z 004e4d80 f   crypto.obj
 0001:000e3e90       ?genpwdhash@@YAPBDPBD0H@Z  004e4e90 f   crypto.obj
 0001:000e3f30       ?randomMT@@YAIXZ           004e4f30 f   crypto.obj
 0001:000e4080       ?renderdocmenu@@YAXPAX_N@Z 004e5080 f   docs.obj
 0001:000e4270       ?renderdocsection@@YAXPAX_N@Z 004e5270 f   docs.obj
 0001:000e44e0       ?msectionsort@@YAHPBUmsection@@0@Z 004e54e0 f   docs.obj
 0001:000e4520       ?docs_parsecmd@@YAHPBD0QAPBDQAH_NPAH@Z 004e5520 f   docs.obj
 0001:000e4840       ?docwritetodoref@@YAXPAH@Z 004e5840 f   docs.obj
 0001:000e4870       ?docwritebaseref@@YAXPAD00@Z 004e5870 f   docs.obj
 0001:000e4890       ?docwriteref@@YAXHPBD00@Z  004e5890 f   docs.obj
 0001:000e51a0       ?xmlstringenc@@YAPADPADPBDI@Z 004e61a0 f   docs.obj
 0001:000e5310       ?getdoc@@YAXPADPAH@Z       004e6310 f   docs.obj
 0001:000e53a0       ?docfind@@YAXPADPAH@Z      004e63a0 f   docs.obj
 0001:000e5750       ?docinvalid@@YAXXZ         004e6750 f   docs.obj
 0001:000e5b10       ?docundone@@YAXPAH@Z       004e6b10 f   docs.obj
 0001:000e5b90       ?listundoneidents@@YAXAAU?$vector@PBD@@H@Z 004e6b90 f   docs.obj
 0001:000e60c0       ?cvecstr@@YAPADAAU?$vector@PAD@@PBDPAH@Z 004e70c0 f   docs.obj
 0001:000e6110       ?adddockey@@YAXPAD00@Z     004e7110 f   docs.obj
 0001:000e61b0       ?adddocexample@@YAXPAD0@Z  004e71b0 f   docs.obj
 0001:000e62c0       ?adddocref@@YAXPAD@Z       004e72c0 f   docs.obj
 0001:000e6300       ?adddocremark@@YAXPAD@Z    004e7300 f   docs.obj
 0001:000e6340       ?adddocargument@@YAXPAD000@Z 004e7340 f   docs.obj
 0001:000e6510       ?adddocident@@YAXPAD0@Z    004e7510 f   docs.obj
 0001:000e6670       ?adddocsection@@YAXPAD@Z   004e7670 f   docs.obj
 0001:000e67a0       ?toggledoc@@YAXXZ          004e77a0 f   docs.obj
 0001:000e67c0       ?scrolldoc@@YAXH@Z         004e77c0 f   docs.obj
 0001:000e67e0       ?docgetdesc@@YAPBDPBD@Z    004e77e0 f   docs.obj
 0001:000e6800       ?renderdoc@@YAXHHH@Z       004e7800 f   docs.obj
 0001:000e8290       ?connect@httpget@@QAE_N_N@Z 004e9290 f   http.obj
 0001:000e8470       ?hcont@@YAHPAX@Z           004e9470 f   http.obj
 0001:000e84a0       ?execcallback@httpget@@QAE_NM@Z 004e94a0 f   http.obj
 0001:000e84d0       ?set@urlparse@@QAEXPBD@Z   004e94d0 f   http.obj
 0001:000e86a0       ?set_port@httpget@@QAEXH@Z 004e96a0 f   http.obj
 0001:000e86e0       ?disconnect@httpget@@QAEXXZ 004e96e0 f   http.obj
 0001:000e8700       ?reset@httpget@@QAEXH@Z    004e9700 f   http.obj
 0001:000e87f0       ?set_host@httpget@@QAE_NPBD@Z 004e97f0 f   http.obj
 0001:000e88c0       ?urlencode@@YAPADPBD_N@Z   004e98c0 f   http.obj
 0001:000e8a50       ?get@httpget@@QAEHPBDIIH_N@Z 004e9a50 f   http.obj
 0001:000e9920       ?logworkerthread@@YAHPAX@Z 004ea920 f   log.obj
 0001:000e9b50       ?xlog@@YAXHPBDZZ           004eab50 f   log.obj
 0001:000e9d40       ?mlog@@YAXHPBDZZ           004ead40 f   log.obj
 0001:000e9e50       ?logcheck@@YA_NH@Z         004eae50 f   log.obj
 0001:000e9e60       ?poll_logbuffers@@YAXXZ    004eae60 f   log.obj
 0001:000ea050       ?tlog@@YAXHPBDZZ           004eb050 f   log.obj
 0001:000ea190       ?exitlogging@@YAXXZ        004eb190 f   log.obj
 0001:000ea1d0       ?initlogging@@YA_NPBDHHHH_N0@Z 004eb1d0 f   log.obj
 0001:000ea5e0       _SDL_main                  004eb5e0 f   main.obj
 0001:000eb500       ?initclientlog@@YAXXZ      004ec500 f   main.obj
 0001:000eb630       ?afterauth@@YAXXZ          004ec630 f   main.obj
 0001:000eb6a0       ?connectprotocol@@YAXPAD@Z 004ec6a0 f   main.obj
 0001:000eb8c0       ?createconfigtemplates@@YAXPBD@Z 004ec8c0 f   main.obj
 0001:000ebb90       ?autostartscripts@@YAXPBD@Z 004ecb90 f   main.obj
 0001:000ebcb0       ?rndmapname@@YAPBDXZ       004eccb0 f   main.obj
 0001:000ebd80       ?var_clockfix@@YAXXZ       004ecd80 f   main.obj
 0001:000ebda0       ?var_clockerror@@YAXXZ     004ecda0 f   main.obj
 0001:000ebde0       ?var_paused@@YAXXZ         004ecde0 f   main.obj
 0001:000ebe20       ?var_gamespeed@@YAXXZ      004ece20 f   main.obj
 0001:000ebe60       ?checkinput@@YAXXZ         004ece60 f   main.obj
 0001:000ecf60       ?pushevent@@YAXABTSDL_Event@@@Z 004edf60 f   main.obj
 0001:000ecf70       ?fpsrange@@YAXPAH0@Z       004edf70 f   main.obj
 0001:000ecfa0       ?limitfps@@YAXAAHH@Z       004edfa0 f   main.obj
 0001:000ed000       ?var_maxfps@@YAXXZ         004ee000 f   main.obj
 0001:000ed020       ?resetgl@@YAXXZ            004ee020 f   main.obj
 0001:000ed720       ?setupscreen@@YAXAAH0@Z    004ee720 f   main.obj
 0001:000edb10       ?getdisplayresolutions@@YAXXZ 004eeb10 f   main.obj
 0001:000edbe0       ?restoregamma@@YAXXZ       004eebe0 f   main.obj
 0001:000edc40       ?var_gamma@@YAXXZ          004eec40 f   main.obj
 0001:000edca0       ?setgamma@@YAHH@Z          004eeca0 f   main.obj
 0001:000edda0       ?setresdata@@YAXPADI@Z     004eeda0 f   main.obj
 0001:000eddf0       ?screenres@@YAXHH@Z        004eedf0 f   main.obj
 0001:000edeb0       ?updatescreensize@@YAXXZ   004eeeb0 f   main.obj
 0001:000edf10       ?screenshotpreview@@YAXPAH@Z 004eef10 f   main.obj
 0001:000ee010       ?mapshot@@YAXXZ            004ef010 f   main.obj
 0001:000ee100       ?screenshot@@YAXPBD@Z      004ef100 f   main.obj
 0001:000ee360       ?getscrext@@YAPBDXZ        004ef360 f   main.obj
 0001:000ee3a0       ?mapscreenshot@@YAXPBD_NHMHH@Z 004ef3a0 f   main.obj
 0001:000ee980       ?encode@jpegenc@@QAEHPBDPAUSDL_Surface@@H0@Z 004ef980 f   main.obj
 0001:000ef2a0       ?main_encoder@jpegenc@@AAEXXZ 004f02a0 f   main.obj
 0001:000ef4d0       ?load_data_units_from_RGB_buffer@jpegenc@@AAEXGG@Z 004f04d0 f   main.obj
 0001:000ef620       ?process_DU@jpegenc@@AAEXPACPAMPAFPAUbitstring@@3@Z 004f0620 f   main.obj
 0001:000ef7c0       ?fdct_and_quantization@jpegenc@@AAEXPACPAMPAF@Z 004f07c0 f   main.obj
 0001:000efae0       ?prepare_quant_tables@jpegenc@@AAEXXZ 004f0ae0 f   main.obj
 0001:000efbd0       ?precalculate_YCbCr_tables@jpegenc@@AAEXXZ 004f0bd0 f   main.obj
 0001:000efca0       ?set_numbers_category_and_bitcode@jpegenc@@AAEHXZ 004f0ca0 f   main.obj
 0001:000efda0       ?init_Huffman_tables@jpegenc@@AAEXXZ 004f0da0 f   main.obj
 0001:000efe00       ?compute_Huffman_table@jpegenc@@AAEXPAE0PAUbitstring@@@Z 004f0e00 f   main.obj
 0001:000efe60       ?writebits@jpegenc@@AAEXUbitstring@@@Z 004f0e60 f   main.obj
 0001:000eff00       ?write_comment@jpegenc@@AAEXPBD@Z 004f0f00 f   main.obj
 0001:000effa0       ?write_SOSinfo@jpegenc@@AAEXXZ 004f0fa0 f   main.obj
 0001:000f00c0       ?set_DHTinfo@jpegenc@@AAEXXZ 004f10c0 f   main.obj
 0001:000f0200       ?write_DHTinfo@jpegenc@@AAEXXZ 004f1200 f   main.obj
 0001:000f03e0       ?set_DQTinfo@jpegenc@@AAEXH@Z 004f13e0 f   main.obj
 0001:000f0450       ?set_quant_table@jpegenc@@AAEXPAEE0@Z 004f1450 f   main.obj
 0001:000f04c0       ?write_DQTinfo@jpegenc@@AAEXXZ 004f14c0 f   main.obj
 0001:000f0570       ?write_SOF0info@jpegenc@@AAEXXZ 004f1570 f   main.obj
 0001:000f06c0       ?write_APP1info@jpegenc@@AAEXXZ 004f16c0 f   main.obj
 0001:000f0770       ?write_APP0info@jpegenc@@AAEXXZ 004f1770 f   main.obj
 0001:000f08a0       ?save_png@@YAHPBDPAUSDL_Surface@@@Z 004f18a0 f   main.obj
 0001:000f0e50       ?writepngchunk@@YAXPAUstream@@PBDPBXI@Z 004f1e50 f   main.obj
 0001:000f0f00       ?var_lang@@YAXXZ           004f1f00 f   main.obj
 0001:000f0f60       ?var_fullscreendesktop@@YAXXZ 004f1f60 f   main.obj
 0001:000f0fc0       ?resetfullscreen@@YAXXZ    004f1fc0 f   main.obj
 0001:000f1020       ?var_fullscreen@@YAXXZ     004f2020 f   main.obj
 0001:000f1030       ?setfullscreen@@YAX_N@Z    004f2030 f   main.obj
 0001:000f1100       ?inputgrab@@YAX_N0@Z       004f2100 f   main.obj
 0001:000f11c0       ?var_vsync@@YAXXZ          004f21c0 f   main.obj
 0001:000f11e0       ?var_fsaa@@YAXXZ           004f21e0 f   main.obj
 0001:000f1200       ?var_stencilbits@@YAXXZ    004f2200 f   main.obj
 0001:000f1220       ?var_depthbits@@YAXXZ      004f2220 f   main.obj
 0001:000f1240       ?var_scr_h@@YAXXZ          004f2240 f   main.obj
 0001:000f1260       ?var_scr_w@@YAXXZ          004f2260 f   main.obj
 0001:000f1280       ?quit@@YAXXZ               004f2280 f   main.obj
 0001:000f1350       ?cleanup@@YAXPAD@Z         004f2350 f   main.obj
 0001:000f14c0       ?writeinitcfg@@YAXXZ       004f24c0 f   main.obj
 0001:000f1700       ?textinput@@YAX_NH@Z       004f2700 f   main.obj
 0001:000f1740       ?keyrepeat@@YAX_NH@Z       004f2740 f   main.obj
 0001:000f1760       ?interceptkey@@YA_NH@Z     004f2760 f   main.obj
 0001:000f1810       ?initwarning@@YA_NPBDHH@Z  004f2810 f   main.obj
 0001:000f18c0       ?fatal@@YAXPBDZZ           004f28c0 f   main.obj
 0001:000f1a00       ?renderbg@gmenu@@QAEXHHHH_N@Z 004f2a00 f   menus.obj
 0001:000f1a60       ?render@gmenu@@QAEXXZ      004f2a60 f   menus.obj
 0001:000f2340       ?rendermenutexturepreview@@YAXPADHPBD@Z 004f3340 f   menus.obj
 0001:000f2530       ?headeritems@gmenu@@QAEHXZ 004f3530 f   menus.obj
 0001:000f25b0       ?init@gmenu@@QAEXXZ        004f35b0 f   menus.obj
 0001:000f2e80       ?conprintmenu@gmenu@@QAEXXZ 004f3e80 f   menus.obj
 0001:000f2f10       ?close@gmenu@@QAEXXZ       004f3f10 f   menus.obj
 0001:000f2f30       ?open@gmenu@@QAEXXZ        004f3f30 f   menus.obj
 0001:000f3010       ?refresh@gmenu@@QAEXXZ     004f4010 f   menus.obj
 0001:000f3050       ?movemenuselection@@YAHHH@Z 004f4050 f   menus.obj
 0001:000f3140       ?menuselectiondescbgcolor@@YAXPAD000@Z 004f4140 f   menus.obj
 0001:000f31a0       ?menuselectionbgcolor@@YAXPAD000@Z 004f41a0 f   menus.obj
 0001:000f3200       ?parsecolor@@YA_NPAUcolor@@PBD111@Z 004f4200 f   menus.obj
 0001:000f32f0       ?chmenutexture@@YAXPAD00@Z 004f42f0 f   menus.obj
 0001:000f33b0       ?menudirlistsub@@YAXPADPAH@Z 004f43b0 f   menus.obj
 0001:000f3410       ?menudirlist@@YAXPAD00PAH0@Z 004f4410 f   menus.obj
 0001:000f34e0       ?menumdl@@YAXPAD00PAH1@Z   004f44e0 f   menus.obj
 0001:000f35a0       ?menuitemspectkeyinput@@YAXPAD0@Z 004f45a0 f   menus.obj
 0001:000f3650       ?menuitemeditkeyinput@@YAXPAD0@Z 004f4650 f   menus.obj
 0001:000f3700       ?menuitemkeyinput@@YAXPAD0@Z 004f4700 f   menus.obj
 0001:000f37b0       ?menuitemcheckbox@@YAXPAD00PAH@Z 004f47b0 f   menus.obj
 0001:000f38b0       ?menuitemradio@@YAXPADPAH1000@Z 004f48b0 f   menus.obj
 0001:000f3980       ?menuitemslider@@YAXPADPAH10001@Z 004f4980 f   menus.obj
 0001:000f3a60       ?menuitemtextinput@@YAXPAD000PAH1@Z 004f4a60 f   menus.obj
 0001:000f3bc0       ?menuitemmapload@@YAXPAD000@Z 004f4bc0 f   menus.obj
 0001:000f3cc0       ?menuitemaltfont@@YAXPAD0000@Z 004f4cc0 f   menus.obj
 0001:000f3dd0       ?menuitemimage@@YAXPAD000@Z 004f4dd0 f   menus.obj
 0001:000f3f70       ?menuitem@@YAXPAD000@Z     004f4f70 f   menus.obj
 0001:000f40c0       ?menuitemgreyedout@@YAXPAH@Z 004f50c0 f   menus.obj
 0001:000f40d0       ?menuselection@@YAXPADPAH@Z 004f50d0 f   menus.obj
 0001:000f4100       ?menurenderoffset@@YAXPAH0@Z 004f5100 f   menus.obj
 0001:000f4120       ?menusynctabstops@@YAXPAH@Z 004f5120 f   menus.obj
 0001:000f4140       ?menuselectionpersistent@@YAXXZ 004f5140 f   menus.obj
 0001:000f41d0       ?menuinitselection@@YAXPAH@Z 004f51d0 f   menus.obj
 0001:000f4200       ?menuinit@@YAXPAD@Z        004f5200 f   menus.obj
 0001:000f4260       ?menutitle@@YAXPAD@Z       004f5260 f   menus.obj
 0001:000f42c0       ?setmenublink@@YAXPAH@Z    004f52c0 f   menus.obj
 0001:000f42e0       ?menufont@@YAXPADPBD@Z     004f52e0 f   menus.obj
 0001:000f4400       ?delmenu@@YAXPBD@Z         004f5400 f   menus.obj
 0001:000f4420       ?newmenu@@YAXPADPAH1@Z     004f5420 f   menus.obj
 0001:000f4460       ?isselection@mitem@@QAE_NXZ 004f5460 f   menus.obj
 0001:000f4490       ?execaction@mitem@@QAEHPBD@Z 004f5490 f   menus.obj
 0001:000f4520       ?renderbg@mitem@@QAEXHHHPAUcolor@@@Z 004f5520 f   menus.obj
 0001:000f45c0       ?render@mitem@@UAEXHHH@Z   004f55c0 f   menus.obj
 0001:000f4620       ?drawarrow@@YAXHHHHMMM@Z   004f5620 f   menus.obj
 0001:000f4740       ?menuselect@@YAXPAXH@Z     004f5740 f   menus.obj
 0001:000f4830       ?normalizemenuselection@@YAHHH@Z 004f5830 f   menus.obj
 0001:000f4850       ?persistentmenuselectionalias@@YAPBDPBD@Z 004f5850 f   menus.obj
 0001:000f4890       ?showmenu_@@YAXPBD@Z       004f5890 f   menus.obj
 0001:000f4910       ?menuset@@YAXPAX_N@Z       004f5910 f   menus.obj
 0001:000f4ab0       ?addchange@@YAXPBDH@Z      004f5ab0 f   menus.obj
 0001:000f4b50       ?clearchanges@@YAXH@Z      004f5b50 f   menus.obj
 0001:000f4b80       ?refreshapplymenu@@YAXPAX_N@Z 004f5b80 f   menus.obj
 0001:000f4e80       ?addmenu@@YAPAXPBD0_NP6AXPAX1@ZP6A_N2H1@Z11@Z 004f5e80 f   menus.obj
 0001:000f4f60       ?menusay@@YAXPBD@Z         004f5f60 f   menus.obj
 0001:000f4f90       ?menukey@@YA_NH_NW4SDL_Keymod@@@Z 004f5f90 f   menus.obj
 0001:000f53f0       ?menuimagemanual@@YAXPAXPBD1PAD2PAUcolor@@1@Z 004f63f0 f   menus.obj
 0001:000f54a0       ?menuheader@@YAXPAXPAD1_N@Z 004f64a0 f   menus.obj
 0001:000f5520       ?menutitlemanual@@YAXPAXPBD@Z 004f6520 f   menus.obj
 0001:000f5530       ?closemenu@@YAXPBD@Z       004f6530 f   menus.obj
 0001:000f5650       ?menureset@@YAXPAX@Z       004f6650 f   menus.obj
 0001:000f5680       ?menuitemmanual@@YAXPAXPAD1PAUcolor@@PBD@Z 004f6680 f   menus.obj
 0001:000f56f0       ?showmenu@@YAXPBD_N@Z      004f66f0 f   menus.obj
 0001:000f57e0       ?menuvisible@@YA_NXZ       004f67e0 f   menus.obj
 0001:000f57f0       ?rendermenu@@YAXXZ         004f67f0 f   menus.obj
 0001:000f5880       ?rendermenumdl@@YAXXZ      004f6880 f   menus.obj
 0001:000f5b60       ?openrawfile@@YAPAUstream@@PBD0@Z 004f6b60 f   stream.obj
 0001:000f5be0       ?openmemfile@@YAPAUstream@@PBEHPAH@Z 004f6be0 f   stream.obj
 0001:000f5c20       ?getline@stream@@UAE_NPADH@Z 004f6c20 f   stream.obj
 0001:000f5c90       ?size@stream@@UAEJXZ       004f6c90 f   stream.obj
 0001:000f5d90       ?listdir@@YA_NPBD0AAU?$vector@PAD@@@Z 004f6d90 f   stream.obj
 0001:000f5f00       ?listsubdir@@YA_NPBDAAU?$vector@PAD@@@Z 004f6f00 f   stream.obj
 0001:000f6040       ?getregszvalue@@YAPADPAUHKEY__@@PBD1@Z 004f7040 f   stream.obj
 0001:000f6100       ?fixpackagedir@@YAIPAD@Z   004f7100 f   stream.obj
 0001:000f6130       ?createdir@@YA_NPBD@Z      004f7130 f   stream.obj
 0001:000f6180       ?stream_capabilities@@YAPBDXZ 004f7180 f   stream.obj
 0001:000f6190       ?sethomedir@@YAXPBD@Z      004f7190 f   stream.obj
 0001:000f63b0       ?addpackagedir@@YAXPBD@Z   004f73b0 f   stream.obj
 0001:000f64d0       ?havehomedir@@YA_NXZ       004f74d0 f   stream.obj
 0001:000f64e0       ?unixpath@@YAPADPAD@Z      004f74e0 f   stream.obj
 0001:000f6510       ?streamcopy@@YAHPAUstream@@0H@Z 004f7510 f   stream.obj
 0001:000f6570       ?filerotate@@YAXPBD0H0@Z   004f7570 f   stream.obj
 0001:000f6670       ?delfile@@YA_NPBD@Z        004f7670 f   stream.obj
 0001:000f66a0       ?listsubdirs@@YAXPBDAAU?$vector@PAD@@P6AHPAPBD2@Z@Z 004f76a0 f   stream.obj
 0001:000f6920       ?loadfile@@YAPADPBDPAH0@Z  004f7920 f   stream.obj
 0001:000f69d0       ?getfilesize@@YAHPBD@Z     004f79d0 f   stream.obj
 0001:000f6a80       ?backup@@YAXPAD0@Z         004f7a80 f   stream.obj
 0001:000f6ae0       ?openvecfile@@YAPAUstream@@PAU?$vector@E@@_N@Z 004f7ae0 f   stream.obj
 0001:000f6b30       ?findfile@@YAPBDPBD0@Z     004f7b30 f   stream.obj
 0001:000f6d80       ?rwops@stream@@QAEPAUSDL_RWops@@XZ 004f7d80 f   stream.obj
 0001:000f6db0       ?path@@YAPADPBD_N@Z        004f7db0 f   stream.obj
 0001:000f6de0       ?listfilesrecursive@@YAXPBDAAU?$vector@PAD@@H@Z 004f7de0 f   stream.obj
 0001:000f6fe0       ?fileexists@@YA_NPBD0@Z    004f7fe0 f   stream.obj
 0001:000f7010       ?opengzfile@@YAPAUstream@@PBD0PAU1@H@Z 004f8010 f   stream.obj
 0001:000f71d0       ?openfile@@YAPAUstream@@PBD0@Z 004f81d0 f   stream.obj
 0001:000f7270       ?parentdir@@YAPBDPBD@Z     004f8270 f   stream.obj
 0001:000f72c0       ?path@@YAPADPAD@Z          004f82c0 f   stream.obj
 0001:000f7410       ?listfiles@@YAXPBD0AAU?$vector@PAD@@P6AHPAPBD2@Z@Z 004f8410 f   stream.obj
 0001:000f7560       ?listdirsrecursive@@YAXPBDAAU?$vector@PAD@@H@Z 004f8560 f   stream.obj
 0001:000f76e0       ?behindpath@@YAPBDPBD@Z    004f86e0 f   stream.obj
 0001:000f7780       ?adjoint@glmatrixf@@QAEXABU1@@Z 004f8780 f   tools.obj
 0001:000f7d10       ?cvecconcat@@YAHAAU?$vector@D@@PBD@Z 004f8d10 f   tools.obj
 0001:000f7d60       ?cmpb@@YA_NPAXHI@Z         004f8d60 f   tools.obj
 0001:000f7d90       ?cmpintdesc@@YAHPBH0@Z     004f8d90 f   tools.obj
 0001:000f7da0       ?stringsortrev@@YAHPAPBD0@Z 004f8da0 f   tools.obj
 0001:000f7de0       ?stringsortignorecaserev@@YAHPAPBD0@Z 004f8de0 f   tools.obj
 0001:000f7e00       ?stackdumper@@YAXIPAU_EXCEPTION_POINTERS@@@Z 004f8e00 f   tools.obj
 0001:000f8060       ?sl_detachthread@@YAXPAX@Z 004f9060 f   tools.obj
 0001:000f8200       ?sl_sleep@@YAXH@Z          004f9200 f   tools.obj
 0001:000f8210       ?sl_pollthread@@YA_NPAX@Z  004f9210 f   tools.obj
 0001:000f8220       ?sl_waitthread@@YAHPAX@Z   004f9220 f   tools.obj
 0001:000f8250       ?parseupdatelist@@YAXAAU?$hashtable@PBDH@@PADPBD2@Z 004f9250 f   tools.obj
 0001:000f8460       ?stringsortignorecase@@YAHPAPBD0@Z 004f9460 f   tools.obj
 0001:000f8480       ?cmpf@@YA_NPADI@Z          004f9480 f   tools.obj
 0001:000f8520       ?createservworld@@YAPAUservsqr@@PBUsqr@@H@Z 004f9520 f   tools.obj
 0001:000f85a0       ?fixmapheadersize@@YAHHH@Z 004f95a0 f   tools.obj
 0001:000f85e0       ?transformoldentitytypes@@YAXHAAE@Z 004f95e0 f   tools.obj
 0001:000f8610       ?calcentitystats@@YAXAAUentitystats_s@@PBUpersistent_entity@@H@Z 004f9610 f   tools.obj
 0001:000f8af0       ?calcmapdims@@YAHAAUmapdim_s@@PBUservsqr@@H@Z 004f9af0 f   tools.obj
 0001:000f8c40       ?calcmapareastats@@YAHAAUmapareastats_s@@PAUservsqr@@HABUmapdim_s@@@Z 004f9c40 f   tools.obj
 0001:000f9450       ?getvalue@sl_semaphore@@QAEHXZ 004fa450 f   tools.obj
 0001:000f9460       ?trywait@sl_semaphore@@QAEHXZ 004fa460 f   tools.obj
 0001:000f9470       ??1sl_semaphore@@QAE@XZ    004fa470 f   tools.obj
 0001:000f9480       ?atoipr@@YAPBDPBDPAUiprange@@@Z 004fa480 f   tools.obj
 0001:000f9530       ?cmpiprange@@YAHPBUiprange@@0@Z 004fa530 f   tools.obj
 0001:000f9550       ?iprtoa@@YAPBDABUiprange@@PAD@Z 004fa550 f   tools.obj
 0001:000f95e0       ?cmpipmatch@@YAHPBUiprange@@0@Z 004fa5e0 f   tools.obj
 0001:000f9600       ?strtoupper@@YAXPADPBD@Z   004fa600 f   tools.obj
 0001:000f9640       ?hiddenpwd@@YAPBDPBDH@Z    004fa640 f   tools.obj
 0001:000f96a0       ?atoip@@YAPBDPBDPAI@Z      004fa6a0 f   tools.obj
 0001:000f9740       ?asctimestr@@YAPBDXZ       004fa740 f   tools.obj
 0001:000f9790       ?ismainthread@@YA_NXZ      004fa790 f   tools.obj
 0001:000f97a0       ?timedwait@sl_semaphore@@QAEHH@Z 004fa7a0 f   tools.obj
 0001:000f97c0       ?sl_createthread@@YAPAXP6AHPAX@Z0PBD@Z 004fa7c0 f   tools.obj
 0001:000f9800       ?peekmapheader@@YAPAUheader@@PAEH@Z 004fa800 f   tools.obj
 0001:000f9880       ?formatdemofilename@@YAPADPBD00HHHHIPAD@Z 004fa880 f   tools.obj
 0001:000fa010       ?iptoa@@YAPBDIPAD@Z        004fb010 f   tools.obj
 0001:000fa050       ??0sl_semaphore@@QAE@HPAH@Z 004fb050 f   tools.obj
 0001:000fa080       ?wait@sl_semaphore@@QAEXXZ 004fb080 f   tools.obj
 0001:000fa0a0       ?post@sl_semaphore@@QAEXXZ 004fb0a0 f   tools.obj
 0001:000fa0c0       ?isbigendian@@YA_NXZ       004fb0c0 f   tools.obj
 0001:000fa0d0       ?adler@@YAIPAEI@Z          004fb0d0 f   tools.obj
 0001:000fa100       ?numtime@@YAPBDXZ          004fb100 f   tools.obj
 0001:000fa160       ?cmpintasc@@YAHPBH0@Z      004fb160 f   tools.obj
 0001:000fa170       ?strtok_r@@YAPADPADPBDPAPAD@Z 004fb170 f   tools.obj
 0001:000fa1c0       ?concatformatstring@@YAPADPADPBDZZ 004fb1c0 f   tools.obj
 0001:000fa220       ?cvecprintf@@YAHAAU?$vector@D@@PBDZZ 004fb220 f   tools.obj
 0001:000fa2b0       ?stringsort@@YAHPAPBD0@Z   004fb2b0 f   tools.obj
 0001:000fa2f0       ?getlistindex@@YAHPBDQAPBD_NH@Z 004fb2f0 f   tools.obj
 0001:000fa360       ?timestring@@YAPBD_J_NPBDPAD@Z 004fb360 f   tools.obj
 0001:000fa3b0       ?invert@glmatrixf@@QAE_NABU1@M@Z 004fb3b0 f   tools.obj
 0001:000fa5a0       ?cleanupmultitex@@YAXII@Z  004fb5a0 f   water.obj
 0001:000fa600       ?setupmultitexreflect@@YAXI@Z 004fb600 f   water.obj
 0001:000fa710       ?setupmultitexrefract@@YAXII@Z 004fb710 f   water.obj
 0001:000fa8c0       ?setprojtexmatrix@@YAXXZ   004fb8c0 f   water.obj
 0001:000facc0       ?setwatercolour@@YAXPADPAH@Z 004fbcc0 f   water.obj
 0001:000fad40       ?getwatercolour@@YAXXZ     004fbd40 f   water.obj
 0001:000fadf0       ?var_waterlevel@@YAXXZ     004fbdf0 f   water.obj
 0001:000fae60       ?addwaterquad@@YAXHHH@Z    004fbe60 f   water.obj
 0001:000faed0       ?setwatercolor@@YAXPBD000@Z 004fbed0 f   water.obj
 0001:000faf50       ?renderwater@@YAHMII@Z     004fbf50 f   water.obj
 0001:000fd560       ?calcwaterscissor@@YAXXZ   004fe560 f   water.obj
 0001:000fd910       ?resetwater@@YAXXZ         004fe910 f   water.obj
 0001:000fd9e0       ?zipmanualstream@@YAPAUstream@@PAXH@Z 004fe9e0 f   zip.obj
 0001:000fda40       ?zipmodgetrevision@@YAXPAD@Z 004fea40 f   zip.obj
 0001:000fdd50       ?zipmodgetfiles@@YAXPAD@Z  004fed50 f   zip.obj
 0001:000fe040       ?zipmodgetdesc@@YAXPAD@Z   004ff040 f   zip.obj
 0001:000fe690       ?zipmodlist@@YAXPAD@Z      004ff690 f   zip.obj
 0001:000fe8c0       ?zipmodclear@@YAXXZ        004ff8c0 f   zip.obj
 0001:000fe980       ?zipmodremove@@YAXPAD@Z    004ff980 f   zip.obj
 0001:000fea00       ?addzipmod@@YAXPAD@Z       004ffa00 f   zip.obj
 0001:000fef50       ?fixzipname@@YAPBDPAD@Z    004fff50 f   zip.obj
 0001:000ff120       ?findzip@@YAPAUziparchive@@PBD@Z 00500120 f   zip.obj
 0001:000ff180       ?addmemfile@@YA_NPADPAEH@Z 00500180 f   zip.obj
 0001:000ffc30       ?findzipfile@@YA_NPBD@Z    00500c30 f   zip.obj
 0001:000ffc60       ?listzipdirs@@YAXPBDAAU?$vector@PAD@@@Z 00500c60 f   zip.obj
 0001:000ffdc0       ?listzipfiles@@YAXPBD0AAU?$vector@PAD@@@Z 00500dc0 f   zip.obj
 0001:000fffb0       ?writezipmodconfig@@YAXPAUstream@@@Z 00500fb0 f   zip.obj
 0001:00100000       ?validzipmodname@@YA_NPAD@Z 00501000 f   zip.obj
 0001:00100030       ?zipmanualopen@@YAPAXPAUstream@@AAU?$vector@PBD@@@Z 00501030 f   zip.obj
 0001:00100190       ?zipmanualread@@YAHPAXHPAUstream@@H@Z 00501190 f   zip.obj
 0001:00100210       ?zipmanualclose@@YAXPAX@Z  00501210 f   zip.obj
 0001:00100260       ?openzipfile@@YAPAUstream@@PBD0@Z 00501260 f   zip.obj
 0001:00100330       ?CheckItemPickup@CACBot@@UAEXXZ 00501330 f   ac_bot.obj
 0001:00100340       ?Spawn@CACBot@@UAEXXZ      00501340 f   ac_bot.obj
 0001:00100520       ?DoSPStuff@CACBot@@UAE_NXZ 00501520 f   ac_bot_ai.obj
 0001:00100530       ?HeadToTargetEnt@CACBot@@UAE_NXZ 00501530 f   ac_bot_ai.obj
 0001:001007b0       ?SearchForEnts@CACBot@@UAEPAUentity@@_NMM@Z 005017b0 f   ac_bot_ai.obj
 0001:00100c30       ?ChoosePreferredWeapon@CACBot@@UAE_NXZ 00501c30 f   ac_bot_ai.obj
 0001:00100f00       ?SetMoveDir@CBot@@QAEXH_N@Z 00501f00 f   bot.obj
 0001:00100f70       ?IsVisible@CBot@@QAE_NUvec@@HM_NPAM@Z 00501f70 f   bot.obj
 0001:001013c0       ?IsVisible@CBot@@QAE_NPAUentity@@_N@Z 005023c0 f   bot.obj
 0001:00101460       ?GetDistance@CBot@@QAEMABUvec@@0@Z 00502460 f   bot.obj
 0001:001014c0       ?SendBotInfo@CBot@@QAEXXZ  005024c0 f   bot.obj
 0001:001014e0       ?ChangeAngle@CBot@@QAEMMMM@Z 005024e0 f   bot.obj
 0001:00101570       ?AimToIdeal@CBot@@QAEXXZ   00502570 f   bot.obj
 0001:001018f0       ?Think@CBot@@UAEXXZ        005028f0 f   bot.obj
 0001:00101b00       ?Spawn@CBot@@UAEXXZ        00502b00 f   bot.obj
 0001:00101d30       ??1CBot@@UAE@XZ            00502d30 f   bot.obj
 0001:00101e30       ?GetDistance@CBot@@QAEMABUvec@@@Z 00502e30 f   bot.obj
 0001:00101e90       ?SelectGun@CBot@@QAE_NH@Z  00502e90 f   bot.obj
 0001:00101f20       ?AimToVec@CBot@@QAEXABUvec@@@Z 00502f20 f   bot.obj
 0001:00102020       ?IsInFOV@CBot@@QAE_NABUvec@@@Z 00503020 f   bot_ai.obj
 0001:00102110       ?CheckItems@CBot@@QAE_NXZ  00503110 f   bot_ai.obj
 0001:00102270       ?WaterNav@CBot@@QAE_NXZ    00503270 f   bot_ai.obj
 0001:00102710       ?CheckFOV@CBot@@QAEXXZ     00503710 f   bot_ai.obj
 0001:00103140       ?CheckStrafe@CBot@@QAE_NXZ 00504140 f   bot_ai.obj
 0001:00103680       ?CheckCrouch@CBot@@QAE_NXZ 00504680 f   bot_ai.obj
 0001:00103810       ?CheckJump@CBot@@QAE_NXZ   00504810 f   bot_ai.obj
 0001:00103990       ?CheckStuck@CBot@@QAE_NXZ  00504990 f   bot_ai.obj
 0001:00103ee0       ?DoCombatNav@CBot@@QAEXXZ  00504ee0 f   bot_ai.obj
 0001:00104d90       ?CheckScope@CBot@@QAEXXZ   00505d90 f   bot_ai.obj
 0001:00104e90       ?CheckReload@CBot@@QAEXXZ  00505e90 f   bot_ai.obj
 0001:00104ef0       ?GetShootDelay@CBot@@QAEHXZ 00505ef0 f   bot_ai.obj
 0001:00104f10       ?ShootEnemy@CBot@@QAEXXZ   00505f10 f   bot_ai.obj
 0001:00105260       ?CheckWeaponSwitch@CBot@@QAEXXZ 00506260 f   bot_ai.obj
 0001:00105300       ?HuntEnemy@CBot@@QAE_NXZ   00506300 f   bot_ai.obj
 0001:00105bf0       ?CheckHunt@CBot@@QAE_NXZ   00506bf0 f   bot_ai.obj
 0001:001069b0       ?FindEnemy@CBot@@QAE_NXZ   005079b0 f   bot_ai.obj
 0001:00106dc0       ?DetectEnemy@CBot@@QAE_NPAVplayerent@@@Z 00507dc0 f   bot_ai.obj
 0001:00106f30       ?BotsAgainstHumans@CBot@@QAE_NXZ 00507f30 f   bot_ai.obj
 0001:00106f40       ?GetEnemyPos@CBot@@QAE?AUvec@@PAVplayerent@@@Z 00507f40 f   bot_ai.obj
 0001:00107610       ?MainAI@CBot@@QAEXXZ       00508610 f   bot_ai.obj
 0001:00107a50       ?ChoosePreferredWeapon@CBot@@UAE_NXZ 00508a50 f   bot_ai.obj
 0001:00107a60       ?IsReachable@CBot@@QAE_NUvec@@M@Z 00508a60 f   bot_ai.obj
 0001:00107fc0       ?SkillNrToSkillName@@YAPBDF@Z 00508fc0 f   bot_util.obj
 0001:00108000       ?CrossProduct@@YA?AUvec@@ABU1@0@Z 00509000 f   bot_util.obj
 0001:00108060       ?GetDistance@@YAMUvec@@0@Z 00509060 f   bot_util.obj
 0001:001080f0       ?lsrand@@YAXK@Z            005090f0 f   bot_util.obj
 0001:00108110       ?lrand@@YAJXZ              00509110 f   bot_util.obj
 0001:00108170       ?PredictPos@@YA?AUvec@@U1@0M@Z 00509170 f   bot_util.obj
 0001:00108200       ?IsInGame@@YA_NPAVdynent@@@Z 00509200 f   bot_util.obj
 0001:00108240       ?GetDirection@@YAHABUvec@@00@Z 00509240 f   bot_util.obj
 0001:001083a0       ?GetCubeFloor@@YAMHH@Z     005093a0 f   bot_util.obj
 0001:00108410       ?Normalize@@YA?AUvec@@U1@@Z 00509410 f   bot_util.obj
 0001:00108540       ?RandomFloat@@YAMMM@Z      00509540 f   bot_util.obj
 0001:00108580       ?RandomLong@@YAJJJ@Z       00509580 f   bot_util.obj
 0001:001085b0       ?WrapXAngle@@YAMM@Z        005095b0 f   bot_util.obj
 0001:001085d0       ?WrapYZAngle@@YAMM@Z       005095d0 f   bot_util.obj
 0001:00108600       ?AnglesToVectors@@YAXUvec@@AAU1@11@Z 00509600 f   bot_util.obj
 0001:00108750       ?TraceLine@@YAXUvec@@0PAVdynent@@_NPAUtraceresult_s@@2@Z 00509750 f   bot_util.obj
 0001:001090b0       ?Get2DDistance@@YAMUvec@@0@Z 0050a0b0 f   bot_util.obj
 0001:00109110       ?IsVisible@@YA_NUvec@@0PAVdynent@@_N@Z 0050a110 f   bot_util.obj
 0001:00109190       ?SyncWaypoints@CBot@@QAEXXZ 0050a190 f   bot_waypoint.obj
 0001:00109300       ?GetWPFromNode@CBot@@QAEPAUwaypoint_s@@PAUnode_s@@@Z 0050a300 f   bot_waypoint.obj
 0001:00109380       ?ReachedGoalWP@CBot@@QAE_NXZ 0050a380 f   bot_waypoint.obj
 0001:00109420       ?CleanAStarLists@CBot@@QAEX_N@Z 0050a420 f   bot_waypoint.obj
 0001:001096b0       ?AStarCost@CBot@@QAEMPAUwaypoint_s@@0@Z 0050a6b0 f   bot_waypoint.obj
 0001:00109720       ?AStar@CBot@@QAE_NXZ       0050a720 f   bot_waypoint.obj
 0001:0010a3f0       ?FindWaypoint@CBot@@QAE_NXZ 0050b3f0 f   bot_waypoint.obj
 0001:0010a750       ?wpflood@@YAXXZ            0050b750 f   bot_waypoint.obj
 0001:0010a7a0       ?setwpyaw@@YAXXZ           0050b7a0 f   bot_waypoint.obj
 0001:0010a870       ?setwptriggernr@@YAXPAH@Z  0050b870 f   bot_waypoint.obj
 0001:0010a940       ?unsetjumpwp@@YAXXZ        0050b940 f   bot_waypoint.obj
 0001:0010aa00       ?setjumpwp@@YAXXZ          0050ba00 f   bot_waypoint.obj
 0001:0010aac0       ?delpath2way2@@YAXXZ       0050bac0 f   bot_waypoint.obj
 0001:0010abf0       ?delpath2way1@@YAXXZ       0050bbf0 f   bot_waypoint.obj
 0001:0010acd0       ?delpath1way2@@YAXXZ       0050bcd0 f   bot_waypoint.obj
 0001:0010adf0       ?delpath1way1@@YAXXZ       0050bdf0 f   bot_waypoint.obj
 0001:0010aed0       ?addpath2way2@@YAXXZ       0050bed0 f   bot_waypoint.obj
 0001:0010b000       ?addpath2way1@@YAXXZ       0050c000 f   bot_waypoint.obj
 0001:0010b0e0       ?addpath1way2@@YAXXZ       0050c0e0 f   bot_waypoint.obj
 0001:0010b200       ?addpath1way1@@YAXXZ       0050c200 f   bot_waypoint.obj
 0001:0010b2e0       ?wpinfo@@YAXPAH@Z          0050c2e0 f   bot_waypoint.obj
 0001:0010b300       ?autowp@@YAXPAH@Z          0050c300 f   bot_waypoint.obj
 0001:0010b320       ?wpclear@@YAXXZ            0050c320 f   bot_waypoint.obj
 0001:0010b330       ?wpload@@YAXXZ             0050c330 f   bot_waypoint.obj
 0001:0010b340       ?wpsave@@YAXXZ             0050c340 f   bot_waypoint.obj
 0001:0010b350       ?wpvisible@@YAXPAH@Z       0050c350 f   bot_waypoint.obj
 0001:0010b360       ?delwp@@YAXXZ              0050c360 f   bot_waypoint.obj
 0001:0010b4e0       ?addwp@@YAXPAH@Z           0050c4e0 f   bot_waypoint.obj
 0001:0010b5b0       ?StartFlood@CACWaypointClass@@UAEXXZ 0050c5b0 f   bot_waypoint.obj
 0001:0010b5f0       ?GetNodeIndexes@CWaypointClass@@QAEXABUvec@@PAF1@Z 0050c5f0 f   bot_waypoint.obj
 0001:0010b650       ?GetNearestTriggerFloodWP@CWaypointClass@@QAEPAUnode_s@@Uvec@@M@Z 0050c650 f   bot_waypoint.obj
 0001:0010b8f0       ?GetNearestFloodWP@CWaypointClass@@QAEPAUnode_s@@Uvec@@MPAU2@_N@Z 0050c8f0 f   bot_waypoint.obj
 0001:0010bc10       ?ConnectFloodWP@CWaypointClass@@QAEXPAUnode_s@@@Z 0050cc10 f   bot_waypoint.obj
 0001:0010c280       ?CanPlaceNodeHere@CWaypointClass@@QAE_NABUvec@@@Z 0050d280 f   bot_waypoint.obj
 0001:0010c570       ?FloodThink@CWaypointClass@@QAEXXZ 0050d570 f   bot_waypoint.obj
 0001:0010cc80       ?StartFlood@CWaypointClass@@UAEXXZ 0050dc80 f   bot_waypoint.obj
 0001:0010ccc0       ?ReCalcCosts@CWaypointClass@@QAEXXZ 0050dcc0 f   bot_waypoint.obj
 0001:0010cd10       ?CalcCost@CWaypointClass@@QAEXPAUnode_s@@@Z 0050dd10 f   bot_waypoint.obj
 0001:0010d5d0       ?GetWaypointFromVec@CWaypointClass@@QAEPAUnode_s@@ABUvec@@@Z 0050e5d0 f   bot_waypoint.obj
 0001:0010d6b0       ?GetNearestTriggerWaypoint@CWaypointClass@@QAEPAUnode_s@@Uvec@@M@Z 0050e6b0 f   bot_waypoint.obj
 0001:0010d960       ?GetNearestWaypoint@CWaypointClass@@QAEPAUnode_s@@Uvec@@M@Z 0050e960 f   bot_waypoint.obj
 0001:0010dc50       ?WPIsReachable@CWaypointClass@@QAE_NUvec@@0@Z 0050ec50 f   bot_waypoint.obj
 0001:0010e150       ?ManuallyDeletePath@CWaypointClass@@QAEXUvec@@H_N@Z 0050f150 f   bot_waypoint.obj
 0001:0010e250       ?ManuallyCreatePath@CWaypointClass@@QAEXUvec@@H_N@Z 0050f250 f   bot_waypoint.obj
 0001:0010e350       ?DeletePath@CWaypointClass@@QAEXPAUnode_s@@0@Z 0050f350 f   bot_waypoint.obj
 0001:0010e380       ?DeletePath@CWaypointClass@@QAEXPAUnode_s@@@Z 0050f380 f   bot_waypoint.obj
 0001:0010e510       ?AddPath@CWaypointClass@@QAEXPAUnode_s@@0@Z 0050f510 f   bot_waypoint.obj
 0001:0010e540       ?DeleteWaypoint@CWaypointClass@@QAEXUvec@@@Z 0050f540 f   bot_waypoint.obj
 0001:0010e630       ?AddWaypoint@CWaypointClass@@QAEPAUnode_s@@Uvec@@_N@Z 0050f630 f   bot_waypoint.obj
 0001:0010e940       ?DrawNearWaypoints@CWaypointClass@@QAEXXZ 0050f940 f   bot_waypoint.obj
 0001:0010f0f0       ?SaveWaypoints@CWaypointClass@@QAEXXZ 005100f0 f   bot_waypoint.obj
 0001:0010f3d0       ?LoadWaypoints@CWaypointClass@@QAE_NXZ 005103d0 f   bot_waypoint.obj
 0001:0010fbb0       ?Clear@CWaypointClass@@QAEXXZ 00510bb0 f   bot_waypoint.obj
 0001:0010fd20       ?Init@CWaypointClass@@QAEXXZ 00510d20 f   bot_waypoint.obj
 0001:0010fdc0       ??0CWaypointClass@@QAE@XZ  00510dc0 f   bot_waypoint.obj
 0001:0010fec0       ?CurrentWPIsValid@CBot@@QAE_NXZ 00510ec0 f   bot_waypoint.obj
 0001:0010ff00       ?HeadToWaypoint@CBot@@QAE_NXZ 00510f00 f   bot_waypoint.obj
 0001:001106d0       ?GetNearestWaypoint@CBot@@QAEPAUwaypoint_s@@Uvec@@M@Z 005116d0 f   bot_waypoint.obj
 0001:00110960       ?GetNearestFloodWP@CBot@@QAEPAUwaypoint_s@@Uvec@@M@Z 00511960 f   bot_waypoint.obj
 0001:00110bf0       ?SetCurrentWaypoint@CBot@@QAEXPAUwaypoint_s@@@Z 00511bf0 f   bot_waypoint.obj
 0001:00110c10       ?SetCurrentGoalWaypoint@CBot@@QAEXPAUwaypoint_s@@@Z 00511c10 f   bot_waypoint.obj
 0001:00110c20       ?HeadToGoal@CBot@@QAE_NXZ  00511c20 f   bot_waypoint.obj
 0001:00110e00       ?ResetWaypointVars@CBot@@QAEXXZ 00511e00 f   bot_waypoint.obj
 0001:00110eb0       ?Think@CWaypointClass@@QAEXXZ 00511eb0 f   bot_waypoint.obj
 0001:00111350       ?botskillall@@YAXPAD@Z     00512350 f   botmanager.obj
 0001:00111360       ?botskill@@YAXPAD0@Z       00512360 f   botmanager.obj
 0001:00111480       ?togglebotview@@YAXPAD@Z   00512480 f   botmanager.obj
 0001:00111610       ?kickbot@@YAXPBD@Z         00512610 f   botmanager.obj
 0001:00111730       ?idlebots@@YAXPAH@Z        00512730 f   botmanager.obj
 0001:00111780       ?botsshoot@@YAXPAH@Z       00512780 f   botmanager.obj
 0001:001117d0       ?addnbot@@YAXPAD00@Z       005127d0 f   botmanager.obj
 0001:00111840       ?addbot@@YAXPAD00@Z        00512840 f   botmanager.obj
 0001:001118b0       ?botmode@@YA_NXZ           005128b0 f   botmanager.obj
 0001:001118f0       ?CreateBot@CBotManager@@QAEPAVbotent@@PBD00@Z 005128f0 f   botmanager.obj
 0001:00111fd0       ?DisableBotView@CBotManager@@QAEXXZ 00512fd0 f   botmanager.obj
 0001:00111ff0       ?ViewBot@CBotManager@@QAEXXZ 00512ff0 f   botmanager.obj
 0001:00112100       ?ChangeBotSkill@CBotManager@@QAEXFPAVbotent@@@Z 00513100 f   botmanager.obj
 0001:001121e0       ?InitSkillData@CBotManager@@AAEXXZ 005131e0 f   botmanager.obj
 0001:00112590       ?CreateSkillData@CBotManager@@AAEXXZ 00513590 f   botmanager.obj
 0001:00112bd0       ?EndMap@CBotManager@@QAEXXZ 00513bd0 f   botmanager.obj
 0001:00112db0       ?LoadBotTeamsFile@CBotManager@@AAEXXZ 00513db0 f   botmanager.obj
 0001:00112f50       ?GetBotName@CBotManager@@AAEPBDXZ 00513f50 f   botmanager.obj
 0001:001131c0       ?LoadBotNamesFile@CBotManager@@AAEXXZ 005141c0 f   botmanager.obj
 0001:001133a0       ?Init@CBotManager@@QAEXXZ  005143a0 f   botmanager.obj
 0001:00113740       ??1CBotManager@@QAE@XZ     00514740 f   botmanager.obj
 0001:00113760       ?DelWaypoint@CBotManager@@QAEXPAUnode_s@@@Z 00514760 f   botmanager.obj
 0001:001138c0       ?MakeBotFileName@CBotManager@@QAEXPBD00PAD@Z 005148c0 f   botmanager.obj
 0001:00113960       ?AddWaypoint@CBotManager@@QAEXPAUnode_s@@@Z 00514960 f   botmanager.obj
 0001:00113ac0       ?PickNextTrigger@CBotManager@@QAEXXZ 00514ac0 f   botmanager.obj
 0001:00113c50       ?CalculateMaxAStarCount@CBotManager@@QAEXXZ 00514c50 f   botmanager.obj
 0001:00113cc0       ?Think@CBotManager@@QAEXXZ 00514cc0 f   botmanager.obj
 0001:00114000       ?GetBotTeam@CBotManager@@QAEPBDXZ 00515000 f   botmanager.obj
 0001:00114080       ?BeginMap@CBotManager@@QAEXPBD@Z 00515080 f   botmanager.obj
 0001:00114170       ?kickallbots@@YAXXZ        00515170 f   botmanager.obj
 0001:00114210       ?sortmapsoundslots@@YAXPAPADH@Z 00515210 f   audiomanager.obj
 0001:00114910       ?tempmsunsort@@YAHPAUtempmsslot@@0@Z 00515910 f   audiomanager.obj
 0001:00114930       ?tempmssort@@YAHPAUtempmsslot@@0@Z 00515930 f   audiomanager.obj
 0001:00114990       ?tempmscmp@@YAHPAUtempmsslot@@0@Z 00515990 f   audiomanager.obj
 0001:001149e0       ?getmapsoundlist@@YAXXZ    005159e0 f   audiomanager.obj
 0001:00114bf0       ?mapsoundslotbyname@@YAXPAD@Z 00515bf0 f   audiomanager.obj
 0001:00114cd0       ?getmapsoundorigin@@YAXPAD@Z 00515cd0 f   audiomanager.obj
 0001:00114db0       ?editmapsoundslot@@YAXPAHPAD1@Z 00515db0 f   audiomanager.obj
 0001:00114f30       ?deletemapsoundslot@@YAXPAHPAD@Z 00515f30 f   audiomanager.obj
 0001:00115200       ?reloadmapsoundconfig@@YAXXZ 00516200 f   audiomanager.obj
 0001:00115270       ?mapsoundslotusage@@YAXPAH@Z 00516270 f   audiomanager.obj
 0001:00115800       ?enumsounds@@YAXPAD@Z      00516800 f   audiomanager.obj
 0001:00115a00       ?var_soundvol@@YAXXZ       00516a00 f   audiomanager.obj
 0001:00115a60       ?var_soundchannels@@YAXXZ  00516a60 f   audiomanager.obj
 0001:00115d60       ??8staticreference@@UAE_NABVworldobjreference@@@Z 00516d60 f   audiomanager.obj
 0001:00115db0       ?nodistance@staticreference@@UAE_NXZ 00516db0 f   audiomanager.obj
 0001:00115dc0       ?currentposition@staticreference@@UBEABUvec@@XZ 00516dc0 f   audiomanager.obj
 0001:00115dd0       ?clone@staticreference@@UBEPAVworldobjreference@@XZ 00516dd0 f   audiomanager.obj
 0001:00115e10       ??0staticreference@@QAE@ABUvec@@@Z 00516e10 f   audiomanager.obj
 0001:00115e50       ??8entityreference@@UAE_NABVworldobjreference@@@Z 00516e50 f   audiomanager.obj
 0001:00115e70       ?nodistance@entityreference@@UAE_NXZ 00516e70 f   audiomanager.obj
 0001:00115e80       ?currentposition@entityreference@@UBEABUvec@@XZ 00516e80 f   audiomanager.obj
 0001:00115ed0       ?clone@entityreference@@UBEPAVworldobjreference@@XZ 00516ed0 f   audiomanager.obj
 0001:00115f00       ??8physentreference@@UAE_NABVworldobjreference@@@Z 00516f00 f   audiomanager.obj
 0001:00115f20       ?nodistance@physentreference@@UAE_NXZ 00516f20 f   audiomanager.obj
 0001:00115f30       ?currentposition@physentreference@@UBEABUvec@@XZ 00516f30 f   audiomanager.obj
 0001:00115f40       ?clone@physentreference@@UBEPAVworldobjreference@@XZ 00516f40 f   audiomanager.obj
 0001:00115f70       ??0physentreference@@QAE@PAVphysent@@@Z 00516f70 f   audiomanager.obj
 0001:00115f90       ??8camerareference@@UAE_NABVworldobjreference@@@Z 00516f90 f   audiomanager.obj
 0001:00115fa0       ?nodistance@camerareference@@UAE_NXZ 00516fa0 f   audiomanager.obj
 0001:00115fb0       ?currentposition@camerareference@@UBEABUvec@@XZ 00516fb0 f   audiomanager.obj
 0001:00115fc0       ?clone@camerareference@@UBEPAVworldobjreference@@XZ 00516fc0 f   audiomanager.obj
 0001:00115ff0       ??0camerareference@@QAE@XZ 00516ff0 f   audiomanager.obj
 0001:00116000       ?stopsound@audiomanager@@QAEXXZ 00517000 f   audiomanager.obj
 0001:00116040       ?_playsound@audiomanager@@QAEPAVlocation@@HABVworldobjreference@@HM_N@Z 00517040 f   audiomanager.obj
 0001:00116240       ?ondetach@soundconfig@@QAEXXZ 00517240 f   audiomanager.obj
 0001:00116250       ?onattach@soundconfig@@QAEXXZ 00517250 f   audiomanager.obj
 0001:00116260       ??0soundconfig@@QAE@PAVsbuffer@@HH_NH@Z 00517260 f   audiomanager.obj
 0001:001162b0       ?soundtest@@YAXXZ          005172b0 f   audiomanager.obj
 0001:00116310       ?voicecom@@YAXPAD0@Z       00517310 f   audiomanager.obj
 0001:001164b0       ?soundmuted@audiomanager@@QAEHH@Z 005174b0 f   audiomanager.obj
 0001:001164f0       ?unmuteallsounds@audiomanager@@QAEXXZ 005174f0 f   audiomanager.obj
 0001:00116520       ?mutesound@audiomanager@@QAEXHH@Z 00517520 f   audiomanager.obj
 0001:00116570       ?updateloopsound@audiomanager@@QAEPAVlocation@@H_NM@Z 00517570 f   audiomanager.obj
 0001:00116600       ?updateplayerfootsteps@audiomanager@@QAEXPAVplayerent@@@Z 00517600 f   audiomanager.obj
 0001:00116920       ?mapsoundreset@audiomanager@@QAEXXZ 00517920 f   audiomanager.obj
 0001:00116940       ?setchannels@audiomanager@@QAEXH@Z 00517940 f   audiomanager.obj
 0001:00116990       ?applymapsoundchanges@audiomanager@@QAEXXZ 00517990 f   audiomanager.obj
 0001:001169f0       ?addsound@audiomanager@@QAEHPBDHH_NAAU?$vector@Usoundconfig@@@@1H@Z 005179f0 f   audiomanager.obj
 0001:00116b80       ?findsound@audiomanager@@QAEHPBDHAAU?$vector@Usoundconfig@@@@@Z 00517b80 f   audiomanager.obj
 0001:00116bf0       ?registermusic@audiomanager@@QAEXPAD@Z 00517bf0 f   audiomanager.obj
 0001:00116c30       ?setlistenervol@audiomanager@@QAEXH@Z 00517c30 f   audiomanager.obj
 0001:00116c90       ?setmusicvol@audiomanager@@QAEXH@Z 00517c90 f   audiomanager.obj
 0001:00116ce0       ?musicpreload@audiomanager@@QAEXH@Z 00517ce0 f   audiomanager.obj
 0001:00116e40       ?music@audiomanager@@QAEXPADH0@Z 00517e40 f   audiomanager.obj
 0001:00116f40       ??0audiomanager@@QAE@XZ    00517f40 f   audiomanager.obj
 0001:00117040       ?var_musicvol@@YAXXZ       00518040 f   audiomanager.obj
 0001:00117090       ?var_audio@@YAXXZ          00518090 f   audiomanager.obj
 0001:001170b0       ?soundcleanup@audiomanager@@QAEXXZ 005180b0 f   audiomanager.obj
 0001:00117270       ?initsound@audiomanager@@QAEXXZ 00518270 f   audiomanager.obj
 0001:00117590       ?registerdefaultsounds@@YAXXZ 00518590 f   audiomanager.obj
 0001:00117750       ?updateaudio@audiomanager@@QAEXXZ 00518750 f   audiomanager.obj
 0001:00117ea0       ?writesoundconfig@audiomanager@@QAEXPAUstream@@@Z 00518ea0 f   audiomanager.obj
 0001:00117f10       ?playsoundc@audiomanager@@QAEXHPAVphysent@@H@Z 00518f10 f   audiomanager.obj
 0001:00117f90       ?preloadmapsounds@audiomanager@@QAE_N_N@Z 00518f90 f   audiomanager.obj
 0001:00118010       ??0entityreference@@QAE@PAUentity@@@Z 00519010 f   audiomanager.obj
 0001:00118030       ?preloadmapsound@audiomanager@@QAE_NAAUentity@@_N@Z 00519030 f   audiomanager.obj
 0001:00118090       ?detachsounds@audiomanager@@QAEXPAVplayerent@@@Z 00519090 f   audiomanager.obj
 0001:00118130       ?playsound@audiomanager@@QAEXHH@Z 00519130 f   audiomanager.obj
 0001:00118170       ?playsound@audiomanager@@QAEXHPAVphysent@@H@Z 00519170 f   audiomanager.obj
 0001:001181c0       ?musicsuggest@audiomanager@@QAEXHH_N@Z 005191c0 f   audiomanager.obj
 0001:00118350       ?musicfadeout@audiomanager@@QAEXH@Z 00519350 f   audiomanager.obj
 0001:001183f0       ?clearworldsounds@audiomanager@@QAEX_N@Z 005193f0 f   audiomanager.obj
 0001:00118450       ?playsound@audiomanager@@QAEXHPBUvec@@H@Z 00519450 f   audiomanager.obj
 0001:001184b0       ?setgain@oggstream@@QAEXM@Z 005194b0 f   oggstream.obj
 0001:001184d0       ?updategain@oggstream@@QAEXXZ 005194d0 f   oggstream.obj
 0001:001184f0       ?stream@oggstream@@QAE_NI@Z 005194f0 f   oggstream.obj
 0001:001185e0       ?onsourcereassign@oggstream@@UAEXPAVsource@@@Z 005195e0 f   oggstream.obj
 0001:00118610       ??1oggstream@@UAE@XZ       00519610 f   oggstream.obj
 0001:00118760       ??0oggstream@@QAE@XZ       00519760 f   oggstream.obj
 0001:00118bf0       ?open@oggstream@@QAE_NPBD@Z 00519bf0 f   oggstream.obj
 0001:00118dd0       ?fadein@oggstream@@QAEXHH@Z 00519dd0 f   oggstream.obj
 0001:00118e20       ?fadeout@oggstream@@QAEXHH@Z 00519e20 f   oggstream.obj
 0001:00118e60       ?playback@oggstream@@QAE_N_N@Z 00519e60 f   oggstream.obj
 0001:00118fa0       ?playing@oggstream@@QAE_NXZ 00519fa0 f   oggstream.obj
 0001:00118fd0       ?seek@oggstream@@QAEXN@Z   00519fd0 f   oggstream.obj
 0001:00119040       ?setvolume@oggstream@@QAEXM@Z 0051a040 f   oggstream.obj
 0001:00119060       ?reset@oggstream@@QAEXXZ   0051a060 f   oggstream.obj
 0001:001191b0       ?update@oggstream@@QAE_NXZ 0051a1b0 f   oggstream.obj
 0001:00119390       ?unload@sbuffer@@QAEXXZ    0051a390 f   openal.obj
 0001:001193e0       ??0sbuffer@@QAE@XZ         0051a3e0 f   openal.obj
 0001:001193f0       ?secoffset@source@@QAE_NM@Z 0051a3f0 f   openal.obj
 0001:00119440       ?state@source@@QAEHXZ      0051a440 f   openal.obj
 0001:00119460       ?position@source@@QAE?AUvec@@XZ 0051a460 f   openal.obj
 0001:001194e0       ?velocity@source@@QAE_NMMM@Z 0051a4e0 f   openal.obj
 0001:00119540       ?position@source@@QAE_NMMM@Z 0051a540 f   openal.obj
 0001:00119680       ?position@source@@QAE_NABUvec@@@Z 0051a680 f   openal.obj
 0001:001196a0       ?pitch@source@@QAE_NM@Z    0051a6a0 f   openal.obj
 0001:00119700       ?looping@source@@QAE_N_N@Z 0051a700 f   openal.obj
 0001:00119740       ?delete_@source@@QAE_NXZ   0051a740 f   openal.obj
 0001:00119770       ?generate@source@@QAE_NXZ  0051a770 f   openal.obj
 0001:001197a0       ?onreassign@source@@QAEXXZ 0051a7a0 f   openal.obj
 0001:001197c0       ?reset@source@@QAEXXZ      0051a7c0 f   openal.obj
 0001:00119980       ?unlock@source@@QAEXXZ     0051a980 f   openal.obj
 0001:001199d0       ?lock@source@@QAEXXZ       0051a9d0 f   openal.obj
 0001:001199e0       ??1source@@QAE@XZ          0051a9e0 f   openal.obj
 0001:00119a10       ??0source@@QAE@XZ          0051aa10 f   openal.obj
 0001:00119a70       ?init@source@@QAEXPAVsourceowner@@@Z 0051aa70 f   openal.obj
 0001:00119a80       ?sourcerelative@source@@QAE_N_N@Z 0051aa80 f   openal.obj
 0001:00119ac0       ?alclearerr@@YAXXZ         0051aac0 f   openal.obj
 0001:00119ad0       ?stop@source@@QAE_NXZ      0051aad0 f   openal.obj
 0001:00119b00       ?unqueueallbuffers@source@@QAE_NXZ 0051ab00 f   openal.obj
 0001:00119b80       ?buffer@source@@QAE_NI@Z   0051ab80 f   openal.obj
 0001:00119bc0       ?playing@source@@QAE_NXZ   0051abc0 f   openal.obj
 0001:00119bf0       ?queuebuffers@source@@QAE_NHPBI@Z 0051abf0 f   openal.obj
 0001:00119c30       ?play@source@@QAE_NXZ      0051ac30 f   openal.obj
 0001:00119c60       ??1bufferhashtable@@UAE@XZ 0051ac60 f   openal.obj
 0001:00119c90       ?alerr@@YA_N_NHPBDZZ       0051ac90 f   openal.obj
 0001:00119da0       ?find@bufferhashtable@@UAEPAVsbuffer@@PBD@Z 0051ada0 f   openal.obj
 0001:00119ed0       ?load@sbuffer@@QAE_N_N@Z   0051aed0 f   openal.obj
 0001:0011a330       ?gain@source@@QAE_NM@Z     0051b330 f   openal.obj
 0001:0011a390       ??1sbuffer@@QAE@XZ         0051b390 f   openal.obj
 0001:0011a3e0       ?delete_@locvector@@QAEXH@Z 0051b3e0 f   soundlocation.obj
 0001:0011a430       ?setvolume@location@@QAE_NM@Z 0051b430 f   soundlocation.obj
 0001:0011a4d0       ?update@location@@QAEXXZ   0051b4d0 f   soundlocation.obj
 0001:0011a530       ?updatepos@location@@QAEXXZ 0051b530 f   soundlocation.obj
 0001:0011a780       ?onsourcereassign@location@@UAEXPAVsource@@@Z 0051b780 f   soundlocation.obj
 0001:0011a7a0       ?evaluateworldobjref@location@@QAEXXZ 0051b7a0 f   soundlocation.obj
 0001:0011a7f0       ?attachworldobjreference@location@@QAEXABVworldobjreference@@@Z 0051b7f0 f   soundlocation.obj
 0001:0011a880       ??1location@@UAE@XZ        0051b880 f   soundlocation.obj
 0001:0011a900       ?deleteworldobjsounds@locvector@@QAEXXZ 0051b900 f   soundlocation.obj
 0001:0011a9a0       ?replaceworldobjreference@locvector@@QAEXABVworldobjreference@@0@Z 0051b9a0 f   soundlocation.obj
 0001:0011a9f0       ??0location@@QAE@HABVworldobjreference@@H@Z 0051b9f0 f   soundlocation.obj
 0001:0011acb0       ?offset@location@@QAEXM@Z  0051bcb0 f   soundlocation.obj
 0001:0011ad00       ?pitch@location@@QAEXM@Z   0051bd00 f   soundlocation.obj
 0001:0011ad70       ?play@location@@QAEX_N@Z   0051bd70 f   soundlocation.obj
 0001:0011adf0       ?forcepitch@locvector@@QAEXM@Z 0051bdf0 f   soundlocation.obj
 0001:0011ae80       ?updatelocations@locvector@@QAEXXZ 0051be80 f   soundlocation.obj
 0001:0011afe0       ?find@locvector@@QAEPAVlocation@@HPAVworldobjreference@@ABU?$vector@Usoundconfig@@@@@Z 0051bfe0 f   soundlocation.obj
 0001:0011b060       ?drop@location@@QAEXXZ     0051c060 f   soundlocation.obj
 0001:0011b0b0       ??0sourcescheduler@@QAE@XZ 0051c0b0 f   soundscheduler.obj
 0001:0011b0d0       ?newsource@sourcescheduler@@QAEPAVsource@@HABUvec@@@Z 0051c0d0 f   soundscheduler.obj
 0001:0011b360       ?releasesource@sourcescheduler@@QAEXPAVsource@@@Z 0051c360 f   soundscheduler.obj
 0001:0011b420       ?init@sourcescheduler@@QAEXH@Z 0051c420 f   soundscheduler.obj
 0001:0011b5f0       ?instance@sourcescheduler@@SAAAV1@XZ 0051c5f0 f   soundscheduler.obj
 0001:0011b620       ?reset@sourcescheduler@@QAEXXZ 0051c620 f   soundscheduler.obj
 0001:0011bf90       ?gmode_possible@@YAH_N00@Z 0051cf90 f   protocol1.obj
 0001:0011bfd0       ?acronymmodestr@@YAPBDH@Z  0051cfd0 f   protocol1.obj
 0001:0011bff0       ?trimtrailingwhitespace@@YAXPAD@Z 0051cff0 f   protocol1.obj
 0001:0011c030       ?putgzbuf@@YAXAAU?$vector@E@@0@Z 0051d030 f   protocol1.obj
 0001:0011c110       ?validmapname@@YA_NPBD@Z   0051d110 f   protocol1.obj
 0001:0011c1f0       ?gmode_enum@@YAPADHPAD@Z   0051d1f0 f   protocol1.obj
 0001:0011c330       ?gmode_parse@@YAHPBD@Z     0051d330 f   protocol1.obj
 0001:0011c410       ?filterrichtext@@YAXPADPBDH@Z 0051d410 f   protocol1.obj
 0001:0011c5b0       ?putint@@YAXAAU?$vector@E@@H@Z 0051d5b0 f   protocol1.obj
 0001:0011c5c0       ?putuint@@YAXAAU?$vector@E@@H@Z 0051d5c0 f   protocol1.obj
 0001:0011c5d0       ?putaint@@YAXAAUpacketbuf@@H@Z 0051d5d0 f   protocol1.obj
 0001:0011c6b0       ?fullmodestr@@YAPBDH@Z     0051d6b0 f   protocol1.obj
 0001:0011c6d0       ?filterlang@@YAXPADPBD@Z   0051d6d0 f   protocol1.obj
 0001:0011c730       ?lastclactionslookup@@YAHH@Z 0051d730 f   protocol1.obj
 0001:0011c750       ?sendstring@@YAXPBDAAU?$vector@E@@@Z 0051d750 f   protocol1.obj
 0001:0011c780       ?getint@@YAHAAU?$databuf@E@@@Z 0051d780 f   protocol1.obj
 0001:0011c890       ?getuint@@YAHAAU?$databuf@E@@@Z 0051d890 f   protocol1.obj
 0001:0011c960       ?getuintn@@YA_KAAU?$databuf@E@@H@Z 0051d960 f   protocol1.obj
 0001:0011ca60       ?decodeyaw@@YAMH@Z         0051da60 f   protocol1.obj
 0001:0011ca80       ?decodepitch@@YAMH@Z       0051da80 f   protocol1.obj
 0001:0011cad0       ?getip4@@YAIAAU?$databuf@E@@@Z 0051dad0 f   protocol1.obj
 0001:0011cb80       ?filtercountrycode@@YAXPADPBD@Z 0051db80 f   protocol1.obj
 0001:0011cbf0       ?putip4@@YAXAAUpacketbuf@@I@Z 0051dbf0 f   protocol1.obj
 0001:0011cc50       ?getstring@@YAXPADAAU?$databuf@E@@H@Z 0051dc50 f   protocol1.obj
 0001:0011cd30       ?getgzbuf@@YAPAU?$databuf@E@@AAU1@@Z 0051dd30 f   protocol1.obj
 0001:0011ce10       ?freegzbuf@@YAXPAU?$databuf@E@@@Z 0051de10 f   protocol1.obj
 0001:0011ce30       ?modestr@@YAPBDH_N@Z       0051de30 f   protocol1.obj
 0001:0011ce70       ?mmfullname@@YAPBDH@Z      0051de70 f   protocol1.obj
 0001:0011ce90       ?defaultgamelimit@@YAHH@Z  0051de90 f   protocol1.obj
 0001:0011cee0       ?voteerrorstr@@YAPBDH@Z    0051dee0 f   protocol1.obj
 0001:0011cf00       ?putint@@YAXAAU?$databuf@E@@H@Z 0051df00 f   protocol1.obj
 0001:0011cf10       ?putaint@@YAXAAU?$databuf@E@@H@Z 0051df10 f   protocol1.obj
 0001:0011cf20       ?sendstring@@YAXPBDAAU?$databuf@E@@@Z 0051df20 f   protocol1.obj
 0001:0011cf50       ?msgsizelookup@@YAHH@Z     0051df50 f   protocol1.obj
 0001:0011cfb0       ?encodeyaw@@YAHM@Z         0051dfb0 f   protocol1.obj
 0001:0011d020       ?encodepitch@@YAHM@Z       0051e020 f   protocol1.obj
 0001:0011d090       ?putint@@YAXAAUpacketbuf@@H@Z 0051e090 f   protocol1.obj
 0001:0011d160       ?putuint@@YAXAAUpacketbuf@@H@Z 0051e160 f   protocol1.obj
 0001:0011d240       ?putuintn@@YAXAAUpacketbuf@@_KH@Z 0051e240 f   protocol1.obj
 0001:0011d2e0       ?sendstring@@YAXPBDAAUpacketbuf@@@Z 0051e2e0 f   protocol1.obj
 0001:0011d320       ?disc_reason@@YAPBDH@Z     0051e320 f   protocol1.obj
 0001:0011d3f0       ?escapestring@@YAPBDPBD_N1PAU?$vector@D@@@Z 0051e3f0 f   protocol1.obj
 0001:0011d740       ?filtertext@@YAPADPADPBDHH@Z 0051e740 f   protocol1.obj
 0001:0011db00       ___vdecl_sinf4             0051eb00 f   LIBCMT:svml_ssinf4_dispatch.obj
 0001:0011db20       ___libm_sse2_sincosf_      0051eb20 f   LIBCMT:svml_ssinf4_dispatch.obj
 0001:0011db70       ___libm_sse2_sincosf4_     0051eb70 f   LIBCMT:svml_ssinf4_dispatch.obj
 0001:0011db80       __ftoui3                   0051eb80 f   LIBCMT:ftol3.obj
 0001:0011dbd0       ___sse2_sinf4@@16          0051ebd0 f   LIBCMT:svml_ssinf4_sse2.obj
 0001:0011dd90       ___sse4_sinf4@@16          0051ed90 f   LIBCMT:svml_ssinf4_sse4.obj
 0001:0011e430       ___common_sin_reduction_LA 0051f430 f   LIBCMT:svml_dtrig.obj
 0001:0011e7c0       ___common_ssin_cout_rare   0051f7c0 f   LIBCMT:svml_s_sin_cout.obj
 0001:0011e850       __except_handler3          0051f850 f   libvcruntime:exsup3.obj
 0001:0011e970       _memchr                    0051f970 f   libvcruntime:memchr.obj
 0001:0011ea1d       _CallDestructExceptionObject 0051fa1d f   libvcruntime:calldtor.obj
 0001:0011eb20       __ValidateEH3RN            0051fb20 f   libvcruntime:eh3valid.obj
 0001:0011eed0       __CIfmod                   0051fed0 f   libucrt:87fmod_impl.obj
 0001:0011eee0       __fFMOD                    0051fee0 f   libucrt:87fmod_impl.obj
 0001:0011eeee       ___libm_sse2_acosf         0051feee f   libucrt:acosf_sse2.obj
 0001:0011f2cb       ___libm_sse2_asin          005202cb f   libucrt:asin_sse2.obj
 0001:0011f714       ___libm_sse2_atan2         00520714 f   libucrt:atan2_sse2.obj
 0001:0011fc2a       ___libm_sse2_cosf          00520c2a f   libucrt:cosf_sse2.obj
 0001:0011fd77       ___libm_sse2_pow           00520d77 f   libucrt:pow_sse2.obj
 0001:001207ef       ___libm_sse2_powf          005217ef f   libucrt:powf_sse2.obj
 0001:00120ea2       ___libm_sse2_sin           00521ea2 f   libucrt:sin_sse2.obj
 0001:00121050       ___libm_sse2_sinf          00522050 f   libucrt:sinf_sse2.obj
 0001:00121195       ___libm_sse2_tan           00522195 f   libucrt:tan_sse2.obj
 0001:001213e0       __cintrindisp2             005223e0 f   libucrt:87cdisp.obj
 0001:00121430       __cintrindisp1             00522430 f   libucrt:87cdisp.obj
 0001:00121479       __ctrandisp2               00522479 f   libucrt:87cdisp.obj
 0001:00121608       __ctrandisp1               00522608 f   libucrt:87cdisp.obj
 0001:0012163b       __fload                    0052263b f   libucrt:87cdisp.obj
 0001:00121680       _cos                       00522680 f   libucrt:cos.obj
 0001:001216d0       _sin                       005226d0 f   libucrt:sin.obj
 0001:00121720       _tan                       00522720 f   libucrt:tan.obj
 0001:00121770       __CIcos                    00522770 f   libucrt:cos_impl.obj
 0001:001217ab       __CIcos_default            005227ab f   libucrt:cos_impl.obj
 0001:001217bf       __cos_default              005227bf     libucrt:cos_impl.obj
 0001:00121860       __CIcos_pentium4           00522860 f   libucrt:cos_pentium4.obj
 0001:00121878       __cos_pentium4             00522878     libucrt:cos_pentium4.obj
 0001:00121a10       __CIsin                    00522a10 f   libucrt:sin_impl.obj
 0001:00121a4b       __CIsin_default            00522a4b f   libucrt:sin_impl.obj
 0001:00121a5f       __sin_default              00522a5f     libucrt:sin_impl.obj
 0001:00121b00       __CIsin_pentium4           00522b00 f   libucrt:sin_pentium4.obj
 0001:00121b18       __sin_pentium4             00522b18     libucrt:sin_pentium4.obj
 0001:00121cd0       __CItan                    00522cd0 f   libucrt:tan_impl.obj
 0001:00121d0b       __CItan_default            00522d0b f   libucrt:tan_impl.obj
 0001:00121d1f       __tan_default              00522d1f     libucrt:tan_impl.obj
 0001:00121dc0       __CItan_pentium4           00522dc0 f   libucrt:tan_pentium4.obj
 0001:00121dd8       __tan_pentium4             00522dd8     libucrt:tan_pentium4.obj
 0001:001222f0       ??__Fside@?1??genshadowvolume@mesh@vertmodel@@QAEPAUshadowcacheentry@2@AAUanimstate@@AAUanpos@2@PAU52@MPAUvec@@@Z@YAXXZ 005232f0 f i rendermodel.obj
 0002:00000000       __imp__RegOpenKeyExA@20    00525000     advapi32:ADVAPI32.dll
 0002:00000004       __imp__RegCloseKey@4       00525004     advapi32:ADVAPI32.dll
 0002:00000008       __imp__RegQueryValueExA@24 00525008     advapi32:ADVAPI32.dll
 0002:0000000c       \177ADVAPI32_NULL_THUNK_DATA 0052500c     advapi32:ADVAPI32.dll
 0002:00000010       __imp__TlsAlloc@0          00525010     kernel32:KERNEL32.dll
 0002:00000014       __imp__SetLastError@4      00525014     kernel32:KERNEL32.dll
 0002:00000018       __imp__LocalFree@4         00525018     kernel32:KERNEL32.dll
 0002:0000001c       __imp__WriteConsoleW@20    0052501c     kernel32:KERNEL32.dll
 0002:00000020       __imp__GetLastError@0      00525020     kernel32:KERNEL32.dll
 0002:00000024       __imp__RtlUnwind@16        00525024     kernel32:KERNEL32.dll
 0002:00000028       __imp__RaiseException@16   00525028     kernel32:KERNEL32.dll
 0002:0000002c       __imp__TerminateProcess@8  0052502c     kernel32:KERNEL32.dll
 0002:00000030       __imp__InitializeSListHead@4 00525030     kernel32:KERNEL32.dll
 0002:00000034       __imp__GetSystemTimeAsFileTime@4 00525034     kernel32:KERNEL32.dll
 0002:00000038       __imp__GetCurrentThreadId@0 00525038     kernel32:KERNEL32.dll
 0002:0000003c       __imp__GetCurrentProcessId@0 0052503c     kernel32:KERNEL32.dll
 0002:00000040       __imp__TlsSetValue@8       00525040     kernel32:KERNEL32.dll
 0002:00000044       __imp__GetStartupInfoW@4   00525044     kernel32:KERNEL32.dll
 0002:00000048       __imp__SetUnhandledExceptionFilter@4 00525048     kernel32:KERNEL32.dll
 0002:0000004c       __imp__UnhandledExceptionFilter@4 0052504c     kernel32:KERNEL32.dll
 0002:00000050       __imp__IsDebuggerPresent@0 00525050     kernel32:KERNEL32.dll
 0002:00000054       __imp__IsProcessorFeaturePresent@4 00525054     kernel32:KERNEL32.dll
 0002:00000058       __imp__GetProcAddress@8    00525058     kernel32:KERNEL32.dll
 0002:0000005c       __imp__GetModuleHandleW@4  0052505c     kernel32:KERNEL32.dll
 0002:00000060       __imp__CreateEventW@16     00525060     kernel32:KERNEL32.dll
 0002:00000064       __imp__WaitForSingleObjectEx@12 00525064     kernel32:KERNEL32.dll
 0002:00000068       __imp__ResetEvent@4        00525068     kernel32:KERNEL32.dll
 0002:0000006c       __imp__SetEvent@4          0052506c     kernel32:KERNEL32.dll
 0002:00000070       __imp__DeleteCriticalSection@4 00525070     kernel32:KERNEL32.dll
 0002:00000074       __imp__InitializeCriticalSectionAndSpinCount@8 00525074     kernel32:KERNEL32.dll
 0002:00000078       __imp__LeaveCriticalSection@4 00525078     kernel32:KERNEL32.dll
 0002:0000007c       __imp__EnterCriticalSection@4 0052507c     kernel32:KERNEL32.dll
 0002:00000080       __imp__TlsGetValue@4       00525080     kernel32:KERNEL32.dll
 0002:00000084       __imp__TlsFree@4           00525084     kernel32:KERNEL32.dll
 0002:00000088       __imp__QueryPerformanceCounter@4 00525088     kernel32:KERNEL32.dll
 0002:0000008c       __imp__VirtualQuery@12     0052508c     kernel32:KERNEL32.dll
 0002:00000090       __imp__LoadLibraryExW@12   00525090     kernel32:KERNEL32.dll
 0002:00000094       __imp__EncodePointer@4     00525094     kernel32:KERNEL32.dll
 0002:00000098       __imp__GetCurrentThread@0  00525098     kernel32:KERNEL32.dll
 0002:0000009c       __imp__SetEndOfFile@4      0052509c     kernel32:KERNEL32.dll
 0002:000000a0       __imp__HeapReAlloc@16      005250a0     kernel32:KERNEL32.dll
 0002:000000a4       __imp__HeapSize@12         005250a4     kernel32:KERNEL32.dll
 0002:000000a8       __imp__CreateFileW@28      005250a8     kernel32:KERNEL32.dll
 0002:000000ac       __imp__GetStringTypeW@16   005250ac     kernel32:KERNEL32.dll
 0002:000000b0       __imp__GetProcessHeap@0    005250b0     kernel32:KERNEL32.dll
 0002:000000b4       __imp__SetEnvironmentVariableW@8 005250b4     kernel32:KERNEL32.dll
 0002:000000b8       __imp__FreeEnvironmentStringsW@4 005250b8     kernel32:KERNEL32.dll
 0002:000000bc       __imp__GetEnvironmentStringsW@0 005250bc     kernel32:KERNEL32.dll
 0002:000000c0       __imp__GetCommandLineW@0   005250c0     kernel32:KERNEL32.dll
 0002:000000c4       __imp__GetCommandLineA@0   005250c4     kernel32:KERNEL32.dll
 0002:000000c8       __imp__GetCPInfo@8         005250c8     kernel32:KERNEL32.dll
 0002:000000cc       __imp__FindClose@4         005250cc     kernel32:KERNEL32.dll
 0002:000000d0       __imp__FindNextFileA@8     005250d0     kernel32:KERNEL32.dll
 0002:000000d4       __imp__FindFirstFileA@8    005250d4     kernel32:KERNEL32.dll
 0002:000000d8       __imp__CreateDirectoryA@8  005250d8     kernel32:KERNEL32.dll
 0002:000000dc       __imp__GetFileAttributesA@4 005250dc     kernel32:KERNEL32.dll
 0002:000000e0       __imp__GetCurrentProcess@0 005250e0     kernel32:KERNEL32.dll
 0002:000000e4       __imp__SetPriorityClass@8  005250e4     kernel32:KERNEL32.dll
 0002:000000e8       __imp__CloseHandle@4       005250e8     kernel32:KERNEL32.dll
 0002:000000ec       __imp__Process32Next@8     005250ec     kernel32:KERNEL32.dll
 0002:000000f0       __imp__Process32First@8    005250f0     kernel32:KERNEL32.dll
 0002:000000f4       __imp__CreateToolhelp32Snapshot@8 005250f4     kernel32:KERNEL32.dll
 0002:000000f8       __imp__ExitProcess@4       005250f8     kernel32:KERNEL32.dll
 0002:000000fc       __imp__GetModuleHandleExW@12 005250fc     kernel32:KERNEL32.dll
 0002:00000100       __imp__SetConsoleCtrlHandler@8 00525100     kernel32:KERNEL32.dll
 0002:00000104       __imp__CreateThread@24     00525104     kernel32:KERNEL32.dll
 0002:00000108       __imp__ExitThread@4        00525108     kernel32:KERNEL32.dll
 0002:0000010c       __imp__FreeLibraryAndExitThread@8 0052510c     kernel32:KERNEL32.dll
 0002:00000110       __imp__ReadFile@20         00525110     kernel32:KERNEL32.dll
 0002:00000114       __imp__GetModuleFileNameW@12 00525114     kernel32:KERNEL32.dll
 0002:00000118       __imp__GetStdHandle@4      00525118     kernel32:KERNEL32.dll
 0002:0000011c       __imp__WriteFile@20        0052511c     kernel32:KERNEL32.dll
 0002:00000120       __imp__HeapFree@12         00525120     kernel32:KERNEL32.dll
 0002:00000124       __imp__HeapAlloc@12        00525124     kernel32:KERNEL32.dll
 0002:00000128       __imp__GetFileType@4       00525128     kernel32:KERNEL32.dll
 0002:0000012c       __imp__GetDateFormatW@24   0052512c     kernel32:KERNEL32.dll
 0002:00000130       __imp__GetTimeFormatW@24   00525130     kernel32:KERNEL32.dll
 0002:00000134       __imp__CompareStringW@24   00525134     kernel32:KERNEL32.dll
 0002:00000138       __imp__LCMapStringW@24     00525138     kernel32:KERNEL32.dll
 0002:0000013c       __imp__GetLocaleInfoW@16   0052513c     kernel32:KERNEL32.dll
 0002:00000140       __imp__IsValidLocale@8     00525140     kernel32:KERNEL32.dll
 0002:00000144       __imp__GetUserDefaultLCID@0 00525144     kernel32:KERNEL32.dll
 0002:00000148       __imp__EnumSystemLocalesW@8 00525148     kernel32:KERNEL32.dll
 0002:0000014c       __imp__GetConsoleOutputCP@0 0052514c     kernel32:KERNEL32.dll
 0002:00000150       __imp__GetConsoleMode@8    00525150     kernel32:KERNEL32.dll
 0002:00000154       __imp__GetFileSizeEx@8     00525154     kernel32:KERNEL32.dll
 0002:00000158       __imp__SetFilePointerEx@20 00525158     kernel32:KERNEL32.dll
 0002:0000015c       __imp__MultiByteToWideChar@24 0052515c     kernel32:KERNEL32.dll
 0002:00000160       __imp__DeleteFileW@4       00525160     kernel32:KERNEL32.dll
 0002:00000164       __imp__DecodePointer@4     00525164     kernel32:KERNEL32.dll
 0002:00000168       __imp__MoveFileExW@12      00525168     kernel32:KERNEL32.dll
 0002:0000016c       __imp__ReadConsoleW@20     0052516c     kernel32:KERNEL32.dll
 0002:00000170       __imp__FlushFileBuffers@4  00525170     kernel32:KERNEL32.dll
 0002:00000174       __imp__GetTimeZoneInformation@4 00525174     kernel32:KERNEL32.dll
 0002:00000178       __imp__WideCharToMultiByte@32 00525178     kernel32:KERNEL32.dll
 0002:0000017c       __imp__SetStdHandle@8      0052517c     kernel32:KERNEL32.dll
 0002:00000180       __imp__FindFirstFileExW@24 00525180     kernel32:KERNEL32.dll
 0002:00000184       __imp__FindNextFileW@8     00525184     kernel32:KERNEL32.dll
 0002:00000188       __imp__IsValidCodePage@4   00525188     kernel32:KERNEL32.dll
 0002:0000018c       __imp__GetACP@0            0052518c     kernel32:KERNEL32.dll
 0002:00000190       __imp__GetOEMCP@0          00525190     kernel32:KERNEL32.dll
 0002:00000194       __imp__FreeLibrary@4       00525194     kernel32:KERNEL32.dll
 0002:00000198       \177KERNEL32_NULL_THUNK_DATA 00525198     kernel32:KERNEL32.dll
 0002:0000019c       __imp__glClearStencil@4    0052519c     opengl32:OPENGL32.dll
 0002:000001a0       __imp__glPolygonMode@8     005251a0     opengl32:OPENGL32.dll
 0002:000001a4       __imp__glColor4ub@16       005251a4     opengl32:OPENGL32.dll
 0002:000001a8       __imp__glDeleteLists@8     005251a8     opengl32:OPENGL32.dll
 0002:000001ac       __imp__glAlphaFunc@8       005251ac     opengl32:OPENGL32.dll
 0002:000001b0       __imp__glCallList@4        005251b0     opengl32:OPENGL32.dll
 0002:000001b4       __imp__glDrawElements@16   005251b4     opengl32:OPENGL32.dll
 0002:000001b8       __imp__glNewList@8         005251b8     opengl32:OPENGL32.dll
 0002:000001bc       __imp__glGenLists@4        005251bc     opengl32:OPENGL32.dll
 0002:000001c0       __imp__glEndList@0         005251c0     opengl32:OPENGL32.dll
 0002:000001c4       __imp__glMultMatrixf@4     005251c4     opengl32:OPENGL32.dll
 0002:000001c8       __imp__glPixelStorei@8     005251c8     opengl32:OPENGL32.dll
 0002:000001cc       __imp__glTexCoord2i@8      005251cc     opengl32:OPENGL32.dll
 0002:000001d0       __imp__glVertex3fv@4       005251d0     opengl32:OPENGL32.dll
 0002:000001d4       __imp__glStencilFunc@12    005251d4     opengl32:OPENGL32.dll
 0002:000001d8       __imp__glStencilOp@12      005251d8     opengl32:OPENGL32.dll
 0002:000001dc       __imp__glTexImage2D@36     005251dc     opengl32:OPENGL32.dll
 0002:000001e0       __imp__glTexParameteri@12  005251e0     opengl32:OPENGL32.dll
 0002:000001e4       __imp__glTexEnvi@12        005251e4     opengl32:OPENGL32.dll
 0002:000001e8       __imp__glTexEnvfv@12       005251e8     opengl32:OPENGL32.dll
 0002:000001ec       __imp__glVertex2d@16       005251ec     opengl32:OPENGL32.dll
 0002:000001f0       __imp__glColor3d@24        005251f0     opengl32:OPENGL32.dll
 0002:000001f4       __imp__glGetTexImage@20    005251f4     opengl32:OPENGL32.dll
 0002:000001f8       __imp__glScalef@12         005251f8     opengl32:OPENGL32.dll
 0002:000001fc       __imp__glDeleteTextures@8  005251fc     opengl32:OPENGL32.dll
 0002:00000200       __imp__glGenTextures@8     00525200     opengl32:OPENGL32.dll
 0002:00000204       __imp__glScissor@16        00525204     opengl32:OPENGL32.dll
 0002:00000208       __imp__glClear@4           00525208     opengl32:OPENGL32.dll
 0002:0000020c       __imp__glOrtho@48          0052520c     opengl32:OPENGL32.dll
 0002:00000210       __imp__glColor4ubv@4       00525210     opengl32:OPENGL32.dll
 0002:00000214       __imp__glCopyTexSubImage2D@32 00525214     opengl32:OPENGL32.dll
 0002:00000218       __imp__glClearColor@16     00525218     opengl32:OPENGL32.dll
 0002:0000021c       __imp__glGetFloatv@8       0052521c     opengl32:OPENGL32.dll
 0002:00000220       __imp__glFrustum@48        00525220     opengl32:OPENGL32.dll
 0002:00000224       __imp__glPopMatrix@0       00525224     opengl32:OPENGL32.dll
 0002:00000228       __imp__glRotatef@16        00525228     opengl32:OPENGL32.dll
 0002:0000022c       __imp__glTranslatef@12     0052522c     opengl32:OPENGL32.dll
 0002:00000230       __imp__glPushMatrix@0      00525230     opengl32:OPENGL32.dll
 0002:00000234       __imp__glColor3f@12        00525234     opengl32:OPENGL32.dll
 0002:00000238       __imp__glBlendFunc@8       00525238     opengl32:OPENGL32.dll
 0002:0000023c       __imp__glReadPixels@28     0052523c     opengl32:OPENGL32.dll
 0002:00000240       __imp__glDepthMask@4       00525240     opengl32:OPENGL32.dll
 0002:00000244       __imp__glTexCoord2f@8      00525244     opengl32:OPENGL32.dll
 0002:00000248       __imp__glColor3ub@12       00525248     opengl32:OPENGL32.dll
 0002:0000024c       __imp__glLineWidth@4       0052524c     opengl32:OPENGL32.dll
 0002:00000250       __imp__glVertex2f@8        00525250     opengl32:OPENGL32.dll
 0002:00000254       __imp__glColor4f@16        00525254     opengl32:OPENGL32.dll
 0002:00000258       __imp__glEnd@0             00525258     opengl32:OPENGL32.dll
 0002:0000025c       __imp__glVertex3f@12       0052525c     opengl32:OPENGL32.dll
 0002:00000260       __imp__glBegin@4           00525260     opengl32:OPENGL32.dll
 0002:00000264       __imp__glNormalPointer@12  00525264     opengl32:OPENGL32.dll
 0002:00000268       __imp__glLoadMatrixf@4     00525268     opengl32:OPENGL32.dll
 0002:0000026c       __imp__glMatrixMode@4      0052526c     opengl32:OPENGL32.dll
 0002:00000270       __imp__glPolygonOffset@8   00525270     opengl32:OPENGL32.dll
 0002:00000274       __imp__glLoadIdentity@0    00525274     opengl32:OPENGL32.dll
 0002:00000278       __imp__glCullFace@4        00525278     opengl32:OPENGL32.dll
 0002:0000027c       __imp__glFogfv@8           0052527c     opengl32:OPENGL32.dll
 0002:00000280       __imp__glEnableClientState@4 00525280     opengl32:OPENGL32.dll
 0002:00000284       __imp__glVertexPointer@16  00525284     opengl32:OPENGL32.dll
 0002:00000288       __imp__glColorPointer@16   00525288     opengl32:OPENGL32.dll
 0002:0000028c       __imp__glTexCoordPointer@16 0052528c     opengl32:OPENGL32.dll
 0002:00000290       __imp__glDisable@4         00525290     opengl32:OPENGL32.dll
 0002:00000294       __imp__glColorMask@16      00525294     opengl32:OPENGL32.dll
 0002:00000298       __imp__glDrawArrays@12     00525298     opengl32:OPENGL32.dll
 0002:0000029c       __imp__glEnable@4          0052529c     opengl32:OPENGL32.dll
 0002:000002a0       __imp__glBindTexture@8     005252a0     opengl32:OPENGL32.dll
 0002:000002a4       __imp__glDisableClientState@4 005252a4     opengl32:OPENGL32.dll
 0002:000002a8       __imp__glGetString@4       005252a8     opengl32:OPENGL32.dll
 0002:000002ac       __imp__glGetIntegerv@8     005252ac     opengl32:OPENGL32.dll
 0002:000002b0       __imp__glViewport@16       005252b0     opengl32:OPENGL32.dll
 0002:000002b4       __imp__glClearDepth@8      005252b4     opengl32:OPENGL32.dll
 0002:000002b8       __imp__glDepthFunc@4       005252b8     opengl32:OPENGL32.dll
 0002:000002bc       __imp__glShadeModel@4      005252bc     opengl32:OPENGL32.dll
 0002:000002c0       __imp__glFogi@8            005252c0     opengl32:OPENGL32.dll
 0002:000002c4       __imp__glFogf@8            005252c4     opengl32:OPENGL32.dll
 0002:000002c8       __imp__glHint@8            005252c8     opengl32:OPENGL32.dll
 0002:000002cc       \177OPENGL32_NULL_THUNK_DATA 005252cc     opengl32:OPENGL32.dll
 0002:000002d0       __imp__alSourceStop        005252d0     openal32:OpenAL32.dll
 0002:000002d4       __imp__alSourcePlay        005252d4     openal32:OpenAL32.dll
 0002:000002d8       __imp__alGetSourcefv       005252d8     openal32:OpenAL32.dll
 0002:000002dc       __imp__alSource3f          005252dc     openal32:OpenAL32.dll
 0002:000002e0       __imp__alSourcei           005252e0     openal32:OpenAL32.dll
 0002:000002e4       __imp__alDeleteSources     005252e4     openal32:OpenAL32.dll
 0002:000002e8       __imp__alGenSources        005252e8     openal32:OpenAL32.dll
 0002:000002ec       __imp__alSourcef           005252ec     openal32:OpenAL32.dll
 0002:000002f0       __imp__alIsSource          005252f0     openal32:OpenAL32.dll
 0002:000002f4       __imp__alSourceQueueBuffers 005252f4     openal32:OpenAL32.dll
 0002:000002f8       __imp__alSourceUnqueueBuffers 005252f8     openal32:OpenAL32.dll
 0002:000002fc       __imp__alGetSourcei        005252fc     openal32:OpenAL32.dll
 0002:00000300       __imp__alcIsExtensionPresent 00525300     openal32:OpenAL32.dll
 0002:00000304       __imp__alBufferData        00525304     openal32:OpenAL32.dll
 0002:00000308       __imp__alDeleteBuffers     00525308     openal32:OpenAL32.dll
 0002:0000030c       __imp__alIsBuffer          0052530c     openal32:OpenAL32.dll
 0002:00000310       __imp__alGenBuffers        00525310     openal32:OpenAL32.dll
 0002:00000314       __imp__alcProcessContext   00525314     openal32:OpenAL32.dll
 0002:00000318       __imp__alListenerfv        00525318     openal32:OpenAL32.dll
 0002:0000031c       __imp__alcSuspendContext   0052531c     openal32:OpenAL32.dll
 0002:00000320       __imp__alListenerf         00525320     openal32:OpenAL32.dll
 0002:00000324       __imp__alcCloseDevice      00525324     openal32:OpenAL32.dll
 0002:00000328       __imp__alcDestroyContext   00525328     openal32:OpenAL32.dll
 0002:0000032c       __imp__alGetString         0052532c     openal32:OpenAL32.dll
 0002:00000330       __imp__alDistanceModel     00525330     openal32:OpenAL32.dll
 0002:00000334       __imp__alcMakeContextCurrent 00525334     openal32:OpenAL32.dll
 0002:00000338       __imp__alcCreateContext    00525338     openal32:OpenAL32.dll
 0002:0000033c       __imp__alcOpenDevice       0052533c     openal32:OpenAL32.dll
 0002:00000340       __imp__alcGetString        00525340     openal32:OpenAL32.dll
 0002:00000344       __imp__alGetError          00525344     openal32:OpenAL32.dll
 0002:00000348       \177OpenAL32_NULL_THUNK_DATA 00525348     openal32:OpenAL32.dll
 0002:0000034c       __imp__SDL_ClearError      0052534c     SDL2:SDL2.dll
 0002:00000350       __imp__SDL_LoadWAV_RW      00525350     SDL2:SDL2.dll
 0002:00000354       __imp__SDL_SemPost         00525354     SDL2:SDL2.dll
 0002:00000358       __imp__SDL_SemValue        00525358     SDL2:SDL2.dll
 0002:0000035c       __imp__SDL_SemWaitTimeout  0052535c     SDL2:SDL2.dll
 0002:00000360       __imp__SDL_SemWait         00525360     SDL2:SDL2.dll
 0002:00000364       __imp__SDL_DestroySemaphore 00525364     SDL2:SDL2.dll
 0002:00000368       __imp__SDL_CreateSemaphore 00525368     SDL2:SDL2.dll
 0002:0000036c       __imp__SDL_AllocRW         0052536c     SDL2:SDL2.dll
 0002:00000370       __imp__SDL_SetWindowIcon   00525370     SDL2:SDL2.dll
 0002:00000374       __imp__SDL_InitSubSystem   00525374     SDL2:SDL2.dll
 0002:00000378       __imp__SDL_GetVersion      00525378     SDL2:SDL2.dll
 0002:0000037c       __imp__SDL_Init            0052537c     SDL2:SDL2.dll
 0002:00000380       __imp__SDL_ShowWindow      00525380     SDL2:SDL2.dll
 0002:00000384       __imp__SDL_HideWindow      00525384     SDL2:SDL2.dll
 0002:00000388       __imp__SDL_WarpMouseInWindow 00525388     SDL2:SDL2.dll
 0002:0000038c       __imp__SDL_StopTextInput   0052538c     SDL2:SDL2.dll
 0002:00000390       __imp__SDL_StartTextInput  00525390     SDL2:SDL2.dll
 0002:00000394       __imp__SDL_Delay           00525394     SDL2:SDL2.dll
 0002:00000398       __imp__SDL_GL_SetSwapInterval 00525398     SDL2:SDL2.dll
 0002:0000039c       __imp__SDL_GL_CreateContext 0052539c     SDL2:SDL2.dll
 0002:000003a0       __imp__SDL_CreateWindow    005253a0     SDL2:SDL2.dll
 0002:000003a4       __imp__SDL_GL_SetAttribute 005253a4     SDL2:SDL2.dll
 0002:000003a8       __imp__SDL_GetDisplayBounds 005253a8     SDL2:SDL2.dll
 0002:000003ac       __imp__SDL_DestroyWindow   005253ac     SDL2:SDL2.dll
 0002:000003b0       __imp__SDL_GL_DeleteContext 005253b0     SDL2:SDL2.dll
 0002:000003b4       __imp__SDL_GetDisplayMode  005253b4     SDL2:SDL2.dll
 0002:000003b8       __imp__SDL_GetNumDisplayModes 005253b8     SDL2:SDL2.dll
 0002:000003bc       __imp__SDL_SetWindowBrightness 005253bc     SDL2:SDL2.dll
 0002:000003c0       __imp__SDL_GetWindowSize   005253c0     SDL2:SDL2.dll
 0002:000003c4       __imp__SDL_SaveBMP_RW      005253c4     SDL2:SDL2.dll
 0002:000003c8       __imp__SDL_SetWindowPosition 005253c8     SDL2:SDL2.dll
 0002:000003cc       __imp__SDL_SetWindowSize   005253cc     SDL2:SDL2.dll
 0002:000003d0       __imp__SDL_SetWindowFullscreen 005253d0     SDL2:SDL2.dll
 0002:000003d4       __imp__SDL_GetWindowFlags  005253d4     SDL2:SDL2.dll
 0002:000003d8       __imp__SDL_SetWindowGrab   005253d8     SDL2:SDL2.dll
 0002:000003dc       __imp__SDL_GetError        005253dc     SDL2:SDL2.dll
 0002:000003e0       __imp__SDL_Quit            005253e0     SDL2:SDL2.dll
 0002:000003e4       __imp__SDL_FreeWAV         005253e4     SDL2:SDL2.dll
 0002:000003e8       __imp__SDL_SetRelativeMouseMode 005253e8     SDL2:SDL2.dll
 0002:000003ec       __imp__SDL_ShowCursor      005253ec     SDL2:SDL2.dll
 0002:000003f0       __imp__SDL_free            005253f0     SDL2:SDL2.dll
 0002:000003f4       __imp__SDL_GetClipboardText 005253f4     SDL2:SDL2.dll
 0002:000003f8       __imp__SDL_GetModState     005253f8     SDL2:SDL2.dll
 0002:000003fc       __imp__SDL_GetScancodeFromName 005253fc     SDL2:SDL2.dll
 0002:00000400       __imp__SDL_GetScancodeName 00525400     SDL2:SDL2.dll
 0002:00000404       __imp__SDL_DestroyMutex    00525404     SDL2:SDL2.dll
 0002:00000408       __imp__SDL_WaitThread      00525408     SDL2:SDL2.dll
 0002:0000040c       __imp__SDL_GetKeyboardState 0052540c     SDL2:SDL2.dll
 0002:00000410       __imp__SDL_PollEvent       00525410     SDL2:SDL2.dll
 0002:00000414       __imp__SDL_CondWaitTimeout 00525414     SDL2:SDL2.dll
 0002:00000418       __imp__SDL_GetTicks        00525418     SDL2:SDL2.dll
 0002:0000041c       __imp__SDL_DetachThread    0052541c     SDL2:SDL2.dll
 0002:00000420       __imp__SDL_CreateThread    00525420     SDL2:SDL2.dll
 0002:00000424       __imp__SDL_CreateCond      00525424     SDL2:SDL2.dll
 0002:00000428       __imp__SDL_CondSignal      00525428     SDL2:SDL2.dll
 0002:0000042c       __imp__SDL_CondWait        0052542c     SDL2:SDL2.dll
 0002:00000430       __imp__SDL_ThreadID        00525430     SDL2:SDL2.dll
 0002:00000434       __imp__SDL_GetThreadID     00525434     SDL2:SDL2.dll
 0002:00000438       __imp__SDL_UnlockMutex     00525438     SDL2:SDL2.dll
 0002:0000043c       __imp__SDL_LockMutex       0052543c     SDL2:SDL2.dll
 0002:00000440       __imp__SDL_SetClipboardText 00525440     SDL2:SDL2.dll
 0002:00000444       __imp__SDL_FreeRW          00525444     SDL2:SDL2.dll
 0002:00000448       __imp__SDL_GetColorKey     00525448     SDL2:SDL2.dll
 0002:0000044c       __imp__SDL_SetSurfaceAlphaMod 0052544c     SDL2:SDL2.dll
 0002:00000450       __imp__SDL_FreeSurface     00525450     SDL2:SDL2.dll
 0002:00000454       __imp__SDL_UpperBlit       00525454     SDL2:SDL2.dll
 0002:00000458       __imp__SDL_CreateRGBSurface 00525458     SDL2:SDL2.dll
 0002:0000045c       __imp__SDL_GL_SwapWindow   0052545c     SDL2:SDL2.dll
 0002:00000460       __imp__SDL_GL_GetProcAddress 00525460     SDL2:SDL2.dll
 0002:00000464       __imp__SDL_SemTryWait      00525464     SDL2:SDL2.dll
 0002:00000468       __imp__SDL_ShowSimpleMessageBox 00525468     SDL2:SDL2.dll
 0002:0000046c       __imp__SDL_SetMainReady    0052546c     SDL2:SDL2.dll
 0002:00000470       __imp__SDL_iconv_string    00525470     SDL2:SDL2.dll
 0002:00000474       __imp__SDL_wcslen          00525474     SDL2:SDL2.dll
 0002:00000478       __imp__SDL_calloc          00525478     SDL2:SDL2.dll
 0002:0000047c       __imp__SDL_CreateMutex     0052547c     SDL2:SDL2.dll
 0002:00000480       \177SDL2_NULL_THUNK_DATA   00525480     SDL2:SDL2.dll
 0002:00000484       __imp__IMG_Load_RW         00525484     SDL2_image:SDL2_image.dll
 0002:00000488       __imp__IMG_Load            00525488     SDL2_image:SDL2_image.dll
 0002:0000048c       \177SDL2_image_NULL_THUNK_DATA 0052548c     SDL2_image:SDL2_image.dll
 0002:00000490       __imp__CommandLineToArgvW@8 00525490     shell32:SHELL32.dll
 0002:00000494       \177SHELL32_NULL_THUNK_DATA 00525494     shell32:SHELL32.dll
 0002:00000498       __imp__MessageBoxA@16      00525498     user32:USER32.dll
 0002:0000049c       \177USER32_NULL_THUNK_DATA 0052549c     user32:USER32.dll
 0002:000004a0       __imp__timeBeginPeriod@4   005254a0     winmm:WINMM.dll
 0002:000004a4       __imp__timeEndPeriod@4     005254a4     winmm:WINMM.dll
 0002:000004a8       __imp__timeGetTime@0       005254a8     winmm:WINMM.dll
 0002:000004ac       \177WINMM_NULL_THUNK_DATA  005254ac     winmm:WINMM.dll
 0002:000004b0       __imp__ntohl@4             005254b0     ws2_32:WS2_32.dll
 0002:000004b4       __imp__htonl@4             005254b4     ws2_32:WS2_32.dll
 0002:000004b8       __imp__select@20           005254b8     ws2_32:WS2_32.dll
 0002:000004bc       __imp__WSARecvFrom@36      005254bc     ws2_32:WS2_32.dll
 0002:000004c0       __imp__WSASendTo@36        005254c0     ws2_32:WS2_32.dll
 0002:000004c4       __imp__closesocket@4       005254c4     ws2_32:WS2_32.dll
 0002:000004c8       __imp__shutdown@8          005254c8     ws2_32:WS2_32.dll
 0002:000004cc       __imp__accept@12           005254cc     ws2_32:WS2_32.dll
 0002:000004d0       __imp__WSAGetLastError@0   005254d0     ws2_32:WS2_32.dll
 0002:000004d4       __imp__connect@12          005254d4     ws2_32:WS2_32.dll
 0002:000004d8       __imp__ioctlsocket@12      005254d8     ws2_32:WS2_32.dll
 0002:000004dc       __imp__setsockopt@20       005254dc     ws2_32:WS2_32.dll
 0002:000004e0       __imp__socket@12           005254e0     ws2_32:WS2_32.dll
 0002:000004e4       __imp__listen@8            005254e4     ws2_32:WS2_32.dll
 0002:000004e8       __imp__bind@12             005254e8     ws2_32:WS2_32.dll
 0002:000004ec       __imp__gethostbyaddr@12    005254ec     ws2_32:WS2_32.dll
 0002:000004f0       __imp__inet_ntoa@4         005254f0     ws2_32:WS2_32.dll
 0002:000004f4       __imp__inet_addr@4         005254f4     ws2_32:WS2_32.dll
 0002:000004f8       __imp__gethostbyname@4     005254f8     ws2_32:WS2_32.dll
 0002:000004fc       __imp__WSACleanup@0        005254fc     ws2_32:WS2_32.dll
 0002:00000500       __imp__WSAStartup@8        00525500     ws2_32:WS2_32.dll
 0002:00000504       __imp__ntohs@4             00525504     ws2_32:WS2_32.dll
 0002:00000508       __imp__htons@4             00525508     ws2_32:WS2_32.dll
 0002:0000050c       __imp____WSAFDIsSet@8      0052550c     ws2_32:WS2_32.dll
 0002:00000510       \177WS2_32_NULL_THUNK_DATA 00525510     ws2_32:WS2_32.dll
 0002:00000514       __imp__SymInitialize@12    00525514     Dbghelp:dbghelp.dll
 0002:00000518       __imp__StackWalk@36        00525518     Dbghelp:dbghelp.dll
 0002:0000051c       __imp__SymGetModuleBase@8  0052551c     Dbghelp:dbghelp.dll
 0002:00000520       __imp__SymFunctionTableAccess@8 00525520     Dbghelp:dbghelp.dll
 0002:00000524       __imp__SymGetSymFromAddr@16 00525524     Dbghelp:dbghelp.dll
 0002:00000528       __imp__SymGetLineFromAddr@16 00525528     Dbghelp:dbghelp.dll
 0002:0000052c       \177dbghelp_NULL_THUNK_DATA 0052552c     Dbghelp:dbghelp.dll
 0002:00000530       __imp__ov_read             00525530     vorbisfile:libvorbisfile.dll
 0002:00000534       __imp__ov_pcm_seek         00525534     vorbisfile:libvorbisfile.dll
 0002:00000538       __imp__ov_time_total       00525538     vorbisfile:libvorbisfile.dll
 0002:0000053c       __imp__ov_open_callbacks   0052553c     vorbisfile:libvorbisfile.dll
 0002:00000540       __imp__ov_info             00525540     vorbisfile:libvorbisfile.dll
 0002:00000544       __imp__ov_time_seek_page   00525544     vorbisfile:libvorbisfile.dll
 0002:00000548       __imp__ov_clear            00525548     vorbisfile:libvorbisfile.dll
 0002:0000054c       \177libvorbisfile_NULL_THUNK_DATA 0052554c     vorbisfile:libvorbisfile.dll
 0002:00000550       __imp__compress2           00525550     zdll:zlib1.dll
 0002:00000554       __imp__uncompress          00525554     zdll:zlib1.dll
 0002:00000558       __imp__inflateInit2_       00525558     zdll:zlib1.dll
 0002:0000055c       __imp__inflate             0052555c     zdll:zlib1.dll
 0002:00000560       __imp__crc32               00525560     zdll:zlib1.dll
 0002:00000564       __imp__deflateInit_        00525564     zdll:zlib1.dll
 0002:00000568       __imp__deflate             00525568     zdll:zlib1.dll
 0002:0000056c       __imp__deflateEnd          0052556c     zdll:zlib1.dll
 0002:00000570       __imp__deflateInit2_       00525570     zdll:zlib1.dll
 0002:00000574       __imp__inflateReset        00525574     zdll:zlib1.dll
 0002:00000578       __imp__zError              00525578     zdll:zlib1.dll
 0002:0000057c       __imp__inflateEnd          0052557c     zdll:zlib1.dll
 0002:00000580       \177zlib1_NULL_THUNK_DATA  00525580     zdll:zlib1.dll
 0002:00000584       ___guard_check_icall_fptr  00525584     LIBCMT:guard_support.obj
 0002:00000588       ___xc_a                    00525588     LIBCMT:initializers.obj
 0002:00001530       ___xc_z                    00526530     LIBCMT:initializers.obj
 0002:00001534       ___xi_a                    00526534     LIBCMT:initializers.obj
 0002:00001544       ___acrt_stdio_initializer  00526544     libucrt:stdio_initializer.obj
 0002:00001548       ___acrt_tran_sse2_initializer 00526548     libucrt:sse2_initializer.obj
 0002:0000154c       ___acrt_timeset_initializer 0052654c     libucrt:timeset_initializer.obj
 0002:00001550       ___acrt_multibyte_initializer 00526550     libucrt:multibyte_initializer.obj
 0002:00001554       ___acrt_fmode_initializer  00526554     libucrt:fmode_initializer.obj
 0002:00001558       ___xi_z                    00526558     LIBCMT:initializers.obj
 0002:0000155c       ___xl_a                    0052655c     LIBCMT:tlssup.obj
 0002:00001560       ___xl_z                    00526560     LIBCMT:tlssup.obj
 0002:00001564       ___xp_a                    00526564     LIBCMT:initializers.obj
 0002:00001568       ___acrt_locale_terminator  00526568     libucrt:locale_initializer.obj
 0002:0000156c       ___dcrt_console_output_terminator 0052656c     libucrt:console_output_initializer.obj
 0002:00001570       ___acrt_stdio_terminator   00526570     libucrt:stdio_initializer.obj
 0002:00001574       ___xp_z                    00526574     LIBCMT:initializers.obj
 0002:00001578       ___xt_a                    00526578     LIBCMT:initializers.obj
 0002:0000157c       ___xt_z                    0052657c     LIBCMT:initializers.obj
 0002:000016a0       ??_C@_1EC@JIJBPKFM@?$AAa?$AAp?$AAi?$AA?9?$AAm?$AAs?$AA?9?$AAw?$AAi?$AAn?$AA?9?$AAc?$AAo?$AAr?$AAe@ 005266a0     LIBCMT:thread_safe_statics.obj
 0002:000016e4       ??_C@_1BK@MGMFAEKH@?$AAk?$AAe?$AAr?$AAn?$AAe?$AAl?$AA3?$AA2?$AA?4?$AAd?$AAl?$AAl@ 005266e4     LIBCMT:thread_safe_statics.obj
 0002:00001700       ??_C@_0BJ@JEBJOJFJ@SleepConditionVariableCS@ 00526700     LIBCMT:thread_safe_statics.obj
 0002:0000171c       ??_C@_0BJ@PGPPEPCC@WakeAllConditionVariable@ 0052671c     LIBCMT:thread_safe_statics.obj
 0002:0000173c       ??_7type_info@@6B@         0052673c     LIBCMT:std_type_info_static.obj
 0002:00001744       ??_7exception@std@@6B@     00526744     LIBCMT:throw_bad_alloc.obj
 0002:0000174c       ??_C@_0BC@EOODALEL@Unknown?5exception@ 0052674c     LIBCMT:throw_bad_alloc.obj
 0002:00001764       ??_7bad_alloc@std@@6B@     00526764     LIBCMT:throw_bad_alloc.obj
 0002:0000176c       ??_C@_0P@GHFPNOJB@bad?5allocation@ 0052676c     LIBCMT:throw_bad_alloc.obj
 0002:00001780       ??_7bad_array_new_length@std@@6B@ 00526780     LIBCMT:throw_bad_alloc.obj
 0002:00001788       ??_C@_0BF@KINCDENJ@bad?5array?5new?5length@ 00526788     LIBCMT:throw_bad_alloc.obj
 0002:000017a8       __pDestructExceptionObject 005267a8     libvcruntime:ehhelpers.obj
 0002:00001b30       ??_C@_08EHJDFFNH@__based?$CI@ 00526b30     libvcruntime:undname.obj
 0002:00001b3c       ??_C@_07KOLFKCDI@__cdecl@  00526b3c     libvcruntime:undname.obj
 0002:00001b44       ??_C@_08GHMPAG@__pascal@   00526b44     libvcruntime:undname.obj
 0002:00001b50       ??_C@_09IFJBGAPI@__stdcall@ 00526b50     libvcruntime:undname.obj
 0002:00001b5c       ??_C@_0L@NPHFGOKO@__thiscall@ 00526b5c     libvcruntime:undname.obj
 0002:00001b68       ??_C@_0L@JMKHOMEK@__fastcall@ 00526b68     libvcruntime:undname.obj
 0002:00001b74       ??_C@_0N@BCKKPABJ@__vectorcall@ 00526b74     libvcruntime:undname.obj
 0002:00001b84       ??_C@_09HIJEGCPM@__clrcall@ 00526b84     libvcruntime:undname.obj
 0002:00001b90       ??_C@_06GHPCKEAG@__eabi@   00526b90     libvcruntime:undname.obj
 0002:00001b98       ??_C@_09IOPIDJLG@__swift_1@ 00526b98     libvcruntime:undname.obj
 0002:00001ba4       ??_C@_09KFNFGKHF@__swift_2@ 00526ba4     libvcruntime:undname.obj
 0002:00001bb0       ??_C@_07JOMMBBKO@__ptr64@  00526bb0     libvcruntime:undname.obj
 0002:00001bb8       ??_C@_0L@PILCLIHE@__restrict@ 00526bb8     libvcruntime:undname.obj
 0002:00001bc4       ??_C@_0M@GFIIJFMG@__unaligned@ 00526bc4     libvcruntime:undname.obj
 0002:00001bd0       ??_C@_09DHDLOLLB@restrict?$CI@ 00526bd0     libvcruntime:undname.obj
 0002:00001bdc       ??_C@_04NIHEBCM@?5new@     00526bdc     libvcruntime:undname.obj
 0002:00001be4       ??_C@_07FPCDHGMM@?5delete@ 00526be4     libvcruntime:undname.obj
 0002:00001bec       ??_C@_02GPIOPFAK@?$DO?$DO@ 00526bec     libvcruntime:undname.obj
 0002:00001bf0       ??_C@_02FODMEDOG@?$DM?$DM@ 00526bf0     libvcruntime:undname.obj
 0002:00001bf4       ??_C@_02EGOFBIJA@?$DN?$DN@ 00526bf4     libvcruntime:undname.obj
 0002:00001bf8       ??_C@_02GPECMEKF@?$FL?$FN@ 00526bf8     libvcruntime:undname.obj
 0002:00001bfc       ??_C@_08LHJFAFGD@operator@ 00526bfc     libvcruntime:undname.obj
 0002:00001c08       ??_C@_02HBOOOICD@?9?$DO@   00526c08     libvcruntime:undname.obj
 0002:00001c0c       ??_C@_02ECNGHCIF@?$CL?$CL@ 00526c0c     libvcruntime:undname.obj
 0002:00001c10       ??_C@_01HNPIGOCE@?$CG@     00526c10     libvcruntime:undname.obj
 0002:00001c14       ??_C@_03MNHNFDLC@?9?$DO?$CK@ 00526c14     libvcruntime:undname.obj
 0002:00001c18       ??_C@_02HCKGKOFO@?$CI?$CJ@ 00526c18     libvcruntime:undname.obj
 0002:00001c1c       ??_C@_01PJKLJHI@?$HO@      00526c1c     libvcruntime:undname.obj
 0002:00001c20       ??_C@_01JKBOJNNK@?$FO@     00526c20     libvcruntime:undname.obj
 0002:00001c24       ??_C@_02FJEHGPIO@?1?$DN@   00526c24     libvcruntime:undname.obj
 0002:00001c28       ??_C@_02FENAOKFI@?$CF?$DN@ 00526c28     libvcruntime:undname.obj
 0002:00001c2c       ??_C@_03IKFCCPFF@?$DO?$DO?$DN@ 00526c2c     libvcruntime:undname.obj
 0002:00001c30       ??_C@_03CDNPDDLA@?$DM?$DM?$DN@ 00526c30     libvcruntime:undname.obj
 0002:00001c34       ??_C@_02FGJGFEAB@?$CG?$DN@ 00526c34     libvcruntime:undname.obj
 0002:00001c38       ??_C@_02DHLNPPGH@?$HM?$DN@ 00526c38     libvcruntime:undname.obj
 0002:00001c3c       ??_C@_02MHEGNOJ@?$FO?$DN@  00526c3c     libvcruntime:undname.obj
 0002:00001c40       ??_C@_09IFPLHPGF@?$GAvftable?8@ 00526c40     libvcruntime:undname.obj
 0002:00001c4c       ??_C@_09BLBHBJP@?$GAvbtable?8@ 00526c4c     libvcruntime:undname.obj
 0002:00001c58       ??_C@_07FEEIOKP@?$GAvcall?8@ 00526c58     libvcruntime:undname.obj
 0002:00001c60       ??_C@_08LLFFHHDJ@?$GAtypeof?8@ 00526c60     libvcruntime:undname.obj
 0002:00001c6c       ??_C@_0BF@KDPPACIK@?$GAlocal?5static?5guard?8@ 00526c6c     libvcruntime:undname.obj
 0002:00001c84       ??_C@_08OBABFOLI@?$GAstring?8@ 00526c84     libvcruntime:undname.obj
 0002:00001c90       ??_C@_0BD@JDLKDPAB@?$GAvbase?5destructor?8@ 00526c90     libvcruntime:undname.obj
 0002:00001ca4       ??_C@_0BN@DEGPLNFK@?$GAvector?5deleting?5destructor?8@ 00526ca4     libvcruntime:undname.obj
 0002:00001cc4       ??_C@_0BO@OBMKPJIG@?$GAdefault?5constructor?5closure?8@ 00526cc4     libvcruntime:undname.obj
 0002:00001ce4       ??_C@_0BN@IMDCHIKM@?$GAscalar?5deleting?5destructor?8@ 00526ce4     libvcruntime:undname.obj
 0002:00001d04       ??_C@_0BO@PFGOCPJJ@?$GAvector?5constructor?5iterator?8@ 00526d04     libvcruntime:undname.obj
 0002:00001d24       ??_C@_0BN@LFPFMEDL@?$GAvector?5destructor?5iterator?8@ 00526d24     libvcruntime:undname.obj
 0002:00001d44       ??_C@_0CE@IKBNEHA@?$GAvector?5vbase?5constructor?5itera@ 00526d44     libvcruntime:undname.obj
 0002:00001d68       ??_C@_0BL@NILFHHPC@?$GAvirtual?5displacement?5map?8@ 00526d68     libvcruntime:undname.obj
 0002:00001d84       ??_C@_0CB@JONCMFFK@?$GAeh?5vector?5constructor?5iterator@ 00526d84     libvcruntime:undname.obj
 0002:00001da8       ??_C@_0CA@GCEOPDGL@?$GAeh?5vector?5destructor?5iterator?8@ 00526da8     libvcruntime:undname.obj
 0002:00001dc8       ??_C@_0CH@OOJPLCPH@?$GAeh?5vector?5vbase?5constructor?5it@ 00526dc8     libvcruntime:undname.obj
 0002:00001df0       ??_C@_0BL@LLKPOHJI@?$GAcopy?5constructor?5closure?8@ 00526df0     libvcruntime:undname.obj
 0002:00001e0c       ??_C@_0BA@KBCDOMBN@?$GAudt?5returning?8@ 00526e0c     libvcruntime:undname.obj
 0002:00001e1c       ??_C@_03KLGMFNMG@?$GAEH@   00526e1c     libvcruntime:undname.obj
 0002:00001e20       ??_C@_05KHLCHHI@?$GARTTI@  00526e20     libvcruntime:undname.obj
 0002:00001e28       ??_C@_0BA@KKLDJDLB@?$GAlocal?5vftable?8@ 00526e28     libvcruntime:undname.obj
 0002:00001e38       ??_C@_0CE@IIHCMGGL@?$GAlocal?5vftable?5constructor?5clos@ 00526e38     libvcruntime:undname.obj
 0002:00001e5c       ??_C@_06FHBGPFGH@?5new?$FL?$FN@ 00526e5c     libvcruntime:undname.obj
 0002:00001e64       ??_C@_09LBNFPBCA@?5delete?$FL?$FN@ 00526e64     libvcruntime:undname.obj
 0002:00001e70       ??_C@_0P@HJKNJFNN@?$GAomni?5callsig?8@ 00526e70     libvcruntime:undname.obj
 0002:00001e80       ??_C@_0BL@CNOONJFP@?$GAplacement?5delete?5closure?8@ 00526e80     libvcruntime:undname.obj
 0002:00001e9c       ??_C@_0BN@CKNJLHMB@?$GAplacement?5delete?$FL?$FN?5closure?8@ 00526e9c     libvcruntime:undname.obj
 0002:00001ebc       ??_C@_0CG@CFDHKGGD@?$GAmanaged?5vector?5constructor?5ite@ 00526ebc     libvcruntime:undname.obj
 0002:00001ee4       ??_C@_0CF@IMGKMJNO@?$GAmanaged?5vector?5destructor?5iter@ 00526ee4     libvcruntime:undname.obj
 0002:00001f0c       ??_C@_0CG@HLDDJMAG@?$GAeh?5vector?5copy?5constructor?5ite@ 00526f0c     libvcruntime:undname.obj
 0002:00001f34       ??_C@_0CM@FCBBDIGB@?$GAeh?5vector?5vbase?5copy?5construct@ 00526f34     libvcruntime:undname.obj
 0002:00001f60       ??_C@_0BL@CLIPGLGB@?$GAdynamic?5initializer?5for?5?8@ 00526f60     libvcruntime:undname.obj
 0002:00001f7c       ??_C@_0CB@PDBIFEP@?$GAdynamic?5atexit?5destructor?5for?5@ 00526f7c     libvcruntime:undname.obj
 0002:00001fa0       ??_C@_0CD@CGAJBKEJ@?$GAvector?5copy?5constructor?5iterat@ 00526fa0     libvcruntime:undname.obj
 0002:00001fc4       ??_C@_0CJ@GJELGAMM@?$GAvector?5vbase?5copy?5constructor?5@ 00526fc4     libvcruntime:undname.obj
 0002:00001ff0       ??_C@_0CL@FGIJHLCE@?$GAmanaged?5vector?5copy?5constructo@ 00526ff0     libvcruntime:undname.obj
 0002:0000201c       ??_C@_0BM@PMGGMLDN@?$GAlocal?5static?5thread?5guard?8@ 0052701c     libvcruntime:undname.obj
 0002:00002038       ??_C@_0N@BDNMDMOL@operator?5?$CC?$CC?5@ 00527038     libvcruntime:undname.obj
 0002:00002048       ??_C@_0BC@GGEBGALA@operator?5co_await@ 00527048     libvcruntime:undname.obj
 0002:0000205c       ??_C@_0M@GAAIMMOH@operator?$DM?$DN?$DO@ 0052705c     libvcruntime:undname.obj
 0002:00002068       ??_C@_0BC@DAFEJGAK@?5Type?5Descriptor?8@ 00527068     libvcruntime:undname.obj
 0002:0000207c       ??_C@_0BM@LDKODKLH@?5Base?5Class?5Descriptor?5at?5?$CI@ 0052707c     libvcruntime:undname.obj
 0002:00002098       ??_C@_0BD@LGICGFMM@?5Base?5Class?5Array?8@ 00527098     libvcruntime:undname.obj
 0002:000020ac       ??_C@_0BN@MECKDCOJ@?5Class?5Hierarchy?5Descriptor?8@ 005270ac     libvcruntime:undname.obj
 0002:000020cc       ??_C@_0BK@CFCOFLF@?5Complete?5Object?5Locator?8@ 005270cc     libvcruntime:undname.obj
 0002:000020e8       ??_C@_0BG@JNJLAMPM@?$GAanonymous?5namespace?8@ 005270e8     libvcruntime:undname.obj
 0002:0000210c       ??_C@_1DM@KHCHBNEB@?$AAa?$AAp?$AAi?$AA?9?$AAm?$AAs?$AA?9?$AAw?$AAi?$AAn?$AA?9?$AAc?$AAo?$AAr?$AAe@ 0052710c     libvcruntime:winapi_downlevel.obj
 0002:00002148       ??_C@_1DK@LPPGFMPP@?$AAa?$AAp?$AAi?$AA?9?$AAm?$AAs?$AA?9?$AAw?$AAi?$AAn?$AA?9?$AAc?$AAo?$AAr?$AAe@ 00527148     libvcruntime:winapi_downlevel.obj
 0002:00002184       ??_C@_1BC@GDMECMAK@?$AAk?$AAe?$AAr?$AAn?$AAe?$AAl?$AA3?$AA2@ 00527184     libvcruntime:winapi_downlevel.obj
 0002:00002198       ??_C@_1BA@PFFKHIOG@?$AAa?$AAp?$AAi?$AA?9?$AAm?$AAs?$AA?9@ 00527198     libvcruntime:winapi_downlevel.obj
 0002:000021b0       ??_C@_08KNHFBNJ@FlsAlloc@  005271b0     libvcruntime:winapi_downlevel.obj
 0002:000021c4       ??_C@_07PEJMOBNF@FlsFree@  005271c4     libvcruntime:winapi_downlevel.obj
 0002:000021d4       ??_C@_0M@GDNOONDI@FlsGetValue@ 005271d4     libvcruntime:winapi_downlevel.obj
 0002:000021e8       ??_C@_0M@JCPCPOEF@FlsSetValue@ 005271e8     libvcruntime:winapi_downlevel.obj
 0002:000021fc       ??_C@_0BM@HCFOFFN@InitializeCriticalSectionEx@ 005271fc     libvcruntime:winapi_downlevel.obj
 0002:0000221c       ??_7bad_exception@std@@6B@ 0052721c     libvcruntime:frame.obj
 0002:00002224       ??_C@_0O@DPKOEFFH@bad?5exception@ 00527224     libvcruntime:frame.obj
 0002:00002238       ?standard_lookup_table_spectre@__crt_stdio_output@@3V?$spectre_mitigated_lookup_table@Ustate_transition_pair@__crt_stdio_output@@$0IA@@1@B 00527238     libucrt:output.obj
 0002:00002338       ??_C@_1O@CEDCILHN@?$AA?$CI?$AAn?$AAu?$AAl?$AAl?$AA?$CJ@ 00527338     libucrt:output.obj
 0002:00002348       ?large_power_data@?1??multiply_by_power_of_ten@__crt_strtox@@YA_NAAUbig_integer@2@I@Z@4QBIB 00527348     libucrt:atof.obj
 0002:00002c50       ?large_power_indices@?1??multiply_by_power_of_ten@__crt_strtox@@YA_NAAUbig_integer@2@I@Z@4QBUunpack_index@?1??12@YA_N0I@Z@B 00527c50     libucrt:atof.obj
 0002:00002ce8       ?small_powers_of_ten@?1??multiply_by_power_of_ten@__crt_strtox@@YA_NAAUbig_integer@2@I@Z@4QBIB 00527ce8     libucrt:atof.obj
 0002:00002d10       ??_C@_1GE@DPGDJKLM@?$AAm?$AAi?$AAn?$AAk?$AAe?$AAr?$AAn?$AAe?$AAl?$AA?2?$AAc?$AAr?$AAt?$AAs?$AA?2@ 00527d10     libucrt:atof.obj
 0002:00002d78       ??_C@_1FM@FELNCOBF@?$AA_?$AA_?$AAc?$AAr?$AAt?$AA_?$AAs?$AAt?$AAr?$AAt?$AAo?$AAx?$AA?3?$AA?3?$AAf@ 00527d78     libucrt:atof.obj
 0002:00002dd4       ??_C@_1BG@GEMHBGAF@?$AA_?$AAi?$AAs?$AA_?$AAd?$AAo?$AAu?$AAb?$AAl?$AAe@ 00527dd4     libucrt:atof.obj
 0002:00002df0       ??_C@_1FK@JOJELFFO@?$AA_?$AA_?$AAc?$AAr?$AAt?$AA_?$AAs?$AAt?$AAr?$AAt?$AAo?$AAx?$AA?3?$AA?3?$AAf@ 00527df0     libucrt:atof.obj
 0002:00002e4c       ??_C@_1BI@BANMPGJI@?$AA?$CB?$AA_?$AAi?$AAs?$AA_?$AAd?$AAo?$AAu?$AAb?$AAl?$AAe@ 00527e4c     libucrt:atof.obj
 0002:00002e64       ?inf_uppercase@?1???$parse_floating_point_possible_infinity@DV?$c_string_character_source@D@__crt_strtox@@PBD@__crt_strtox@@YA?AW4floating_point_parse_result@1@AADAAV?$c_string_character_source@D@1@PBD@Z@4QBDB 00527e64     libucrt:atof.obj
 0002:00002e68       ?inf_lowercase@?1???$parse_floating_point_possible_infinity@DV?$c_string_character_source@D@__crt_strtox@@PBD@__crt_strtox@@YA?AW4floating_point_parse_result@1@AADAAV?$c_string_character_source@D@1@PBD@Z@4QBDB 00527e68     libucrt:atof.obj
 0002:00002e6c       ?inity_uppercase@?1???$parse_floating_point_possible_infinity@DV?$c_string_character_source@D@__crt_strtox@@PBD@__crt_strtox@@YA?AW4floating_point_parse_result@1@AADAAV?$c_string_character_source@D@1@PBD@Z@4QBDB 00527e6c     libucrt:atof.obj
 0002:00002e74       ?inity_lowercase@?1???$parse_floating_point_possible_infinity@DV?$c_string_character_source@D@__crt_strtox@@PBD@__crt_strtox@@YA?AW4floating_point_parse_result@1@AADAAV?$c_string_character_source@D@1@PBD@Z@4QBDB 00527e74     libucrt:atof.obj
 0002:00002e7c       ?uppercase@?1???$parse_floating_point_possible_nan@DV?$c_string_character_source@D@__crt_strtox@@PBD@__crt_strtox@@YA?AW4floating_point_parse_result@1@AADAAV?$c_string_character_source@D@1@PBD@Z@4QBDB 00527e7c     libucrt:atof.obj
 0002:00002e80       ?lowercase@?1???$parse_floating_point_possible_nan@DV?$c_string_character_source@D@__crt_strtox@@PBD@__crt_strtox@@YA?AW4floating_point_parse_result@1@AADAAV?$c_string_character_source@D@1@PBD@Z@4QBDB 00527e80     libucrt:atof.obj
 0002:00002e84       ?uppercase@?1???$parse_floating_point_possible_nan_is_snan@DV?$c_string_character_source@D@__crt_strtox@@@__crt_strtox@@YA_NAADAAV?$c_string_character_source@D@1@@Z@4QBDB 00527e84     libucrt:atof.obj
 0002:00002e8c       ?lowercase@?1???$parse_floating_point_possible_nan_is_snan@DV?$c_string_character_source@D@__crt_strtox@@@__crt_strtox@@YA_NAADAAV?$c_string_character_source@D@1@@Z@4QBDB 00527e8c     libucrt:atof.obj
 0002:00002e94       ?uppercase@?1???$parse_floating_point_possible_nan_is_ind@DV?$c_string_character_source@D@__crt_strtox@@@__crt_strtox@@YA_NAADAAV?$c_string_character_source@D@1@@Z@4QBDB 00527e94     libucrt:atof.obj
 0002:00002e98       ?lowercase@?1???$parse_floating_point_possible_nan_is_ind@DV?$c_string_character_source@D@__crt_strtox@@@__crt_strtox@@YA_NAADAAV?$c_string_character_source@D@1@@Z@4QBDB 00527e98     libucrt:atof.obj
 0002:00002e9c       ??_C@_13CGOKJPIL@?$AA?1@   00527e9c     libucrt:exit.obj
 0002:00002ea0       ??_C@_1BI@BGOHAHKC@?$AAm?$AAs?$AAc?$AAo?$AAr?$AAe?$AAe?$AA?4?$AAd?$AAl?$AAl@ 00527ea0     libucrt:exit.obj
 0002:00002eb8       ??_C@_0P@MIGLKIOC@CorExitProcess@ 00527eb8     libucrt:exit.obj
 0002:00002ec8       ?constraints@?1??is_length_valid@__crt_stdio_input@@YA_NW4conversion_mode@2@W4length_modifier@2@@Z@4QAY0M@$$CBEA 00527ec8     libucrt:input.obj
 0002:00002f40       ?inf_uppercase@?1???$parse_floating_point_possible_infinity@DV?$input_adapter_character_source@V?$string_input_adapter@D@__crt_stdio_input@@@__crt_strtox@@_K@__crt_strtox@@YA?AW4floating_point_parse_result@1@AADAAV?$input_adapter_character_source@V?$string_input_adapter@D@__crt_stdio_input@@@1@_K@Z@4QBDB 00527f40     libucrt:input.obj
 0002:00002f44       ?inf_lowercase@?1???$parse_floating_point_possible_infinity@DV?$input_adapter_character_source@V?$string_input_adapter@D@__crt_stdio_input@@@__crt_strtox@@_K@__crt_strtox@@YA?AW4floating_point_parse_result@1@AADAAV?$input_adapter_character_source@V?$string_input_adapter@D@__crt_stdio_input@@@1@_K@Z@4QBDB 00527f44     libucrt:input.obj
 0002:00002f48       ?inity_uppercase@?1???$parse_floating_point_possible_infinity@DV?$input_adapter_character_source@V?$string_input_adapter@D@__crt_stdio_input@@@__crt_strtox@@_K@__crt_strtox@@YA?AW4floating_point_parse_result@1@AADAAV?$input_adapter_character_source@V?$string_input_adapter@D@__crt_stdio_input@@@1@_K@Z@4QBDB 00527f48     libucrt:input.obj
 0002:00002f50       ?inity_lowercase@?1???$parse_floating_point_possible_infinity@DV?$input_adapter_character_source@V?$string_input_adapter@D@__crt_stdio_input@@@__crt_strtox@@_K@__crt_strtox@@YA?AW4floating_point_parse_result@1@AADAAV?$input_adapter_character_source@V?$string_input_adapter@D@__crt_stdio_input@@@1@_K@Z@4QBDB 00527f50     libucrt:input.obj
 0002:00002f58       ?uppercase@?1???$parse_floating_point_possible_nan@DV?$input_adapter_character_source@V?$string_input_adapter@D@__crt_stdio_input@@@__crt_strtox@@_K@__crt_strtox@@YA?AW4floating_point_parse_result@1@AADAAV?$input_adapter_character_source@V?$string_input_adapter@D@__crt_stdio_input@@@1@_K@Z@4QBDB 00527f58     libucrt:input.obj
 0002:00002f5c       ?lowercase@?1???$parse_floating_point_possible_nan@DV?$input_adapter_character_source@V?$string_input_adapter@D@__crt_stdio_input@@@__crt_strtox@@_K@__crt_strtox@@YA?AW4floating_point_parse_result@1@AADAAV?$input_adapter_character_source@V?$string_input_adapter@D@__crt_stdio_input@@@1@_K@Z@4QBDB 00527f5c     libucrt:input.obj
 0002:00002f60       ?uppercase@?1???$parse_floating_point_possible_nan_is_snan@DV?$input_adapter_character_source@V?$string_input_adapter@D@__crt_stdio_input@@@__crt_strtox@@@__crt_strtox@@YA_NAADAAV?$input_adapter_character_source@V?$string_input_adapter@D@__crt_stdio_input@@@1@@Z@4QBDB 00527f60     libucrt:input.obj
 0002:00002f68       ?lowercase@?1???$parse_floating_point_possible_nan_is_snan@DV?$input_adapter_character_source@V?$string_input_adapter@D@__crt_stdio_input@@@__crt_strtox@@@__crt_strtox@@YA_NAADAAV?$input_adapter_character_source@V?$string_input_adapter@D@__crt_stdio_input@@@1@@Z@4QBDB 00527f68     libucrt:input.obj
 0002:00002f70       ?uppercase@?1???$parse_floating_point_possible_nan_is_ind@DV?$input_adapter_character_source@V?$string_input_adapter@D@__crt_stdio_input@@@__crt_strtox@@@__crt_strtox@@YA_NAADAAV?$input_adapter_character_source@V?$string_input_adapter@D@__crt_stdio_input@@@1@@Z@4QBDB 00527f70     libucrt:input.obj
 0002:00002f74       ?lowercase@?1???$parse_floating_point_possible_nan_is_ind@DV?$input_adapter_character_source@V?$string_input_adapter@D@__crt_stdio_input@@@__crt_strtox@@@__crt_strtox@@YA_NAADAAV?$input_adapter_character_source@V?$string_input_adapter@D@__crt_stdio_input@@@1@@Z@4QBDB 00527f74     libucrt:input.obj
 0002:00002fc0       ___acrt_exception_action_table 00527fc0     libucrt:exception_filter.obj
 0002:00003050       ___acrt_signal_action_table_count 00528050     libucrt:exception_filter.obj
 0002:00003054       ___acrt_signal_action_table_size 00528054     libucrt:exception_filter.obj
 0002:00003058       ___acrt_signal_action_first_fpe_index 00528058     libucrt:exception_filter.obj
 0002:0000305c       ___acrt_signal_action_fpe_count 0052805c     libucrt:exception_filter.obj
 0002:00003160       ___lc_category             00528160     libucrt:wsetlocale.obj
 0002:000031a8       ??_C@_1O@GIFLHMA@?$AAL?$AAC?$AA_?$AAA?$AAL?$AAL@ 005281a8     libucrt:wsetlocale.obj
 0002:000031b8       ??_C@_1BG@PPOMIBNJ@?$AAL?$AAC?$AA_?$AAC?$AAO?$AAL?$AAL?$AAA?$AAT?$AAE@ 005281b8     libucrt:wsetlocale.obj
 0002:000031d0       ??_C@_1BC@FFJGAPJM@?$AAL?$AAC?$AA_?$AAC?$AAT?$AAY?$AAP?$AAE@ 005281d0     libucrt:wsetlocale.obj
 0002:000031e4       ??_C@_1BI@PCKFNJFB@?$AAL?$AAC?$AA_?$AAM?$AAO?$AAN?$AAE?$AAT?$AAA?$AAR?$AAY@ 005281e4     libucrt:wsetlocale.obj
 0002:000031fc       ??_C@_1BG@ENIEDKID@?$AAL?$AAC?$AA_?$AAN?$AAU?$AAM?$AAE?$AAR?$AAI?$AAC@ 005281fc     libucrt:wsetlocale.obj
 0002:00003214       ??_C@_1BA@HAAOMIIG@?$AAL?$AAC?$AA_?$AAT?$AAI?$AAM?$AAE@ 00528214     libucrt:wsetlocale.obj
 0002:00003224       ??_C@_15NBPDDFIP@?$AA?$DN?$AA?$DL@ 00528224     libucrt:wsetlocale.obj
 0002:0000322c       ??_C@_13PJJBFPED@?$AA?$DL@ 0052822c     libucrt:wsetlocale.obj
 0002:00003230       ??_C@_13NMPKAAJP@?$AA?$DN@ 00528230     libucrt:wsetlocale.obj
 0002:00003234       ??_C@_13IMODFHAA@?$AA?9@   00528234     libucrt:wsetlocale.obj
 0002:00003238       ??_C@_17EFJLDFDO@?$AA?9?$AA_?$AA?4@ 00528238     libucrt:wsetlocale.obj
 0002:00003240       ??_C@_13FHBKNHDA@?$AAC@    00528240     libucrt:wsetlocale.obj
 0002:00003244       ??_C@_17MBJJLFDM@?$AA_?$AA?4?$AA?0@ 00528244     libucrt:wsetlocale.obj
 0002:0000324c       ??_C@_13ENNFDPBH@?$AA_@    0052824c     libucrt:wsetlocale.obj
 0002:00003250       ??_C@_13JOFGPIOO@?$AA?4@   00528250     libucrt:wsetlocale.obj
 0002:00003400       ??_C@_03OEIAHPBN@INF@      00528400     libucrt:cvt.obj
 0002:00003404       ??_C@_03OJHLLCGB@inf@      00528404     libucrt:cvt.obj
 0002:00003408       ??_C@_03LKNCIKJB@NAN@      00528408     libucrt:cvt.obj
 0002:0000340c       ??_C@_03LHCJEHON@nan@      0052840c     libucrt:cvt.obj
 0002:00003410       ??_C@_09OFJJIMPC@NAN?$CISNAN?$CJ@ 00528410     libucrt:cvt.obj
 0002:0000341c       ??_C@_09IPFBKMDL@nan?$CIsnan?$CJ@ 0052841c     libucrt:cvt.obj
 0002:00003428       ??_C@_08IKHNHAJ@NAN?$CIIND?$CJ@ 00528428     libucrt:cvt.obj
 0002:00003434       ??_C@_08OFCDMILK@nan?$CIind?$CJ@ 00528434     libucrt:cvt.obj
 0002:00003440       ??_C@_05KLBDPFGC@e?$CL000@ 00528440     libucrt:cvt.obj
 0002:00003448       ___lc_time_c               00528448     libucrt:nlsdata.obj
 0002:000035ac       ??_C@_03KOEHGMDN@Sun@      005285ac     libucrt:nlsdata.obj
 0002:000035b0       ??_C@_03PDAGKDH@Mon@       005285b0     libucrt:nlsdata.obj
 0002:000035b4       ??_C@_03NAGEINEP@Tue@      005285b4     libucrt:nlsdata.obj
 0002:000035b8       ??_C@_03MHOMLAJA@Wed@      005285b8     libucrt:nlsdata.obj
 0002:000035bc       ??_C@_03IOFIKPDN@Thu@      005285bc     libucrt:nlsdata.obj
 0002:000035c0       ??_C@_03IDIOELNC@Fri@      005285c0     libucrt:nlsdata.obj
 0002:000035c4       ??_C@_03FEFJNEK@Sat@       005285c4     libucrt:nlsdata.obj
 0002:000035c8       ??_C@_06OOPIFAJ@Sunday@    005285c8     libucrt:nlsdata.obj
 0002:000035d0       ??_C@_06JLEDEDGH@Monday@   005285d0     libucrt:nlsdata.obj
 0002:000035d8       ??_C@_07BAAGCFCM@Tuesday@  005285d8     libucrt:nlsdata.obj
 0002:000035e0       ??_C@_09DLIGFAKA@Wednesday@ 005285e0     libucrt:nlsdata.obj
 0002:000035ec       ??_C@_08HACCIKIA@Thursday@ 005285ec     libucrt:nlsdata.obj
 0002:000035f8       ??_C@_06JECMNKMI@Friday@   005285f8     libucrt:nlsdata.obj
 0002:00003600       ??_C@_08INBOOONO@Saturday@ 00528600     libucrt:nlsdata.obj
 0002:0000360c       ??_C@_03JIHJHPIE@Jan@      0052860c     libucrt:nlsdata.obj
 0002:00003610       ??_C@_03HJBDCHOM@Feb@      00528610     libucrt:nlsdata.obj
 0002:00003614       ??_C@_03ODNJBKGA@Mar@      00528614     libucrt:nlsdata.obj
 0002:00003618       ??_C@_03LEOLGMJP@Apr@      00528618     libucrt:nlsdata.obj
 0002:0000361c       ??_C@_03CNMDKL@May@        0052861c     libucrt:nlsdata.obj
 0002:00003620       ??_C@_03IDFGHECI@Jun@      00528620     libucrt:nlsdata.obj
 0002:00003624       ??_C@_03LBGABGKK@Jul@      00528624     libucrt:nlsdata.obj
 0002:00003628       ??_C@_03IFJFEIGA@Aug@      00528628     libucrt:nlsdata.obj
 0002:0000362c       ??_C@_03GGCAPAJC@Sep@      0052862c     libucrt:nlsdata.obj
 0002:00003630       ??_C@_03BMAOKBAD@Oct@      00528630     libucrt:nlsdata.obj
 0002:00003634       ??_C@_03JPJOFNIA@Nov@      00528634     libucrt:nlsdata.obj
 0002:00003638       ??_C@_03MKABNOCG@Dec@      00528638     libucrt:nlsdata.obj
 0002:0000363c       ??_C@_07CGJPFGJA@January@  0052863c     libucrt:nlsdata.obj
 0002:00003644       ??_C@_08GNJGEPFN@February@ 00528644     libucrt:nlsdata.obj
 0002:00003650       ??_C@_05HPCKOFNC@March@    00528650     libucrt:nlsdata.obj
 0002:00003658       ??_C@_05DMJDNLEJ@April@    00528658     libucrt:nlsdata.obj
 0002:00003660       ??_C@_04CNLMGBGM@June@     00528660     libucrt:nlsdata.obj
 0002:00003668       ??_C@_04MIEPOIFP@July@     00528668     libucrt:nlsdata.obj
 0002:00003670       ??_C@_06LBBHFDDG@August@   00528670     libucrt:nlsdata.obj
 0002:00003678       ??_C@_09BHHEALKD@September@ 00528678     libucrt:nlsdata.obj
 0002:00003684       ??_C@_07JJNFCEND@October@  00528684     libucrt:nlsdata.obj
 0002:0000368c       ??_C@_08HCHEGEOA@November@ 0052868c     libucrt:nlsdata.obj
 0002:00003698       ??_C@_08EDHMEBNP@December@ 00528698     libucrt:nlsdata.obj
 0002:000036a4       ??_C@_02DEDBPAFC@AM@       005286a4     libucrt:nlsdata.obj
 0002:000036a8       ??_C@_02CJNFDJBF@PM@       005286a8     libucrt:nlsdata.obj
 0002:000036ac       ??_C@_08BPBNCDIB@MM?1dd?1yy@ 005286ac     libucrt:nlsdata.obj
 0002:000036b8       ??_C@_0BE@CKGJFCPC@dddd?0?5MMMM?5dd?0?5yyyy@ 005286b8     libucrt:nlsdata.obj
 0002:000036cc       ??_C@_08JCCMCCIL@HH?3mm?3ss@ 005286cc     libucrt:nlsdata.obj
 0002:000036d8       ??_C@_17MBGCMIPB@?$AAS?$AAu?$AAn@ 005286d8     libucrt:nlsdata.obj
 0002:000036e0       ??_C@_17KBOMKBF@?$AAM?$AAo?$AAn@ 005286e0     libucrt:nlsdata.obj
 0002:000036e8       ??_C@_17BMKGEGOJ@?$AAT?$AAu?$AAe@ 005286e8     libucrt:nlsdata.obj
 0002:000036f0       ??_C@_17CJEDCEPE@?$AAW?$AAe?$AAd@ 005286f0     libucrt:nlsdata.obj
 0002:000036f8       ??_C@_17PDPHAADD@?$AAT?$AAh?$AAu@ 005286f8     libucrt:nlsdata.obj
 0002:00003700       ??_C@_17HFOLPPLP@?$AAF?$AAr?$AAi@ 00528700     libucrt:nlsdata.obj
 0002:00003708       ??_C@_17GGIBDPIH@?$AAS?$AAa?$AAt@ 00528708     libucrt:nlsdata.obj
 0002:00003710       ??_C@_1O@IHNHDHPB@?$AAS?$AAu?$AAn?$AAd?$AAa?$AAy@ 00528710     libucrt:nlsdata.obj
 0002:00003720       ??_C@_1O@MMNBFLIA@?$AAM?$AAo?$AAn?$AAd?$AAa?$AAy@ 00528720     libucrt:nlsdata.obj
 0002:00003730       ??_C@_1BA@ENFBFFEK@?$AAT?$AAu?$AAe?$AAs?$AAd?$AAa?$AAy@ 00528730     libucrt:nlsdata.obj
 0002:00003740       ??_C@_1BE@EBOGMDOH@?$AAW?$AAe?$AAd?$AAn?$AAe?$AAs?$AAd?$AAa?$AAy@ 00528740     libucrt:nlsdata.obj
 0002:00003754       ??_C@_1BC@HHMNLIHE@?$AAT?$AAh?$AAu?$AAr?$AAs?$AAd?$AAa?$AAy@ 00528754     libucrt:nlsdata.obj
 0002:00003768       ??_C@_1O@PDICJHAG@?$AAF?$AAr?$AAi?$AAd?$AAa?$AAy@ 00528768     libucrt:nlsdata.obj
 0002:00003778       ??_C@_1BC@ENMNNPAJ@?$AAS?$AAa?$AAt?$AAu?$AAr?$AAd?$AAa?$AAy@ 00528778     libucrt:nlsdata.obj
 0002:0000378c       ??_C@_17DKNBKCHM@?$AAJ?$AAa?$AAn@ 0052878c     libucrt:nlsdata.obj
 0002:00003794       ??_C@_17LMDJEKJN@?$AAF?$AAe?$AAb@ 00528794     libucrt:nlsdata.obj
 0002:0000379c       ??_C@_17CKNLEDEC@?$AAM?$AAa?$AAr@ 0052879c     libucrt:nlsdata.obj
 0002:000037a4       ??_C@_17LFPOIHDD@?$AAA?$AAp?$AAr@ 005287a4     libucrt:nlsdata.obj
 0002:000037ac       ??_C@_17PNNKMEED@?$AAM?$AAa?$AAy@ 005287ac     libucrt:nlsdata.obj
 0002:000037b4       ??_C@_17KCJGOCPB@?$AAJ?$AAu?$AAn@ 005287b4     libucrt:nlsdata.obj
 0002:000037bc       ??_C@_17IJPCKHK@?$AAJ?$AAu?$AAl@ 005287bc     libucrt:nlsdata.obj
 0002:000037c4       ??_C@_17ICPELBCN@?$AAA?$AAu?$AAg@ 005287c4     libucrt:nlsdata.obj
 0002:000037cc       ??_C@_17HCHCOKMG@?$AAS?$AAe?$AAp@ 005287cc     libucrt:nlsdata.obj
 0002:000037d4       ??_C@_17FNLKOI@?$AAO?$AAc?$AAt@ 005287d4     libucrt:nlsdata.obj
 0002:000037dc       ??_C@_17BBDMLCIG@?$AAN?$AAo?$AAv@ 005287dc     libucrt:nlsdata.obj
 0002:000037e4       ??_C@_17EGKACKIF@?$AAD?$AAe?$AAc@ 005287e4     libucrt:nlsdata.obj
 0002:000037ec       ??_C@_1BA@EFMEIEBA@?$AAJ?$AAa?$AAn?$AAu?$AAa?$AAr?$AAy@ 005287ec     libucrt:nlsdata.obj
 0002:000037fc       ??_C@_1BC@JGDDFFAM@?$AAF?$AAe?$AAb?$AAr?$AAu?$AAa?$AAr?$AAy@ 005287fc     libucrt:nlsdata.obj
 0002:00003810       ??_C@_1M@IKEENEDF@?$AAM?$AAa?$AAr?$AAc?$AAh@ 00528810     libucrt:nlsdata.obj
 0002:0000381c       ??_C@_1M@GJNLMHFD@?$AAA?$AAp?$AAr?$AAi?$AAl@ 0052881c     libucrt:nlsdata.obj
 0002:00003828       ??_C@_19EPFLPGAP@?$AAJ?$AAu?$AAn?$AAe@ 00528828     libucrt:nlsdata.obj
 0002:00003834       ??_C@_19BIFMLPCD@?$AAJ?$AAu?$AAl?$AAy@ 00528834     libucrt:nlsdata.obj
 0002:00003840       ??_C@_1O@PAHLKOAC@?$AAA?$AAu?$AAg?$AAu?$AAs?$AAt@ 00528840     libucrt:nlsdata.obj
 0002:00003850       ??_C@_1BE@DKAAMBJL@?$AAS?$AAe?$AAp?$AAt?$AAe?$AAm?$AAb?$AAe?$AAr@ 00528850     libucrt:nlsdata.obj
 0002:00003864       ??_C@_1BA@EPANDLNG@?$AAO?$AAc?$AAt?$AAo?$AAb?$AAe?$AAr@ 00528864     libucrt:nlsdata.obj
 0002:00003874       ??_C@_1BC@BGLIFPF@?$AAN?$AAo?$AAv?$AAe?$AAm?$AAb?$AAe?$AAr@ 00528874     libucrt:nlsdata.obj
 0002:00003888       ??_C@_1BC@FEMKIFH@?$AAD?$AAe?$AAc?$AAe?$AAm?$AAb?$AAe?$AAr@ 00528888     libucrt:nlsdata.obj
 0002:0000389c       ??_C@_15ODEHAHHF@?$AAA?$AAM@ 0052889c     libucrt:nlsdata.obj
 0002:000038a4       ??_C@_15CLMNNGEL@?$AAP?$AAM@ 005288a4     libucrt:nlsdata.obj
 0002:000038ac       ??_C@_1BC@IEBCMHCM@?$AAM?$AAM?$AA?1?$AAd?$AAd?$AA?1?$AAy?$AAy@ 005288ac     libucrt:nlsdata.obj
 0002:000038c0       ??_C@_1CI@KNAKOEBC@?$AAd?$AAd?$AAd?$AAd?$AA?0?$AA?5?$AAM?$AAM?$AAM?$AAM?$AA?5?$AAd?$AAd?$AA?0?$AA?5@ 005288c0     libucrt:nlsdata.obj
 0002:000038e8       ??_C@_1BC@GDGBMEMK@?$AAH?$AAH?$AA?3?$AAm?$AAm?$AA?3?$AAs?$AAs@ 005288e8     libucrt:nlsdata.obj
 0002:000038fc       ??_C@_1M@BMHNFIME@?$AAe?$AAn?$AA?9?$AAU?$AAS@ 005288fc     libucrt:nlsdata.obj
 0002:00003958       ??_C@_1EA@JGEFHKEI@?$AAa?$AAp?$AAi?$AA?9?$AAm?$AAs?$AA?9?$AAw?$AAi?$AAn?$AA?9?$AAc?$AAo?$AAr?$AAe@ 00528958     libucrt:winapi_thunks.obj
 0002:00003998       ??_C@_1DI@IJCEHOCB@?$AAa?$AAp?$AAi?$AA?9?$AAm?$AAs?$AA?9?$AAw?$AAi?$AAn?$AA?9?$AAc?$AAo?$AAr?$AAe@ 00528998     libucrt:winapi_thunks.obj
 0002:000039d0       ??_C@_1EI@MPIAOHOC@?$AAa?$AAp?$AAi?$AA?9?$AAm?$AAs?$AA?9?$AAw?$AAi?$AAn?$AA?9?$AAc?$AAo?$AAr?$AAe@ 005289d0     libucrt:winapi_thunks.obj
 0002:00003a18       ??_C@_1FK@FPHCKFIE@?$AAa?$AAp?$AAi?$AA?9?$AAm?$AAs?$AA?9?$AAw?$AAi?$AAn?$AA?9?$AAc?$AAo?$AAr?$AAe@ 00528a18     libucrt:winapi_thunks.obj
 0002:00003a78       ??_C@_1EM@DILCGIIO@?$AAa?$AAp?$AAi?$AA?9?$AAm?$AAs?$AA?9?$AAw?$AAi?$AAn?$AA?9?$AAc?$AAo?$AAr?$AAe@ 00528a78     libucrt:winapi_thunks.obj
 0002:00003ac4       ??_C@_1DM@LNCGDDPN@?$AAa?$AAp?$AAi?$AA?9?$AAm?$AAs?$AA?9?$AAw?$AAi?$AAn?$AA?9?$AAc?$AAo?$AAr?$AAe@ 00528ac4     libucrt:winapi_thunks.obj
 0002:00003b00       ??_C@_1DO@FPAPJEMD@?$AAa?$AAp?$AAi?$AA?9?$AAm?$AAs?$AA?9?$AAw?$AAi?$AAn?$AA?9?$AAc?$AAo?$AAr?$AAe@ 00528b00     libucrt:winapi_thunks.obj
 0002:00003b40       ??_C@_1DK@NDHNAHIO@?$AAa?$AAp?$AAi?$AA?9?$AAm?$AAs?$AA?9?$AAw?$AAi?$AAn?$AA?9?$AAc?$AAo?$AAr?$AAe@ 00528b40     libucrt:winapi_thunks.obj
 0002:00003b7c       ??_C@_1DM@KGHDGBCM@?$AAa?$AAp?$AAi?$AA?9?$AAm?$AAs?$AA?9?$AAw?$AAi?$AAn?$AA?9?$AAc?$AAo?$AAr?$AAe@ 00528b7c     libucrt:winapi_thunks.obj
 0002:00003bb8       ??_C@_1EO@IJIOEFOH@?$AAa?$AAp?$AAi?$AA?9?$AAm?$AAs?$AA?9?$AAw?$AAi?$AAn?$AA?9?$AAr?$AAt?$AAc?$AAo@ 00528bb8     libucrt:winapi_thunks.obj
 0002:00003c08       ??_C@_1FG@HHGEKANL@?$AAa?$AAp?$AAi?$AA?9?$AAm?$AAs?$AA?9?$AAw?$AAi?$AAn?$AA?9?$AAs?$AAe?$AAc?$AAu@ 00528c08     libucrt:winapi_thunks.obj
 0002:00003c60       ??_C@_1EG@DBIOJECG@?$AAe?$AAx?$AAt?$AA?9?$AAm?$AAs?$AA?9?$AAw?$AAi?$AAn?$AA?9?$AAn?$AAt?$AAu?$AAs@ 00528c60     libucrt:winapi_thunks.obj
 0002:00003ca8       ??_C@_1EO@FIHMJCLF@?$AAe?$AAx?$AAt?$AA?9?$AAm?$AAs?$AA?9?$AAw?$AAi?$AAn?$AA?9?$AAn?$AAt?$AAu?$AAs@ 00528ca8     libucrt:winapi_thunks.obj
 0002:00003cf8       ??_C@_1BC@DNHGCMLG@?$AAa?$AAd?$AAv?$AAa?$AAp?$AAi?$AA3?$AA2@ 00528cf8     libucrt:winapi_thunks.obj
 0002:00003d0c       ??_C@_1M@OAIMIKLP@?$AAn?$AAt?$AAd?$AAl?$AAl@ 00528d0c     libucrt:winapi_thunks.obj
 0002:00003d18       ??_C@_1EG@DPGNFKGC@?$AAa?$AAp?$AAi?$AA?9?$AAm?$AAs?$AA?9?$AAw?$AAi?$AAn?$AA?9?$AAa?$AAp?$AAp?$AAm@ 00528d18     libucrt:winapi_thunks.obj
 0002:00003d60       ??_C@_1O@BCCLBEOE@?$AAu?$AAs?$AAe?$AAr?$AA3?$AA2@ 00528d60     libucrt:winapi_thunks.obj
 0002:00003d70       ??_C@_1DM@BPJLHKCE@?$AAa?$AAp?$AAi?$AA?9?$AAm?$AAs?$AA?9?$AAw?$AAi?$AAn?$AA?9?$AAc?$AAo?$AAr?$AAe@ 00528d70     libucrt:winapi_thunks.obj
 0002:00003dac       ??_C@_1BA@IAIFMGEF@?$AAe?$AAx?$AAt?$AA?9?$AAm?$AAs?$AA?9@ 00528dac     libucrt:winapi_thunks.obj
 0002:00003dc0       ??_C@_0BA@FHFNEAED@AreFileApisANSI@ 00528dc0     libucrt:winapi_thunks.obj
 0002:00003dd8       ??_C@_0BA@IHGNDAEB@CompareStringEx@ 00528dd8     libucrt:winapi_thunks.obj
 0002:00003df0       ??_C@_0BE@LJANKFHF@EnumSystemLocalesEx@ 00528df0     libucrt:winapi_thunks.obj
 0002:00003e0c       ??_C@_0BA@EPCJIIPD@GetDateFormatEx@ 00528e0c     libucrt:winapi_thunks.obj
 0002:00003e24       ??_C@_0BA@ONOKGCMP@GetLocaleInfoEx@ 00528e24     libucrt:winapi_thunks.obj
 0002:00003e3c       ??_C@_0BA@CIJJKCJJ@GetTimeFormatEx@ 00528e3c     libucrt:winapi_thunks.obj
 0002:00003e54       ??_C@_0BJ@PBCCBIPI@GetUserDefaultLocaleName@ 00528e54     libucrt:winapi_thunks.obj
 0002:00003e80       ??_C@_0BC@CELBKLLA@IsValidLocaleName@ 00528e80     libucrt:winapi_thunks.obj
 0002:00003e9c       ??_C@_0O@KKBNKAPF@LCMapStringEx@ 00528e9c     libucrt:winapi_thunks.obj
 0002:00003eb4       ??_C@_0BB@CDHDDLLP@LCIDToLocaleName@ 00528eb4     libucrt:winapi_thunks.obj
 0002:00003ed0       ??_C@_0BB@HBDEELFH@LocaleNameToLCID@ 00528ed0     libucrt:winapi_thunks.obj
 0002:00003ee8       ??_C@_0N@PPOMPGGK@RoInitialize@ 00528ee8     libucrt:winapi_thunks.obj
 0002:00003efc       ??_C@_0P@LLFHBIJD@RoUninitialize@ 00528efc     libucrt:winapi_thunks.obj
 0002:00003f10       ??_C@_0CF@OJOFEIGO@AppPolicyGetProcessTerminationM@ 00528f10     libucrt:winapi_thunks.obj
 0002:00003f3c       ??_C@_0CF@NNDFDCOC@AppPolicyGetThreadInitializatio@ 00528f3c     libucrt:winapi_thunks.obj
 0002:00003f88       ___newctype                00528f88     libucrt:ctype.obj
 0002:00004288       ___newclmap                00529288     libucrt:ctype.obj
 0002:00004408       ___newcumap                00529408     libucrt:ctype.obj
 0002:00004588       __wctype                   00529588     libucrt:ctype.obj
 0002:0000478c       ?ccs@?1???$__acrt_stdio_parse_mode@D@@YA?AU__acrt_stdio_stream_mode@@QBD@Z@4QBDB 0052978c     libucrt:openfile.obj
 0002:00004790       ?utf8_encoding@?1???$__acrt_stdio_parse_mode@D@@YA?AU__acrt_stdio_stream_mode@@QBD@Z@4QBDB 00529790     libucrt:openfile.obj
 0002:00004798       ?utf16_encoding@?1???$__acrt_stdio_parse_mode@D@@YA?AU__acrt_stdio_stream_mode@@QBD@Z@4QBDB 00529798     libucrt:openfile.obj
 0002:000047a0       ?unicode_encoding@?1???$__acrt_stdio_parse_mode@D@@YA?AU__acrt_stdio_stream_mode@@QBD@Z@4QBDB 005297a0     libucrt:openfile.obj
 0002:00004890       ??_C@_03KHJOGHMM@exp@      00529890     libucrt:fpexcept.obj
 0002:00004894       ??_C@_03JGHBODFD@pow@      00529894     libucrt:fpexcept.obj
 0002:00004898       ??_C@_03MGHMBJCF@log@      00529898     libucrt:fpexcept.obj
 0002:0000489c       ??_C@_05HGHHAHAP@log10@    0052989c     libucrt:fpexcept.obj
 0002:000048a4       ??_C@_04COOMCNPB@sinh@     005298a4     libucrt:fpexcept.obj
 0002:000048ac       ??_C@_04HPJJNFIM@cosh@     005298ac     libucrt:fpexcept.obj
 0002:000048b4       ??_C@_04FJHINJAO@tanh@     005298b4     libucrt:fpexcept.obj
 0002:000048bc       ??_C@_04FIHNOPOL@asin@     005298bc     libucrt:fpexcept.obj
 0002:000048c4       ??_C@_04PDIFKINK@acos@     005298c4     libucrt:fpexcept.obj
 0002:000048cc       ??_C@_04MLLJIGOK@atan@     005298cc     libucrt:fpexcept.obj
 0002:000048d4       ??_C@_05KNGEOGJB@atan2@    005298d4     libucrt:fpexcept.obj
 0002:000048dc       ??_C@_04EIAKFFMI@sqrt@     005298dc     libucrt:fpexcept.obj
 0002:000048e4       ??_C@_03BLEJJJBH@sin@      005298e4     libucrt:fpexcept.obj
 0002:000048e8       ??_C@_03LALBNOCG@cos@      005298e8     libucrt:fpexcept.obj
 0002:000048ec       ??_C@_03IIINPABG@tan@      005298ec     libucrt:fpexcept.obj
 0002:000048f0       ??_C@_04ODHECPBC@fabs@     005298f0     libucrt:fpexcept.obj
 0002:000048f8       ??_C@_05CEJMAHNP@ldexp@    005298f8     libucrt:fpexcept.obj
 0002:00004900       ??_C@_05KBKMEMPO@_cabs@    00529900     libucrt:fpexcept.obj
 0002:00004908       ??_C@_06MEIMCGCF@_hypot@   00529908     libucrt:fpexcept.obj
 0002:00004910       ??_C@_04KEPJIHGP@fmod@     00529910     libucrt:fpexcept.obj
 0002:00004918       ??_C@_05GKKHEGJL@frexp@    00529918     libucrt:fpexcept.obj
 0002:00004920       ??_C@_03MJLDFKDL@_y0@      00529920     libucrt:fpexcept.obj
 0002:00004924       ??_C@_03NAKIGLHK@_y1@      00529924     libucrt:fpexcept.obj
 0002:00004928       ??_C@_03ONILCKOB@_yn@      00529928     libucrt:fpexcept.obj
 0002:0000492c       ??_C@_05JGDBENOH@_logb@    0052992c     libucrt:fpexcept.obj
 0002:00004934       ??_C@_0L@KDOEJCKC@_nextafter@ 00529934     libucrt:fpexcept.obj
 0002:00004940       __d_inf                    00529940     libucrt:util.obj
 0002:00004948       __d_ind                    00529948     libucrt:util.obj
 0002:00004950       __d_max                    00529950     libucrt:util.obj
 0002:00004958       __d_mzero                  00529958     libucrt:util.obj
 0002:00004978       ??_C@_15HNJCPLHL@?$AAT?$AAZ@ 00529978     libucrt:tzset.obj
 0002:00004980       __days                     00529980     libucrt:days.obj
 0002:000049b4       __lpdays                   005299b4     libucrt:days.obj
 0002:000049e8       ??_C@_1M@PBPMMENC@?$AAa?$AAm?$AA?1?$AAp?$AAm@ 005299e8     libucrt:wcsftime.obj
 0002:000049f4       ??_C@_17BLFJJHMM@?$AAa?$AA?1?$AAp@ 005299f4     libucrt:wcsftime.obj
 0002:000049fc       ??_C@_13HOIJIPNN@?$AA?5@   005299fc     libucrt:wcsftime.obj
 0002:00004a00       ??_C@_13LBAGMAIH@?$AA?6@   00529a00     libucrt:wcsftime.obj
 0002:00004a04       ??_C@_13EBCNDICG@?$AA?3@   00529a04     libucrt:wcsftime.obj
 0002:00004a08       ??_C@_13KDLDGPGJ@?$AA?7@   00529a08     libucrt:wcsftime.obj
 0002:00004a0c       ??_C@_13KJIIAINM@?$AA?$CL@ 00529a0c     libucrt:wcsftime.obj
 0002:00004a10       ??_C@_13EJFHHPOP@?$AA?$CF@ 00529a10     libucrt:wcsftime.obj
 0002:00004a14       __sys_first_posix_error    00529a14     libucrt:syserr.obj
 0002:00004a18       __sys_last_posix_error     00529a18     libucrt:syserr.obj
 0002:00004a20       __sys_posix_errlist        00529a20     libucrt:syserr.obj
 0002:00004ac8       __sys_errlist              00529ac8     libucrt:syserr.obj
 0002:00004b78       ??_C@_08INEPGKHH@No?5error@ 00529b78     libucrt:syserr.obj
 0002:00004b84       ??_C@_0BI@BJFCGOHL@Operation?5not?5permitted@ 00529b84     libucrt:syserr.obj
 0002:00004b9c       ??_C@_0BK@FMDHKPNF@No?5such?5file?5or?5directory@ 00529b9c     libucrt:syserr.obj
 0002:00004bb8       ??_C@_0BA@FKIAIBGA@No?5such?5process@ 00529bb8     libucrt:syserr.obj
 0002:00004bc8       ??_C@_0BK@FJBOAFDK@Interrupted?5function?5call@ 00529bc8     libucrt:syserr.obj
 0002:00004be4       ??_C@_0BD@KKNFOBBD@Input?1output?5error@ 00529be4     libucrt:syserr.obj
 0002:00004bf8       ??_C@_0BK@DPKMCKJ@No?5such?5device?5or?5address@ 00529bf8     libucrt:syserr.obj
 0002:00004c14       ??_C@_0BC@MFFGCDFL@Arg?5list?5too?5long@ 00529c14     libucrt:syserr.obj
 0002:00004c28       ??_C@_0BC@HKPNECK@Exec?5format?5error@ 00529c28     libucrt:syserr.obj
 0002:00004c3c       ??_C@_0BE@NFGDDCEF@Bad?5file?5descriptor@ 00529c3c     libucrt:syserr.obj
 0002:00004c50       ??_C@_0BD@LOHELEP@No?5child?5processes@ 00529c50     libucrt:syserr.obj
 0002:00004c64       ??_C@_0CB@EPFKGNAK@Resource?5temporarily?5unavailabl@ 00529c64     libucrt:syserr.obj
 0002:00004c88       ??_C@_0BB@IMDKMPFB@Not?5enough?5space@ 00529c88     libucrt:syserr.obj
 0002:00004c9c       ??_C@_0BC@HFNFNKAI@Permission?5denied@ 00529c9c     libucrt:syserr.obj
 0002:00004cb0       ??_C@_0M@LOEHLCJD@Bad?5address@ 00529cb0     libucrt:syserr.obj
 0002:00004cbc       ??_C@_0O@NIPGCINC@Unknown?5error@ 00529cbc     libucrt:syserr.obj
 0002:00004ccc       ??_C@_0BA@BIBLIOEK@Resource?5device@ 00529ccc     libucrt:syserr.obj
 0002:00004cdc       ??_C@_0M@NAAJNNGH@File?5exists@ 00529cdc     libucrt:syserr.obj
 0002:00004ce8       ??_C@_0O@OAMDNOCP@Improper?5link@ 00529ce8     libucrt:syserr.obj
 0002:00004cf8       ??_C@_0P@NLEIANHE@No?5such?5device@ 00529cf8     libucrt:syserr.obj
 0002:00004d08       ??_C@_0BA@CJBACOOL@Not?5a?5directory@ 00529d08     libucrt:syserr.obj
 0002:00004d18       ??_C@_0P@NDHGCGKE@Is?5a?5directory@ 00529d18     libucrt:syserr.obj
 0002:00004d28       ??_C@_0BB@HMGGCEBG@Invalid?5argument@ 00529d28     libucrt:syserr.obj
 0002:00004d3c       ??_C@_0BO@IIFBODJE@Too?5many?5open?5files?5in?5system@ 00529d3c     libucrt:syserr.obj
 0002:00004d5c       ??_C@_0BE@INBJMKGG@Too?5many?5open?5files@ 00529d5c     libucrt:syserr.obj
 0002:00004d70       ??_C@_0CE@ONOKNLPF@Inappropriate?5I?1O?5control?5opera@ 00529d70     libucrt:syserr.obj
 0002:00004d94       ??_C@_0P@LFMMIPAE@File?5too?5large@ 00529d94     libucrt:syserr.obj
 0002:00004da4       ??_C@_0BI@FEALHKLD@No?5space?5left?5on?5device@ 00529da4     libucrt:syserr.obj
 0002:00004dbc       ??_C@_0N@FEHLOILP@Invalid?5seek@ 00529dbc     libucrt:syserr.obj
 0002:00004dcc       ??_C@_0BG@DDBFNKBH@Read?9only?5file?5system@ 00529dcc     libucrt:syserr.obj
 0002:00004de4       ??_C@_0P@PKCJJLLM@Too?5many?5links@ 00529de4     libucrt:syserr.obj
 0002:00004df4       ??_C@_0M@LHEPIIOM@Broken?5pipe@ 00529df4     libucrt:syserr.obj
 0002:00004e00       ??_C@_0N@MMJPGLJK@Domain?5error@ 00529e00     libucrt:syserr.obj
 0002:00004e10       ??_C@_0BB@FCBJFCAJ@Result?5too?5large@ 00529e10     libucrt:syserr.obj
 0002:00004e24       ??_C@_0BK@JAEBMJJM@Resource?5deadlock?5avoided@ 00529e24     libucrt:syserr.obj
 0002:00004e40       ??_C@_0BC@BEDIHIDK@Filename?5too?5long@ 00529e40     libucrt:syserr.obj
 0002:00004e54       ??_C@_0BD@CLHBCGPB@No?5locks?5available@ 00529e54     libucrt:syserr.obj
 0002:00004e68       ??_C@_0BJ@IHEHINLI@Function?5not?5implemented@ 00529e68     libucrt:syserr.obj
 0002:00004e84       ??_C@_0BE@ICMCHPHH@Directory?5not?5empty@ 00529e84     libucrt:syserr.obj
 0002:00004e98       ??_C@_0BG@KLEAJEFJ@Illegal?5byte?5sequence@ 00529e98     libucrt:syserr.obj
 0002:00004eb0       ??_C@_0P@LDMLAFHI@address?5in?5use@ 00529eb0     libucrt:syserr.obj
 0002:00004ec0       ??_C@_0BG@DHPCNBJB@address?5not?5available@ 00529ec0     libucrt:syserr.obj
 0002:00004ed8       ??_C@_0BN@LKKBCCDB@address?5family?5not?5supported@ 00529ed8     libucrt:syserr.obj
 0002:00004ef8       ??_C@_0BP@KAIHPOGN@connection?5already?5in?5progress@ 00529ef8     libucrt:syserr.obj
 0002:00004f18       ??_C@_0M@PMMIEFCP@bad?5message@ 00529f18     libucrt:syserr.obj
 0002:00004f24       ??_C@_0BD@MOLBPMEA@operation?5canceled@ 00529f24     libucrt:syserr.obj
 0002:00004f38       ??_C@_0BD@MGNDDEGM@connection?5aborted@ 00529f38     libucrt:syserr.obj
 0002:00004f4c       ??_C@_0BB@IECNJNOI@connection?5reset@ 00529f4c     libucrt:syserr.obj
 0002:00004f60       ??_C@_0BN@KDMIFEIP@destination?5address?5required@ 00529f60     libucrt:syserr.obj
 0002:00004f80       ??_C@_0BB@DHFDFGDM@host?5unreachable@ 00529f80     libucrt:syserr.obj
 0002:00004f94       ??_C@_0BD@JPHBMONG@identifier?5removed@ 00529f94     libucrt:syserr.obj
 0002:00004fa8       ??_C@_0BG@KDKHOPCO@operation?5in?5progress@ 00529fa8     libucrt:syserr.obj
 0002:00004fc0       ??_C@_0BC@DFIBIBIL@already?5connected@ 00529fc0     libucrt:syserr.obj
 0002:00004fd4       ??_C@_0BO@EFGOJEF@too?5many?5symbolic?5link?5levels@ 00529fd4     libucrt:syserr.obj
 0002:00004ff4       ??_C@_0N@IFLPBIOP@message?5size@ 00529ff4     libucrt:syserr.obj
 0002:00005004       ??_C@_0N@KIIEAAIO@network?5down@ 0052a004     libucrt:syserr.obj
 0002:00005014       ??_C@_0O@FNPDBHEE@network?5reset@ 0052a014     libucrt:syserr.obj
 0002:00005024       ??_C@_0BE@IFNCKGE@network?5unreachable@ 0052a024     libucrt:syserr.obj
 0002:00005038       ??_C@_0BA@PFFCAOFK@no?5buffer?5space@ 0052a038     libucrt:syserr.obj
 0002:00005048       ??_C@_0BF@PBGGPKKE@no?5message?5available@ 0052a048     libucrt:syserr.obj
 0002:00005060       ??_C@_07PLECNNKG@no?5link@ 0052a060     libucrt:syserr.obj
 0002:00005068       ??_C@_0L@EDOLMPAK@no?5message@ 0052a068     libucrt:syserr.obj
 0002:00005074       ??_C@_0BD@EAMBFIDF@no?5protocol?5option@ 0052a074     libucrt:syserr.obj
 0002:00005088       ??_C@_0BE@MKFDAFMP@no?5stream?5resources@ 0052a088     libucrt:syserr.obj
 0002:0000509c       ??_C@_0N@LGAPMMPI@not?5a?5stream@ 0052a09c     libucrt:syserr.obj
 0002:000050ac       ??_C@_0BG@MPLKFPAE@state?5not?5recoverable@ 0052a0ac     libucrt:syserr.obj
 0002:000050c4       ??_C@_0N@POEIPGGF@not?5a?5socket@ 0052a0c4     libucrt:syserr.obj
 0002:000050d4       ??_C@_0O@NHEDABJP@not?5supported@ 0052a0d4     libucrt:syserr.obj
 0002:000050e4       ??_C@_0BI@LNEGIFLN@operation?5not?5supported@ 0052a0e4     libucrt:syserr.obj
 0002:000050fc       ??_C@_0BA@KGKGOOJA@value?5too?5large@ 0052a0fc     libucrt:syserr.obj
 0002:0000510c       ??_C@_0L@BLPOFLNJ@owner?5dead@ 0052a10c     libucrt:syserr.obj
 0002:00005118       ??_C@_0P@FNPOCJBE@protocol?5error@ 0052a118     libucrt:syserr.obj
 0002:00005128       ??_C@_0BH@JPPPLHJB@protocol?5not?5supported@ 0052a128     libucrt:syserr.obj
 0002:00005140       ??_C@_0BE@MIEJDDNH@wrong?5protocol?5type@ 0052a140     libucrt:syserr.obj
 0002:00005154       ??_C@_0P@DIIFGFCG@stream?5timeout@ 0052a154     libucrt:syserr.obj
 0002:00005164       ??_C@_09KJPPMAOI@timed?5out@ 0052a164     libucrt:syserr.obj
 0002:00005170       ??_C@_0P@IPFDMIFL@text?5file?5busy@ 0052a170     libucrt:syserr.obj
 0002:00005180       ??_C@_0BG@OEMDKMEE@operation?5would?5block@ 0052a180     libucrt:syserr.obj
 0002:00005198       __sys_nerr                 0052a198     libucrt:syserr.obj
 0002:000051ac       ??_C@_1M@HPNHIDJI@?$AAj?$AAa?$AA?9?$AAJ?$AAP@ 0052a1ac     libucrt:mbctype.obj
 0002:000051b8       ??_C@_1M@BIBDDEMK@?$AAz?$AAh?$AA?9?$AAC?$AAN@ 0052a1b8     libucrt:mbctype.obj
 0002:000051c4       ??_C@_1M@JLOOOEGK@?$AAk?$AAo?$AA?9?$AAK?$AAR@ 0052a1c4     libucrt:mbctype.obj
 0002:000051d0       ??_C@_1M@CLNBBOPM@?$AAz?$AAh?$AA?9?$AAT?$AAW@ 0052a1d0     libucrt:mbctype.obj
 0002:000051e0       ___acrt_rg_language        0052a1e0     libucrt:get_qualified_locale.obj
 0002:000054ec       ___acrt_rg_language_count  0052a4ec     libucrt:get_qualified_locale.obj
 0002:000054f0       ___acrt_rg_country         0052a4f0     libucrt:get_qualified_locale.obj
 0002:00005604       ___acrt_rg_country_count   0052a604     libucrt:get_qualified_locale.obj
 0002:00005608       ??_C@_1BC@LLOKLNP@?$AAa?$AAm?$AAe?$AAr?$AAi?$AAc?$AAa?$AAn@ 0052a608     libucrt:get_qualified_locale.obj
 0002:0000561c       ??_C@_1CC@HEIGCDGG@?$AAa?$AAm?$AAe?$AAr?$AAi?$AAc?$AAa?$AAn?$AA?5?$AAe?$AAn?$AAg?$AAl?$AAi?$AAs@ 0052a61c     libucrt:get_qualified_locale.obj
 0002:00005640       ??_C@_1CC@IHCNOMIN@?$AAa?$AAm?$AAe?$AAr?$AAi?$AAc?$AAa?$AAn?$AA?9?$AAe?$AAn?$AAg?$AAl?$AAi?$AAs@ 0052a640     libucrt:get_qualified_locale.obj
 0002:00005664       ??_C@_1BG@GKAGPCGG@?$AAa?$AAu?$AAs?$AAt?$AAr?$AAa?$AAl?$AAi?$AAa?$AAn@ 0052a664     libucrt:get_qualified_locale.obj
 0002:0000567c       ??_C@_1BA@GMENCENF@?$AAb?$AAe?$AAl?$AAg?$AAi?$AAa?$AAn@ 0052a67c     libucrt:get_qualified_locale.obj
 0002:0000568c       ??_C@_1BC@PJMIIAAN@?$AAc?$AAa?$AAn?$AAa?$AAd?$AAi?$AAa?$AAn@ 0052a68c     libucrt:get_qualified_locale.obj
 0002:000056a0       ??_C@_17NOIMNFBF@?$AAc?$AAh?$AAh@ 0052a6a0     libucrt:get_qualified_locale.obj
 0002:000056a8       ??_C@_17GGDALCHA@?$AAc?$AAh?$AAi@ 0052a6a8     libucrt:get_qualified_locale.obj
 0002:000056b0       ??_C@_1BA@NPNJKIBL@?$AAc?$AAh?$AAi?$AAn?$AAe?$AAs?$AAe@ 0052a6b0     libucrt:get_qualified_locale.obj
 0002:000056c0       ??_C@_1CC@DINBAMMJ@?$AAc?$AAh?$AAi?$AAn?$AAe?$AAs?$AAe?$AA?9?$AAh?$AAo?$AAn?$AAg?$AAk?$AAo?$AAn@ 0052a6c0     libucrt:get_qualified_locale.obj
 0002:000056e4       ??_C@_1CG@IOBJPACO@?$AAc?$AAh?$AAi?$AAn?$AAe?$AAs?$AAe?$AA?9?$AAs?$AAi?$AAm?$AAp?$AAl?$AAi?$AAf@ 0052a6e4     libucrt:get_qualified_locale.obj
 0002:0000570c       ??_C@_1CE@GAJNDCKG@?$AAc?$AAh?$AAi?$AAn?$AAe?$AAs?$AAe?$AA?9?$AAs?$AAi?$AAn?$AAg?$AAa?$AAp?$AAo@ 0052a70c     libucrt:get_qualified_locale.obj
 0002:00005730       ??_C@_1CI@PAJPIOOD@?$AAc?$AAh?$AAi?$AAn?$AAe?$AAs?$AAe?$AA?9?$AAt?$AAr?$AAa?$AAd?$AAi?$AAt?$AAi@ 0052a730     libucrt:get_qualified_locale.obj
 0002:00005758       ??_C@_1BM@NILJBMMD@?$AAd?$AAu?$AAt?$AAc?$AAh?$AA?9?$AAb?$AAe?$AAl?$AAg?$AAi?$AAa?$AAn@ 0052a758     libucrt:get_qualified_locale.obj
 0002:00005774       ??_C@_1CC@OOJPJNEJ@?$AAe?$AAn?$AAg?$AAl?$AAi?$AAs?$AAh?$AA?9?$AAa?$AAm?$AAe?$AAr?$AAi?$AAc?$AAa@ 0052a774     libucrt:get_qualified_locale.obj
 0002:00005798       ??_C@_1BI@IOLFEEM@?$AAe?$AAn?$AAg?$AAl?$AAi?$AAs?$AAh?$AA?9?$AAa?$AAu?$AAs@ 0052a798     libucrt:get_qualified_locale.obj
 0002:000057b0       ??_C@_1BO@HFFNLENJ@?$AAe?$AAn?$AAg?$AAl?$AAi?$AAs?$AAh?$AA?9?$AAb?$AAe?$AAl?$AAi?$AAz?$AAe@ 0052a7b0     libucrt:get_qualified_locale.obj
 0002:000057d0       ??_C@_1BI@HAPKJMPO@?$AAe?$AAn?$AAg?$AAl?$AAi?$AAs?$AAh?$AA?9?$AAc?$AAa?$AAn@ 0052a7d0     libucrt:get_qualified_locale.obj
 0002:000057e8       ??_C@_1CE@HLNDMIOJ@?$AAe?$AAn?$AAg?$AAl?$AAi?$AAs?$AAh?$AA?9?$AAc?$AAa?$AAr?$AAi?$AAb?$AAb?$AAe@ 0052a7e8     libucrt:get_qualified_locale.obj
 0002:0000580c       ??_C@_1BI@LDHJHHAC@?$AAe?$AAn?$AAg?$AAl?$AAi?$AAs?$AAh?$AA?9?$AAi?$AAr?$AAe@ 0052a80c     libucrt:get_qualified_locale.obj
 0002:00005824       ??_C@_1CA@NJMMCFOC@?$AAe?$AAn?$AAg?$AAl?$AAi?$AAs?$AAh?$AA?9?$AAj?$AAa?$AAm?$AAa?$AAi?$AAc?$AAa@ 0052a824     libucrt:get_qualified_locale.obj
 0002:00005844       ??_C@_1BG@BHJEBBGG@?$AAe?$AAn?$AAg?$AAl?$AAi?$AAs?$AAh?$AA?9?$AAn?$AAz@ 0052a844     libucrt:get_qualified_locale.obj
 0002:0000585c       ??_C@_1CK@FGOEJJCO@?$AAe?$AAn?$AAg?$AAl?$AAi?$AAs?$AAh?$AA?9?$AAs?$AAo?$AAu?$AAt?$AAh?$AA?5?$AAa@ 0052a85c     libucrt:get_qualified_locale.obj
 0002:00005888       ??_C@_1DE@PDBJPCJ@?$AAe?$AAn?$AAg?$AAl?$AAi?$AAs?$AAh?$AA?9?$AAt?$AAr?$AAi?$AAn?$AAi?$AAd?$AAa@ 0052a888     libucrt:get_qualified_locale.obj
 0002:000058bc       ??_C@_1BG@JGCANDME@?$AAe?$AAn?$AAg?$AAl?$AAi?$AAs?$AAh?$AA?9?$AAu?$AAk@ 0052a8bc     libucrt:get_qualified_locale.obj
 0002:000058d4       ??_C@_1BG@DINKMLE@?$AAe?$AAn?$AAg?$AAl?$AAi?$AAs?$AAh?$AA?9?$AAu?$AAs@ 0052a8d4     libucrt:get_qualified_locale.obj
 0002:000058ec       ??_C@_1BI@NMFDBHJE@?$AAe?$AAn?$AAg?$AAl?$AAi?$AAs?$AAh?$AA?9?$AAu?$AAs?$AAa@ 0052a8ec     libucrt:get_qualified_locale.obj
 0002:00005904       ??_C@_1BO@OIHKJKII@?$AAf?$AAr?$AAe?$AAn?$AAc?$AAh?$AA?9?$AAb?$AAe?$AAl?$AAg?$AAi?$AAa?$AAn@ 0052a904     libucrt:get_qualified_locale.obj
 0002:00005924       ??_C@_1CA@NKAELJKI@?$AAf?$AAr?$AAe?$AAn?$AAc?$AAh?$AA?9?$AAc?$AAa?$AAn?$AAa?$AAd?$AAi?$AAa?$AAn@ 0052a924     libucrt:get_qualified_locale.obj
 0002:00005944       ??_C@_1CE@MGKCNLGN@?$AAf?$AAr?$AAe?$AAn?$AAc?$AAh?$AA?9?$AAl?$AAu?$AAx?$AAe?$AAm?$AAb?$AAo?$AAu@ 0052a944     libucrt:get_qualified_locale.obj
 0002:00005968       ??_C@_1BK@CEGEAILM@?$AAf?$AAr?$AAe?$AAn?$AAc?$AAh?$AA?9?$AAs?$AAw?$AAi?$AAs?$AAs@ 0052a968     libucrt:get_qualified_locale.obj
 0002:00005984       ??_C@_1CA@PAFKEOCC@?$AAg?$AAe?$AAr?$AAm?$AAa?$AAn?$AA?9?$AAa?$AAu?$AAs?$AAt?$AAr?$AAi?$AAa?$AAn@ 0052a984     libucrt:get_qualified_locale.obj
 0002:000059a4       ??_C@_1CI@HCFHGOFD@?$AAg?$AAe?$AAr?$AAm?$AAa?$AAn?$AA?9?$AAl?$AAi?$AAc?$AAh?$AAt?$AAe?$AAn?$AAs@ 0052a9a4     libucrt:get_qualified_locale.obj
 0002:000059cc       ??_C@_1CE@FEDDNPDG@?$AAg?$AAe?$AAr?$AAm?$AAa?$AAn?$AA?9?$AAl?$AAu?$AAx?$AAe?$AAm?$AAb?$AAo?$AAu@ 0052a9cc     libucrt:get_qualified_locale.obj
 0002:000059f0       ??_C@_1BK@LIMINNMN@?$AAg?$AAe?$AAr?$AAm?$AAa?$AAn?$AA?9?$AAs?$AAw?$AAi?$AAs?$AAs@ 0052a9f0     libucrt:get_qualified_locale.obj
 0002:00005a0c       ??_C@_1BM@LGMDBEPD@?$AAi?$AAr?$AAi?$AAs?$AAh?$AA?9?$AAe?$AAn?$AAg?$AAl?$AAi?$AAs?$AAh@ 0052aa0c     libucrt:get_qualified_locale.obj
 0002:00005a28       ??_C@_1BM@NNCFBAEE@?$AAi?$AAt?$AAa?$AAl?$AAi?$AAa?$AAn?$AA?9?$AAs?$AAw?$AAi?$AAs?$AAs@ 0052aa28     libucrt:get_qualified_locale.obj
 0002:00005a44       ??_C@_1BE@FEDJNPIB@?$AAn?$AAo?$AAr?$AAw?$AAe?$AAg?$AAi?$AAa?$AAn@ 0052aa44     libucrt:get_qualified_locale.obj
 0002:00005a58       ??_C@_1CC@CILKDEIE@?$AAn?$AAo?$AAr?$AAw?$AAe?$AAg?$AAi?$AAa?$AAn?$AA?9?$AAb?$AAo?$AAk?$AAm?$AAa@ 0052aa58     libucrt:get_qualified_locale.obj
 0002:00005a7c       ??_C@_1CE@DHMMHEPL@?$AAn?$AAo?$AAr?$AAw?$AAe?$AAg?$AAi?$AAa?$AAn?$AA?9?$AAn?$AAy?$AAn?$AAo?$AAr@ 0052aa7c     libucrt:get_qualified_locale.obj
 0002:00005aa0       ??_C@_1CK@OPNMHECD@?$AAp?$AAo?$AAr?$AAt?$AAu?$AAg?$AAu?$AAe?$AAs?$AAe?$AA?9?$AAb?$AAr?$AAa?$AAz@ 0052aaa0     libucrt:get_qualified_locale.obj
 0002:00005acc       ??_C@_1CE@KEEHCDB@?$AAs?$AAp?$AAa?$AAn?$AAi?$AAs?$AAh?$AA?9?$AAa?$AAr?$AAg?$AAe?$AAn?$AAt?$AAi@ 0052aacc     libucrt:get_qualified_locale.obj
 0002:00005af0       ??_C@_1CA@GIAOLHJD@?$AAs?$AAp?$AAa?$AAn?$AAi?$AAs?$AAh?$AA?9?$AAb?$AAo?$AAl?$AAi?$AAv?$AAi?$AAa@ 0052aaf0     libucrt:get_qualified_locale.obj
 0002:00005b10       ??_C@_1BM@OJNDFNPD@?$AAs?$AAp?$AAa?$AAn?$AAi?$AAs?$AAh?$AA?9?$AAc?$AAh?$AAi?$AAl?$AAe@ 0052ab10     libucrt:get_qualified_locale.obj
 0002:00005b2c       ??_C@_1CC@OCOLPALL@?$AAs?$AAp?$AAa?$AAn?$AAi?$AAs?$AAh?$AA?9?$AAc?$AAo?$AAl?$AAo?$AAm?$AAb?$AAi@ 0052ab2c     libucrt:get_qualified_locale.obj
 0002:00005b50       ??_C@_1CG@BPOFMKBB@?$AAs?$AAp?$AAa?$AAn?$AAi?$AAs?$AAh?$AA?9?$AAc?$AAo?$AAs?$AAt?$AAa?$AA?5?$AAr@ 0052ab50     libucrt:get_qualified_locale.obj
 0002:00005b78       ??_C@_1DG@IGOBAPBB@?$AAs?$AAp?$AAa?$AAn?$AAi?$AAs?$AAh?$AA?9?$AAd?$AAo?$AAm?$AAi?$AAn?$AAi?$AAc@ 0052ab78     libucrt:get_qualified_locale.obj
 0002:00005bb0       ??_C@_1CA@JHAPGEGI@?$AAs?$AAp?$AAa?$AAn?$AAi?$AAs?$AAh?$AA?9?$AAe?$AAc?$AAu?$AAa?$AAd?$AAo?$AAr@ 0052abb0     libucrt:get_qualified_locale.obj
 0002:00005bd0       ??_C@_1CI@LAPALJPP@?$AAs?$AAp?$AAa?$AAn?$AAi?$AAs?$AAh?$AA?9?$AAe?$AAl?$AA?5?$AAs?$AAa?$AAl?$AAv@ 0052abd0     libucrt:get_qualified_locale.obj
 0002:00005bf8       ??_C@_1CE@PDGBOFOM@?$AAs?$AAp?$AAa?$AAn?$AAi?$AAs?$AAh?$AA?9?$AAg?$AAu?$AAa?$AAt?$AAe?$AAm?$AAa@ 0052abf8     libucrt:get_qualified_locale.obj
 0002:00005c1c       ??_C@_1CC@NBEBAODI@?$AAs?$AAp?$AAa?$AAn?$AAi?$AAs?$AAh?$AA?9?$AAh?$AAo?$AAn?$AAd?$AAu?$AAr?$AAa@ 0052ac1c     libucrt:get_qualified_locale.obj
 0002:00005c40       ??_C@_1CA@LLKGHBMF@?$AAs?$AAp?$AAa?$AAn?$AAi?$AAs?$AAh?$AA?9?$AAm?$AAe?$AAx?$AAi?$AAc?$AAa?$AAn@ 0052ac40     libucrt:get_qualified_locale.obj
 0002:00005c60       ??_C@_1BO@LKNDOIGD@?$AAs?$AAp?$AAa?$AAn?$AAi?$AAs?$AAh?$AA?9?$AAm?$AAo?$AAd?$AAe?$AAr?$AAn@ 0052ac60     libucrt:get_qualified_locale.obj
 0002:00005c80       ??_C@_1CE@NMDMOEEB@?$AAs?$AAp?$AAa?$AAn?$AAi?$AAs?$AAh?$AA?9?$AAn?$AAi?$AAc?$AAa?$AAr?$AAa?$AAg@ 0052ac80     libucrt:get_qualified_locale.obj
 0002:00005ca4       ??_C@_1BO@LLCBEJGB@?$AAs?$AAp?$AAa?$AAn?$AAi?$AAs?$AAh?$AA?9?$AAp?$AAa?$AAn?$AAa?$AAm?$AAa@ 0052aca4     libucrt:get_qualified_locale.obj
 0002:00005cc4       ??_C@_1CC@FKPGGIHO@?$AAs?$AAp?$AAa?$AAn?$AAi?$AAs?$AAh?$AA?9?$AAp?$AAa?$AAr?$AAa?$AAg?$AAu?$AAa@ 0052acc4     libucrt:get_qualified_locale.obj
 0002:00005ce8       ??_C@_1BK@CDEIHOOP@?$AAs?$AAp?$AAa?$AAn?$AAi?$AAs?$AAh?$AA?9?$AAp?$AAe?$AAr?$AAu@ 0052ace8     libucrt:get_qualified_locale.obj
 0002:00005d04       ??_C@_1CI@GAHAKKGP@?$AAs?$AAp?$AAa?$AAn?$AAi?$AAs?$AAh?$AA?9?$AAp?$AAu?$AAe?$AAr?$AAt?$AAo?$AA?5@ 0052ad04     libucrt:get_qualified_locale.obj
 0002:00005d2c       ??_C@_1CA@NKJBCAGP@?$AAs?$AAp?$AAa?$AAn?$AAi?$AAs?$AAh?$AA?9?$AAu?$AAr?$AAu?$AAg?$AAu?$AAa?$AAy@ 0052ad2c     libucrt:get_qualified_locale.obj
 0002:00005d4c       ??_C@_1CE@ODILCONM@?$AAs?$AAp?$AAa?$AAn?$AAi?$AAs?$AAh?$AA?9?$AAv?$AAe?$AAn?$AAe?$AAz?$AAu?$AAe@ 0052ad4c     libucrt:get_qualified_locale.obj
 0002:00005d70       ??_C@_1CA@OBNMCGFO@?$AAs?$AAw?$AAe?$AAd?$AAi?$AAs?$AAh?$AA?9?$AAf?$AAi?$AAn?$AAl?$AAa?$AAn?$AAd@ 0052ad70     libucrt:get_qualified_locale.obj
 0002:00005d90       ??_C@_1M@PIPDDPPI@?$AAs?$AAw?$AAi?$AAs?$AAs@ 0052ad90     libucrt:get_qualified_locale.obj
 0002:00005d9c       ??_C@_15PJPFLCCM@?$AAu?$AAk@ 0052ad9c     libucrt:get_qualified_locale.obj
 0002:00005da4       ??_C@_15GMFIMNFM@?$AAu?$AAs@ 0052ada4     libucrt:get_qualified_locale.obj
 0002:00005dac       ??_C@_17HAEBFAGL@?$AAu?$AAs?$AAa@ 0052adac     libucrt:get_qualified_locale.obj
 0002:00005db4       ??_C@_1BA@DPFJEPHB@?$AAa?$AAm?$AAe?$AAr?$AAi?$AAc?$AAa@ 0052adb4     libucrt:get_qualified_locale.obj
 0002:00005dc4       ??_C@_1BA@ELOGGFK@?$AAb?$AAr?$AAi?$AAt?$AAa?$AAi?$AAn@ 0052adc4     libucrt:get_qualified_locale.obj
 0002:00005dd4       ??_C@_1M@GHBGIGDA@?$AAc?$AAh?$AAi?$AAn?$AAa@ 0052add4     libucrt:get_qualified_locale.obj
 0002:00005de0       ??_C@_1M@NCHEJOPO@?$AAc?$AAz?$AAe?$AAc?$AAh@ 0052ade0     libucrt:get_qualified_locale.obj
 0002:00005dec       ??_C@_1BA@BKPAPBLA@?$AAe?$AAn?$AAg?$AAl?$AAa?$AAn?$AAd@ 0052adec     libucrt:get_qualified_locale.obj
 0002:00005dfc       ??_C@_1BM@HKBCKIPC@?$AAg?$AAr?$AAe?$AAa?$AAt?$AA?5?$AAb?$AAr?$AAi?$AAt?$AAa?$AAi?$AAn@ 0052adfc     libucrt:get_qualified_locale.obj
 0002:00005e18       ??_C@_1BA@PPCHPGJB@?$AAh?$AAo?$AAl?$AAl?$AAa?$AAn?$AAd@ 0052ae18     libucrt:get_qualified_locale.obj
 0002:00005e28       ??_C@_1BE@JBMPEGDG@?$AAh?$AAo?$AAn?$AAg?$AA?9?$AAk?$AAo?$AAn?$AAg@ 0052ae28     libucrt:get_qualified_locale.obj
 0002:00005e3c       ??_C@_1BI@KOELBBPJ@?$AAn?$AAe?$AAw?$AA?9?$AAz?$AAe?$AAa?$AAl?$AAa?$AAn?$AAd@ 0052ae3c     libucrt:get_qualified_locale.obj
 0002:00005e54       ??_C@_15HIEBHAIO@?$AAn?$AAz@ 0052ae54     libucrt:get_qualified_locale.obj
 0002:00005e5c       ??_C@_1BC@CHBCPFPI@?$AAp?$AAr?$AA?5?$AAc?$AAh?$AAi?$AAn?$AAa@ 0052ae5c     libucrt:get_qualified_locale.obj
 0002:00005e70       ??_C@_1BC@JAOIIFKD@?$AAp?$AAr?$AA?9?$AAc?$AAh?$AAi?$AAn?$AAa@ 0052ae70     libucrt:get_qualified_locale.obj
 0002:00005e84       ??_C@_1BI@BEHPPHKC@?$AAp?$AAu?$AAe?$AAr?$AAt?$AAo?$AA?9?$AAr?$AAi?$AAc?$AAo@ 0052ae84     libucrt:get_qualified_locale.obj
 0002:00005e9c       ??_C@_1O@PAEOFKDI@?$AAs?$AAl?$AAo?$AAv?$AAa?$AAk@ 0052ae9c     libucrt:get_qualified_locale.obj
 0002:00005eac       ??_C@_1BK@FIHMCKAM@?$AAs?$AAo?$AAu?$AAt?$AAh?$AA?5?$AAa?$AAf?$AAr?$AAi?$AAc?$AAa@ 0052aeac     libucrt:get_qualified_locale.obj
 0002:00005ec8       ??_C@_1BI@NAEOODKB@?$AAs?$AAo?$AAu?$AAt?$AAh?$AA?5?$AAk?$AAo?$AAr?$AAe?$AAa@ 0052aec8     libucrt:get_qualified_locale.obj
 0002:00005ee0       ??_C@_1BK@FBDGGIFF@?$AAs?$AAo?$AAu?$AAt?$AAh?$AA?9?$AAa?$AAf?$AAr?$AAi?$AAc?$AAa@ 0052aee0     libucrt:get_qualified_locale.obj
 0002:00005efc       ??_C@_1BI@GHLEJDPK@?$AAs?$AAo?$AAu?$AAt?$AAh?$AA?9?$AAk?$AAo?$AAr?$AAe?$AAa@ 0052aefc     libucrt:get_qualified_locale.obj
 0002:00005f14       ??_C@_1CE@PLHLOMJF@?$AAt?$AAr?$AAi?$AAn?$AAi?$AAd?$AAa?$AAd?$AA?5?$AA?$CG?$AA?5?$AAt?$AAo?$AAb?$AAa@ 0052af14     libucrt:get_qualified_locale.obj
 0002:00005f38       ??_C@_1BO@MODIMHHI@?$AAu?$AAn?$AAi?$AAt?$AAe?$AAd?$AA?9?$AAk?$AAi?$AAn?$AAg?$AAd?$AAo?$AAm@ 0052af38     libucrt:get_qualified_locale.obj
 0002:00005f58       ??_C@_1BM@FFHJONBJ@?$AAu?$AAn?$AAi?$AAt?$AAe?$AAd?$AA?9?$AAs?$AAt?$AAa?$AAt?$AAe?$AAs@ 0052af58     libucrt:get_qualified_locale.obj
 0002:00005f74       ??_C@_19MPDNHKDG@?$AAu?$AAt?$AAf?$AA8@ 0052af74     libucrt:get_qualified_locale.obj
 0002:00005f80       ??_C@_17DNCLJFIF@?$AAA?$AAC?$AAP@ 0052af80     libucrt:get_qualified_locale.obj
 0002:00005f88       ??_C@_1M@FPEIIFAM@?$AAu?$AAt?$AAf?$AA?9?$AA8@ 0052af88     libucrt:get_qualified_locale.obj
 0002:00005f94       ??_C@_17CIKBIHLH@?$AAO?$AAC?$AAP@ 0052af94     libucrt:get_qualified_locale.obj
 0002:00005f9c       ___rglangidNotDefault      0052af9c     libucrt:getqloc_downlevel.obj
 0002:00005fb0       ??_C@_05DNEBIAHO@1?$CDINF@ 0052afb0     libucrt:cfout.obj
 0002:00005fb8       ??_C@_06IMKFLFPG@1?$CDQNAN@ 0052afb8     libucrt:cfout.obj
 0002:00005fc0       ??_C@_06PGGFOGJG@1?$CDSNAN@ 0052afc0     libucrt:cfout.obj
 0002:00005fc8       ??_C@_05PHHOCPM@1?$CDIND@  0052afc8     libucrt:cfout.obj
 0002:000066f0       ??_C@_15EMKDOKLE@?$AAa?$AAr@ 0052b6f0     libucrt:lcidtoname_downlevel.obj
 0002:000066f8       ??_C@_15KNPADPLH@?$AAb?$AAg@ 0052b6f8     libucrt:lcidtoname_downlevel.obj
 0002:00006700       ??_C@_15EDMHLDMO@?$AAc?$AAa@ 0052b700     libucrt:lcidtoname_downlevel.obj
 0002:00006708       ??_C@_1O@BPEAJADD@?$AAz?$AAh?$AA?9?$AAC?$AAH?$AAS@ 0052b708     libucrt:lcidtoname_downlevel.obj
 0002:00006718       ??_C@_15LJNHCMNK@?$AAc?$AAs@ 0052b718     libucrt:lcidtoname_downlevel.obj
 0002:00006720       ??_C@_15FOMCIDHG@?$AAd?$AAa@ 0052b720     libucrt:lcidtoname_downlevel.obj
 0002:00006728       ??_C@_15NBKABECB@?$AAd?$AAe@ 0052b728     libucrt:lcidtoname_downlevel.obj
 0002:00006730       ??_C@_15GHPEIIAO@?$AAe?$AAl@ 0052b730     libucrt:lcidtoname_downlevel.obj
 0002:00006738       ??_C@_15MNPNEAIF@?$AAe?$AAn@ 0052b738     libucrt:lcidtoname_downlevel.obj
 0002:00006740       ??_C@_15GPIOMPMH@?$AAe?$AAs@ 0052b740     libucrt:lcidtoname_downlevel.obj
 0002:00006748       ??_C@_15NGLOAKJC@?$AAf?$AAi@ 0052b748     libucrt:lcidtoname_downlevel.obj
 0002:00006750       ??_C@_15FBKGNKAM@?$AAf?$AAr@ 0052b750     libucrt:lcidtoname_downlevel.obj
 0002:00006758       ??_C@_15KGGCNEFK@?$AAh?$AAe@ 0052b758     libucrt:lcidtoname_downlevel.obj
 0002:00006760       ??_C@_15PGHLIDMF@?$AAh?$AAu@ 0052b760     libucrt:lcidtoname_downlevel.obj
 0002:00006768       ??_C@_15BIEMAPLM@?$AAi?$AAs@ 0052b768     libucrt:lcidtoname_downlevel.obj
 0002:00006770       ??_C@_15IFJLDHAF@?$AAi?$AAt@ 0052b770     libucrt:lcidtoname_downlevel.obj
 0002:00006778       ??_C@_15GEMIOCAG@?$AAj?$AAa@ 0052b778     libucrt:lcidtoname_downlevel.obj
 0002:00006780       ??_C@_15EPELEGJA@?$AAk?$AAo@ 0052b780     libucrt:lcidtoname_downlevel.obj
 0002:00006788       ??_C@_15NDDHIMN@?$AAn?$AAl@ 0052b788     libucrt:lcidtoname_downlevel.obj
 0002:00006790       ??_C@_15BPIGNHCD@?$AAn?$AAo@ 0052b790     libucrt:lcidtoname_downlevel.obj
 0002:00006798       ??_C@_15DEOPBLCG@?$AAp?$AAl@ 0052b798     libucrt:lcidtoname_downlevel.obj
 0002:000067a0       ??_C@_15KBECGEFG@?$AAp?$AAt@ 0052b7a0     libucrt:lcidtoname_downlevel.obj
 0002:000067a8       ??_C@_15GLJCBFMD@?$AAr?$AAo@ 0052b7a8     libucrt:lcidtoname_downlevel.obj
 0002:000067b0       ??_C@_15FEDGKCDI@?$AAr?$AAu@ 0052b7b0     libucrt:lcidtoname_downlevel.obj
 0002:000067b8       ??_C@_15GLKMLLHM@?$AAh?$AAr@ 0052b7b8     libucrt:lcidtoname_downlevel.obj
 0002:000067c0       ??_C@_15CPKMFBDB@?$AAs?$AAk@ 0052b7c0     libucrt:lcidtoname_downlevel.obj
 0002:000067c8       ??_C@_15BAAIOGMK@?$AAs?$AAq@ 0052b7c8     libucrt:lcidtoname_downlevel.obj
 0002:000067d0       ??_C@_15INNPNOHD@?$AAs?$AAv@ 0052b7d0     libucrt:lcidtoname_downlevel.obj
 0002:000067d8       ??_C@_15CABMMOGH@?$AAt?$AAh@ 0052b7d8     libucrt:lcidtoname_downlevel.obj
 0002:000067e0       ??_C@_15BPLIHJJM@?$AAt?$AAr@ 0052b7e0     libucrt:lcidtoname_downlevel.obj
 0002:000067e8       ??_C@_15NEOEKKDJ@?$AAu?$AAr@ 0052b7e8     libucrt:lcidtoname_downlevel.obj
 0002:000067f0       ??_C@_15NFICGAJK@?$AAi?$AAd@ 0052b7f0     libucrt:lcidtoname_downlevel.obj
 0002:000067f8       ??_C@_15HPJPHDM@?$AAb?$AAe@ 0052b7f8     libucrt:lcidtoname_downlevel.obj
 0002:00006800       ??_C@_15LCHLGJII@?$AAs?$AAl@ 0052b800     libucrt:lcidtoname_downlevel.obj
 0002:00006808       ??_C@_15PCFJPHHO@?$AAe?$AAt@ 0052b808     libucrt:lcidtoname_downlevel.obj
 0002:00006810       ??_C@_15HPFPGODN@?$AAl?$AAv@ 0052b810     libucrt:lcidtoname_downlevel.obj
 0002:00006818       ??_C@_15NFFGKGLG@?$AAl?$AAt@ 0052b818     libucrt:lcidtoname_downlevel.obj
 0002:00006820       ??_C@_15BDAKCCHN@?$AAf?$AAa@ 0052b820     libucrt:lcidtoname_downlevel.obj
 0002:00006828       ??_C@_15NFGIAIAJ@?$AAv?$AAi@ 0052b828     libucrt:lcidtoname_downlevel.obj
 0002:00006830       ??_C@_15LMKNDMHN@?$AAh?$AAy@ 0052b830     libucrt:lcidtoname_downlevel.obj
 0002:00006838       ??_C@_15IJBHMCFL@?$AAa?$AAz@ 0052b838     libucrt:lcidtoname_downlevel.obj
 0002:00006840       ??_C@_15EKOFJABL@?$AAe?$AAu@ 0052b840     libucrt:lcidtoname_downlevel.obj
 0002:00006848       ??_C@_15BGHADCNK@?$AAm?$AAk@ 0052b848     libucrt:lcidtoname_downlevel.obj
 0002:00006850       ??_C@_15JDNICKHM@?$AAa?$AAf@ 0052b850     libucrt:lcidtoname_downlevel.obj
 0002:00006858       ??_C@_15KPJEDBKD@?$AAk?$AAa@ 0052b858     libucrt:lcidtoname_downlevel.obj
 0002:00006860       ??_C@_15PDNFFFEO@?$AAf?$AAo@ 0052b860     libucrt:lcidtoname_downlevel.obj
 0002:00006868       ??_C@_15OMLEGLOC@?$AAh?$AAi@ 0052b868     libucrt:lcidtoname_downlevel.obj
 0002:00006870       ??_C@_15IDNNENKK@?$AAm?$AAs@ 0052b870     libucrt:lcidtoname_downlevel.obj
 0002:00006878       ??_C@_15MACJNBMH@?$AAk?$AAk@ 0052b878     libucrt:lcidtoname_downlevel.obj
 0002:00006880       ??_C@_15DKDJEOND@?$AAk?$AAy@ 0052b880     libucrt:lcidtoname_downlevel.obj
 0002:00006888       ??_C@_15DFGDLJBG@?$AAs?$AAw@ 0052b888     libucrt:lcidtoname_downlevel.obj
 0002:00006890       ??_C@_15BBFAICNG@?$AAu?$AAz@ 0052b890     libucrt:lcidtoname_downlevel.obj
 0002:00006898       ??_C@_15DKNDCGEA@?$AAt?$AAt@ 0052b898     libucrt:lcidtoname_downlevel.obj
 0002:000068a0       ??_C@_15MGIFMDPL@?$AAp?$AAa@ 0052b8a0     libucrt:lcidtoname_downlevel.obj
 0002:000068a8       ??_C@_15HCNDBBA@?$AAg?$AAu@ 0052b8a8     libucrt:lcidtoname_downlevel.obj
 0002:000068b0       ??_C@_15FNBEIBON@?$AAt?$AAa@ 0052b8b0     libucrt:lcidtoname_downlevel.obj
 0002:000068b8       ??_C@_15NCHGBGLK@?$AAt?$AAe@ 0052b8b8     libucrt:lcidtoname_downlevel.obj
 0002:000068c0       ??_C@_15PHPHCBPF@?$AAk?$AAn@ 0052b8c0     libucrt:lcidtoname_downlevel.obj
 0002:000068c8       ??_C@_15DLGBCKMP@?$AAm?$AAr@ 0052b8c8     libucrt:lcidtoname_downlevel.obj
 0002:000068d0       ??_C@_15EABBLBFF@?$AAs?$AAa@ 0052b8d0     libucrt:lcidtoname_downlevel.obj
 0002:000068d8       ??_C@_15CBKOMCOI@?$AAm?$AAn@ 0052b8d8     libucrt:lcidtoname_downlevel.obj
 0002:000068e0       ??_C@_15CKDMCJAF@?$AAg?$AAl@ 0052b8e0     libucrt:lcidtoname_downlevel.obj
 0002:000068e8       ??_C@_17CNJFBPG@?$AAk?$AAo?$AAk@ 0052b8e8     libucrt:lcidtoname_downlevel.obj
 0002:000068f0       ??_C@_17FFBJICPL@?$AAs?$AAy?$AAr@ 0052b8f0     libucrt:lcidtoname_downlevel.obj
 0002:000068f8       ??_C@_17KPNDCPAF@?$AAd?$AAi?$AAv@ 0052b8f8     libucrt:lcidtoname_downlevel.obj
 0002:00006900       ??_C@_11LOCGONAA@@         0052b900     libucrt:lcidtoname_downlevel.obj
 0002:00006904       ??_C@_1M@OKAHONE@?$AAa?$AAr?$AA?9?$AAS?$AAA@ 0052b904     libucrt:lcidtoname_downlevel.obj
 0002:00006910       ??_C@_1M@FFFIGIGK@?$AAb?$AAg?$AA?9?$AAB?$AAG@ 0052b910     libucrt:lcidtoname_downlevel.obj
 0002:0000691c       ??_C@_1M@BJNKEDC@?$AAc?$AAa?$AA?9?$AAE?$AAS@ 0052b91c     libucrt:lcidtoname_downlevel.obj
 0002:00006928       ??_C@_1M@IJJHFJHA@?$AAc?$AAs?$AA?9?$AAC?$AAZ@ 0052b928     libucrt:lcidtoname_downlevel.obj
 0002:00006934       ??_C@_1M@CLPEOBGI@?$AAd?$AAa?$AA?9?$AAD?$AAK@ 0052b934     libucrt:lcidtoname_downlevel.obj
 0002:00006940       ??_C@_1M@MCMADGCB@?$AAd?$AAe?$AA?9?$AAD?$AAE@ 0052b940     libucrt:lcidtoname_downlevel.obj
 0002:0000694c       ??_C@_1M@OOCKEMAM@?$AAe?$AAl?$AA?9?$AAG?$AAR@ 0052b94c     libucrt:lcidtoname_downlevel.obj
 0002:00006958       ??_C@_1M@DDNJFGID@?$AAf?$AAi?$AA?9?$AAF?$AAI@ 0052b958     libucrt:lcidtoname_downlevel.obj
 0002:00006964       ??_C@_1M@GLIPPMAC@?$AAf?$AAr?$AA?9?$AAF?$AAR@ 0052b964     libucrt:lcidtoname_downlevel.obj
 0002:00006970       ??_C@_1M@GFMCHPE@?$AAh?$AAe?$AA?9?$AAI?$AAL@ 0052b970     libucrt:lcidtoname_downlevel.obj
 0002:0000697c       ??_C@_1M@MHLPGNKM@?$AAh?$AAu?$AA?9?$AAH?$AAU@ 0052b97c     libucrt:lcidtoname_downlevel.obj
 0002:00006988       ??_C@_1M@LPDDNNPN@?$AAi?$AAs?$AA?9?$AAI?$AAS@ 0052b988     libucrt:lcidtoname_downlevel.obj
 0002:00006994       ??_C@_1M@MADIPODN@?$AAi?$AAt?$AA?9?$AAI?$AAT@ 0052b994     libucrt:lcidtoname_downlevel.obj
 0002:000069a0       ??_C@_1M@IHBJJGG@?$AAn?$AAl?$AA?9?$AAN?$AAL@ 0052b9a0     libucrt:lcidtoname_downlevel.obj
 0002:000069ac       ??_C@_1M@EANAGDL@?$AAn?$AAb?$AA?9?$AAN?$AAO@ 0052b9ac     libucrt:lcidtoname_downlevel.obj
 0002:000069b8       ??_C@_1M@NEIEMEGP@?$AAp?$AAl?$AA?9?$AAP?$AAL@ 0052b9b8     libucrt:lcidtoname_downlevel.obj
 0002:000069c4       ??_C@_1M@BOCFIGEP@?$AAp?$AAt?$AA?9?$AAB?$AAR@ 0052b9c4     libucrt:lcidtoname_downlevel.obj
 0002:000069d0       ??_C@_1M@IMPFOPBG@?$AAr?$AAo?$AA?9?$AAR?$AAO@ 0052b9d0     libucrt:lcidtoname_downlevel.obj
 0002:000069dc       ??_C@_1M@IDNNEJMM@?$AAr?$AAu?$AA?9?$AAR?$AAU@ 0052b9dc     libucrt:lcidtoname_downlevel.obj
 0002:000069e8       ??_C@_1M@LILEEOGM@?$AAh?$AAr?$AA?9?$AAH?$AAR@ 0052b9e8     libucrt:lcidtoname_downlevel.obj
 0002:000069f4       ??_C@_1M@FKIFEHPB@?$AAs?$AAk?$AA?9?$AAS?$AAK@ 0052b9f4     libucrt:lcidtoname_downlevel.obj
 0002:00006a00       ??_C@_1M@LJMAMNPJ@?$AAs?$AAq?$AA?9?$AAA?$AAL@ 0052ba00     libucrt:lcidtoname_downlevel.obj
 0002:00006a0c       ??_C@_1M@GIAKDKJK@?$AAs?$AAv?$AA?9?$AAS?$AAE@ 0052ba0c     libucrt:lcidtoname_downlevel.obj
 0002:00006a18       ??_C@_1M@MKJKIKCL@?$AAt?$AAh?$AA?9?$AAT?$AAH@ 0052ba18     libucrt:lcidtoname_downlevel.obj
 0002:00006a24       ??_C@_1M@MFLCCMPB@?$AAt?$AAr?$AA?9?$AAT?$AAR@ 0052ba24     libucrt:lcidtoname_downlevel.obj
 0002:00006a30       ??_C@_1M@OIJHDKJN@?$AAu?$AAr?$AA?9?$AAP?$AAK@ 0052ba30     libucrt:lcidtoname_downlevel.obj
 0002:00006a3c       ??_C@_1M@LHIPCIEK@?$AAi?$AAd?$AA?9?$AAI?$AAD@ 0052ba3c     libucrt:lcidtoname_downlevel.obj
 0002:00006a48       ??_C@_1M@MFMOBGI@?$AAu?$AAk?$AA?9?$AAU?$AAA@ 0052ba48     libucrt:lcidtoname_downlevel.obj
 0002:00006a54       ??_C@_1M@OBGLJIPL@?$AAb?$AAe?$AA?9?$AAB?$AAY@ 0052ba54     libucrt:lcidtoname_downlevel.obj
 0002:00006a60       ??_C@_1M@BCFAJEAD@?$AAs?$AAl?$AA?9?$AAS?$AAI@ 0052ba60     libucrt:lcidtoname_downlevel.obj
 0002:00006a6c       ??_C@_1M@FKFFEDDN@?$AAe?$AAt?$AA?9?$AAE?$AAE@ 0052ba6c     libucrt:lcidtoname_downlevel.obj
 0002:00006a78       ??_C@_1M@KGKKAACI@?$AAl?$AAv?$AA?9?$AAL?$AAV@ 0052ba78     libucrt:lcidtoname_downlevel.obj
 0002:00006a84       ??_C@_1M@IFGBIJO@?$AAl?$AAt?$AA?9?$AAL?$AAT@ 0052ba84     libucrt:lcidtoname_downlevel.obj
 0002:00006a90       ??_C@_1M@FGEAHEDM@?$AAf?$AAa?$AA?9?$AAI?$AAR@ 0052ba90     libucrt:lcidtoname_downlevel.obj
 0002:00006a9c       ??_C@_1M@KBMAIBFN@?$AAv?$AAi?$AA?9?$AAV?$AAN@ 0052ba9c     libucrt:lcidtoname_downlevel.obj
 0002:00006aa8       ??_C@_1M@GPCBKDJK@?$AAh?$AAy?$AA?9?$AAA?$AAM@ 0052baa8     libucrt:lcidtoname_downlevel.obj
 0002:00006ab4       ??_C@_1BG@BECMDDJB@?$AAa?$AAz?$AA?9?$AAA?$AAZ?$AA?9?$AAL?$AAa?$AAt?$AAn@ 0052bab4     libucrt:lcidtoname_downlevel.obj
 0002:00006acc       ??_C@_1M@MAOFCAEA@?$AAe?$AAu?$AA?9?$AAE?$AAS@ 0052bacc     libucrt:lcidtoname_downlevel.obj
 0002:00006ad8       ??_C@_1M@IGHABKPI@?$AAm?$AAk?$AA?9?$AAM?$AAK@ 0052bad8     libucrt:lcidtoname_downlevel.obj
 0002:00006ae4       ??_C@_1M@IAIGNEJG@?$AAt?$AAn?$AA?9?$AAZ?$AAA@ 0052bae4     libucrt:lcidtoname_downlevel.obj
 0002:00006af0       ??_C@_1M@IIJCOJFA@?$AAx?$AAh?$AA?9?$AAZ?$AAA@ 0052baf0     libucrt:lcidtoname_downlevel.obj
 0002:00006afc       ??_C@_1M@LGPJHNJH@?$AAz?$AAu?$AA?9?$AAZ?$AAA@ 0052bafc     libucrt:lcidtoname_downlevel.obj
 0002:00006b08       ??_C@_1M@HOKAOIO@?$AAa?$AAf?$AA?9?$AAZ?$AAA@ 0052bb08     libucrt:lcidtoname_downlevel.obj
 0002:00006b14       ??_C@_1M@DPCLHLIE@?$AAk?$AAa?$AA?9?$AAG?$AAE@ 0052bb14     libucrt:lcidtoname_downlevel.obj
 0002:00006b20       ??_C@_1M@BLKMHJBI@?$AAf?$AAo?$AA?9?$AAF?$AAO@ 0052bb20     libucrt:lcidtoname_downlevel.obj
 0002:00006b2c       ??_C@_1M@LGGJAPPB@?$AAh?$AAi?$AA?9?$AAI?$AAN@ 0052bb2c     libucrt:lcidtoname_downlevel.obj
 0002:00006b38       ??_C@_1M@FIKPIHFE@?$AAm?$AAt?$AA?9?$AAM?$AAT@ 0052bb38     libucrt:lcidtoname_downlevel.obj
 0002:00006b44       ??_C@_1M@HEGGPBFA@?$AAs?$AAe?$AA?9?$AAN?$AAO@ 0052bb44     libucrt:lcidtoname_downlevel.obj
 0002:00006b50       ??_C@_1M@EIBJEEPA@?$AAm?$AAs?$AA?9?$AAM?$AAY@ 0052bb50     libucrt:lcidtoname_downlevel.obj
 0002:00006b5c       ??_C@_1M@FHLBGMPP@?$AAk?$AAk?$AA?9?$AAK?$AAZ@ 0052bb5c     libucrt:lcidtoname_downlevel.obj
 0002:00006b68       ??_C@_1M@NGJJLCGI@?$AAk?$AAy?$AA?9?$AAK?$AAG@ 0052bb68     libucrt:lcidtoname_downlevel.obj
 0002:00006b74       ??_C@_1M@GIENNBFC@?$AAs?$AAw?$AA?9?$AAK?$AAE@ 0052bb74     libucrt:lcidtoname_downlevel.obj
 0002:00006b80       ??_C@_1BG@NDGMJIMJ@?$AAu?$AAz?$AA?9?$AAU?$AAZ?$AA?9?$AAL?$AAa?$AAt?$AAn@ 0052bb80     libucrt:lcidtoname_downlevel.obj
 0002:00006b98       ??_C@_1M@IDCCIHBC@?$AAt?$AAt?$AA?9?$AAR?$AAU@ 0052bb98     libucrt:lcidtoname_downlevel.obj
 0002:00006ba4       ??_C@_1M@LOICPMOJ@?$AAb?$AAn?$AA?9?$AAI?$AAN@ 0052bba4     libucrt:lcidtoname_downlevel.obj
 0002:00006bb0       ??_C@_1M@KPKKNEAH@?$AAp?$AAa?$AA?9?$AAI?$AAN@ 0052bbb0     libucrt:lcidtoname_downlevel.obj
 0002:00006bbc       ??_C@_1M@PJGPPBOG@?$AAg?$AAu?$AA?9?$AAI?$AAN@ 0052bbbc     libucrt:lcidtoname_downlevel.obj
 0002:00006bc8       ??_C@_1M@KMKMOPHI@?$AAt?$AAa?$AA?9?$AAI?$AAN@ 0052bbc8     libucrt:lcidtoname_downlevel.obj
 0002:00006bd4       ??_C@_1M@KFEHEPAC@?$AAt?$AAe?$AA?9?$AAI?$AAN@ 0052bbd4     libucrt:lcidtoname_downlevel.obj
 0002:00006be0       ??_C@_1M@CDCLMGHI@?$AAk?$AAn?$AA?9?$AAI?$AAN@ 0052bbe0     libucrt:lcidtoname_downlevel.obj
 0002:00006bec       ??_C@_1M@MIODLDKF@?$AAm?$AAl?$AA?9?$AAI?$AAN@ 0052bbec     libucrt:lcidtoname_downlevel.obj
 0002:00006bf8       ??_C@_1M@PBIEACPO@?$AAm?$AAr?$AA?9?$AAI?$AAN@ 0052bbf8     libucrt:lcidtoname_downlevel.obj
 0002:00006c04       ??_C@_1M@NIDEAGPH@?$AAs?$AAa?$AA?9?$AAI?$AAN@ 0052bc04     libucrt:lcidtoname_downlevel.obj
 0002:00006c10       ??_C@_1M@FHIHCBIO@?$AAm?$AAn?$AA?9?$AAM?$AAN@ 0052bc10     libucrt:lcidtoname_downlevel.obj
 0002:00006c1c       ??_C@_1M@JAIJPENP@?$AAc?$AAy?$AA?9?$AAG?$AAB@ 0052bc1c     libucrt:lcidtoname_downlevel.obj
 0002:00006c28       ??_C@_1M@PHGFBEPN@?$AAg?$AAl?$AA?9?$AAE?$AAS@ 0052bc28     libucrt:lcidtoname_downlevel.obj
 0002:00006c34       ??_C@_1O@KPIPDNCP@?$AAk?$AAo?$AAk?$AA?9?$AAI?$AAN@ 0052bc34     libucrt:lcidtoname_downlevel.obj
 0002:00006c44       ??_C@_1O@KNHJLDJA@?$AAs?$AAy?$AAr?$AA?9?$AAS?$AAY@ 0052bc44     libucrt:lcidtoname_downlevel.obj
 0002:00006c54       ??_C@_1O@MKEKBLAH@?$AAd?$AAi?$AAv?$AA?9?$AAM?$AAV@ 0052bc54     libucrt:lcidtoname_downlevel.obj
 0002:00006c64       ??_C@_1O@OHDCKDDF@?$AAq?$AAu?$AAz?$AA?9?$AAB?$AAO@ 0052bc64     libucrt:lcidtoname_downlevel.obj
 0002:00006c74       ??_C@_1M@LEPJNLFD@?$AAn?$AAs?$AA?9?$AAZ?$AAA@ 0052bc74     libucrt:lcidtoname_downlevel.obj
 0002:00006c80       ??_C@_1M@OMLEIIJB@?$AAm?$AAi?$AA?9?$AAN?$AAZ@ 0052bc80     libucrt:lcidtoname_downlevel.obj
 0002:00006c8c       ??_C@_1M@PMPEAILG@?$AAa?$AAr?$AA?9?$AAI?$AAQ@ 0052bc8c     libucrt:lcidtoname_downlevel.obj
 0002:00006c98       ??_C@_1M@CNKPNOEE@?$AAd?$AAe?$AA?9?$AAC?$AAH@ 0052bc98     libucrt:lcidtoname_downlevel.obj
 0002:00006ca4       ??_C@_1M@LKMGMLKO@?$AAe?$AAn?$AA?9?$AAG?$AAB@ 0052bca4     libucrt:lcidtoname_downlevel.obj
 0002:00006cb0       ??_C@_1M@PGKJFFGL@?$AAe?$AAs?$AA?9?$AAM?$AAX@ 0052bcb0     libucrt:lcidtoname_downlevel.obj
 0002:00006cbc       ??_C@_1M@DNNANBDC@?$AAf?$AAr?$AA?9?$AAB?$AAE@ 0052bcbc     libucrt:lcidtoname_downlevel.obj
 0002:00006cc8       ??_C@_1M@HLGMDFHM@?$AAi?$AAt?$AA?9?$AAC?$AAH@ 0052bcc8     libucrt:lcidtoname_downlevel.obj
 0002:00006cd4       ??_C@_1M@CLLBGJH@?$AAn?$AAl?$AA?9?$AAB?$AAE@ 0052bcd4     libucrt:lcidtoname_downlevel.obj
 0002:00006ce0       ??_C@_1M@BODBOGLF@?$AAn?$AAn?$AA?9?$AAN?$AAO@ 0052bce0     libucrt:lcidtoname_downlevel.obj
 0002:00006cec       ??_C@_1M@HFFAHKAD@?$AAp?$AAt?$AA?9?$AAP?$AAT@ 0052bcec     libucrt:lcidtoname_downlevel.obj
 0002:00006cf8       ??_C@_1BG@LNOAKHIE@?$AAs?$AAr?$AA?9?$AAS?$AAP?$AA?9?$AAL?$AAa?$AAt?$AAn@ 0052bcf8     libucrt:lcidtoname_downlevel.obj
 0002:00006d10       ??_C@_1M@HBMHBGAK@?$AAs?$AAv?$AA?9?$AAF?$AAI@ 0052bd10     libucrt:lcidtoname_downlevel.obj
 0002:00006d1c       ??_C@_1BG@DGCJGJBE@?$AAa?$AAz?$AA?9?$AAA?$AAZ?$AA?9?$AAC?$AAy?$AAr?$AAl@ 0052bd1c     libucrt:lcidtoname_downlevel.obj
 0002:00006d34       ??_C@_1M@KEJDAAHB@?$AAs?$AAe?$AA?9?$AAS?$AAE@ 0052bd34     libucrt:lcidtoname_downlevel.obj
 0002:00006d40       ??_C@_1M@HEIBJJAD@?$AAm?$AAs?$AA?9?$AAB?$AAN@ 0052bd40     libucrt:lcidtoname_downlevel.obj
 0002:00006d4c       ??_C@_1BG@PBGJMCEM@?$AAu?$AAz?$AA?9?$AAU?$AAZ?$AA?9?$AAC?$AAy?$AAr?$AAl@ 0052bd4c     libucrt:lcidtoname_downlevel.obj
 0002:00006d64       ??_C@_1O@LAOBCMDF@?$AAq?$AAu?$AAz?$AA?9?$AAE?$AAC@ 0052bd64     libucrt:lcidtoname_downlevel.obj
 0002:00006d74       ??_C@_1M@POEEMAIO@?$AAa?$AAr?$AA?9?$AAE?$AAG@ 0052bd74     libucrt:lcidtoname_downlevel.obj
 0002:00006d80       ??_C@_1M@EFAKDEDL@?$AAz?$AAh?$AA?9?$AAH?$AAK@ 0052bd80     libucrt:lcidtoname_downlevel.obj
 0002:00006d8c       ??_C@_1M@HKKIJHGI@?$AAd?$AAe?$AA?9?$AAA?$AAT@ 0052bd8c     libucrt:lcidtoname_downlevel.obj
 0002:00006d98       ??_C@_1M@KBFBEHJF@?$AAe?$AAn?$AA?9?$AAA?$AAU@ 0052bd98     libucrt:lcidtoname_downlevel.obj
 0002:00006da4       ??_C@_1M@MNPLFAAH@?$AAe?$AAs?$AA?9?$AAE?$AAS@ 0052bda4     libucrt:lcidtoname_downlevel.obj
 0002:00006db0       ??_C@_1M@HJOOJFMA@?$AAf?$AAr?$AA?9?$AAC?$AAA@ 0052bdb0     libucrt:lcidtoname_downlevel.obj
 0002:00006dbc       ??_C@_1BG@JPOFPNAB@?$AAs?$AAr?$AA?9?$AAS?$AAP?$AA?9?$AAC?$AAy?$AAr?$AAl@ 0052bdbc     libucrt:lcidtoname_downlevel.obj
 0002:00006dd4       ??_C@_1M@LNFOCMOB@?$AAs?$AAe?$AA?9?$AAF?$AAI@ 0052bdd4     libucrt:lcidtoname_downlevel.obj
 0002:00006de0       ??_C@_1O@MGJBOAMB@?$AAq?$AAu?$AAz?$AA?9?$AAP?$AAE@ 0052bde0     libucrt:lcidtoname_downlevel.obj
 0002:00006df0       ??_C@_1M@GJINLBOK@?$AAa?$AAr?$AA?9?$AAL?$AAY@ 0052bdf0     libucrt:lcidtoname_downlevel.obj
 0002:00006dfc       ??_C@_1M@GGMNHJNL@?$AAz?$AAh?$AA?9?$AAS?$AAG@ 0052bdfc     libucrt:lcidtoname_downlevel.obj
 0002:00006e08       ??_C@_1M@HOIKODND@?$AAd?$AAe?$AA?9?$AAL?$AAU@ 0052be08     libucrt:lcidtoname_downlevel.obj
 0002:00006e14       ??_C@_1M@DDOCCGFG@?$AAe?$AAn?$AA?9?$AAC?$AAA@ 0052be14     libucrt:lcidtoname_downlevel.obj
 0002:00006e20       ??_C@_1M@BNOEMJLF@?$AAe?$AAs?$AA?9?$AAG?$AAT@ 0052be20     libucrt:lcidtoname_downlevel.obj
 0002:00006e2c       ??_C@_1M@EOGNKEK@?$AAf?$AAr?$AA?9?$AAC?$AAH@ 0052be2c     libucrt:lcidtoname_downlevel.obj
 0002:00006e38       ??_C@_1M@FLIDJFHL@?$AAh?$AAr?$AA?9?$AAB?$AAA@ 0052be38     libucrt:lcidtoname_downlevel.obj
 0002:00006e44       ??_C@_1O@FMCELNAJ@?$AAs?$AAm?$AAj?$AA?9?$AAN?$AAO@ 0052be44     libucrt:lcidtoname_downlevel.obj
 0002:00006e54       ??_C@_1M@JHGLJMGJ@?$AAa?$AAr?$AA?9?$AAD?$AAZ@ 0052be54     libucrt:lcidtoname_downlevel.obj
 0002:00006e60       ??_C@_1M@JKKFDCNP@?$AAz?$AAh?$AA?9?$AAM?$AAO@ 0052be60     libucrt:lcidtoname_downlevel.obj
 0002:00006e6c       ??_C@_1M@GEEFALPE@?$AAd?$AAe?$AA?9?$AAL?$AAI@ 0052be6c     libucrt:lcidtoname_downlevel.obj
 0002:00006e78       ??_C@_1M@IGEOFBG@?$AAe?$AAn?$AA?9?$AAN?$AAZ@ 0052be78     libucrt:lcidtoname_downlevel.obj
 0002:00006e84       ??_C@_1M@KDBONEHP@?$AAe?$AAs?$AA?9?$AAC?$AAR@ 0052be84     libucrt:lcidtoname_downlevel.obj
 0002:00006e90       ??_C@_1M@FHMDOHNN@?$AAf?$AAr?$AA?9?$AAL?$AAU@ 0052be90     libucrt:lcidtoname_downlevel.obj
 0002:00006e9c       ??_C@_1BG@NFKKMAFG@?$AAb?$AAs?$AA?9?$AAB?$AAA?$AA?9?$AAL?$AAa?$AAt?$AAn@ 0052be9c     libucrt:lcidtoname_downlevel.obj
 0002:00006eb4       ??_C@_1O@IMNBEMCI@?$AAs?$AAm?$AAj?$AA?9?$AAS?$AAE@ 0052beb4     libucrt:lcidtoname_downlevel.obj
 0002:00006ec4       ??_C@_1M@DHHMBNDP@?$AAa?$AAr?$AA?9?$AAM?$AAA@ 0052bec4     libucrt:lcidtoname_downlevel.obj
 0002:00006ed0       ??_C@_1M@BNBLJCGH@?$AAe?$AAn?$AA?9?$AAI?$AAE@ 0052bed0     libucrt:lcidtoname_downlevel.obj
 0002:00006edc       ??_C@_1M@GEPAFMDL@?$AAe?$AAs?$AA?9?$AAP?$AAA@ 0052bedc     libucrt:lcidtoname_downlevel.obj
 0002:00006ee8       ??_C@_1M@OJONDMDL@?$AAf?$AAr?$AA?9?$AAM?$AAC@ 0052bee8     libucrt:lcidtoname_downlevel.obj
 0002:00006ef4       ??_C@_1BG@OBCNFJB@?$AAs?$AAr?$AA?9?$AAB?$AAA?$AA?9?$AAL?$AAa?$AAt?$AAn@ 0052bef4     libucrt:lcidtoname_downlevel.obj
 0002:00006f0c       ??_C@_1O@KEMEEGPO@?$AAs?$AAm?$AAa?$AA?9?$AAN?$AAO@ 0052bf0c     libucrt:lcidtoname_downlevel.obj
 0002:00006f1c       ??_C@_1M@ELMGFODK@?$AAa?$AAr?$AA?9?$AAT?$AAN@ 0052bf1c     libucrt:lcidtoname_downlevel.obj
 0002:00006f28       ??_C@_1M@BHDLHFAF@?$AAe?$AAn?$AA?9?$AAZ?$AAA@ 0052bf28     libucrt:lcidtoname_downlevel.obj
 0002:00006f34       ??_C@_1M@BMGIGLIF@?$AAe?$AAs?$AA?9?$AAD?$AAO@ 0052bf34     libucrt:lcidtoname_downlevel.obj
 0002:00006f40       ??_C@_1BG@CMBHIPBE@?$AAs?$AAr?$AA?9?$AAB?$AAA?$AA?9?$AAC?$AAy?$AAr?$AAl@ 0052bf40     libucrt:lcidtoname_downlevel.obj
 0002:00006f58       ??_C@_1O@HEDBLHNP@?$AAs?$AAm?$AAa?$AA?9?$AAS?$AAE@ 0052bf58     libucrt:lcidtoname_downlevel.obj
 0002:00006f68       ??_C@_1M@DAGCADIM@?$AAa?$AAr?$AA?9?$AAO?$AAM@ 0052bf68     libucrt:lcidtoname_downlevel.obj
 0002:00006f74       ??_C@_1M@FODLMICG@?$AAe?$AAn?$AA?9?$AAJ?$AAM@ 0052bf74     libucrt:lcidtoname_downlevel.obj
 0002:00006f80       ??_C@_1M@DNMLCIHB@?$AAe?$AAs?$AA?9?$AAV?$AAE@ 0052bf80     libucrt:lcidtoname_downlevel.obj
 0002:00006f8c       ??_C@_1O@EOKHMKJK@?$AAs?$AAm?$AAs?$AA?9?$AAF?$AAI@ 0052bf8c     libucrt:lcidtoname_downlevel.obj
 0002:00006f9c       ??_C@_1M@CAFJMKOF@?$AAa?$AAr?$AA?9?$AAY?$AAE@ 0052bf9c     libucrt:lcidtoname_downlevel.obj
 0002:00006fa8       ??_C@_1M@CBFHIJLI@?$AAe?$AAn?$AA?9?$AAC?$AAB@ 0052bfa8     libucrt:lcidtoname_downlevel.obj
 0002:00006fb4       ??_C@_1M@BGNFLDN@?$AAe?$AAs?$AA?9?$AAC?$AAO@ 0052bfb4     libucrt:lcidtoname_downlevel.obj
 0002:00006fc0       ??_C@_1O@JMPHMAMC@?$AAs?$AAm?$AAn?$AA?9?$AAF?$AAI@ 0052bfc0     libucrt:lcidtoname_downlevel.obj
 0002:00006fd0       ??_C@_1M@JLANABKE@?$AAa?$AAr?$AA?9?$AAS?$AAY@ 0052bfd0     libucrt:lcidtoname_downlevel.obj
 0002:00006fdc       ??_C@_1M@HPKGCFGN@?$AAe?$AAn?$AA?9?$AAB?$AAZ@ 0052bfdc     libucrt:lcidtoname_downlevel.obj
 0002:00006fe8       ??_C@_1M@OLJCMLGM@?$AAe?$AAs?$AA?9?$AAP?$AAE@ 0052bfe8     libucrt:lcidtoname_downlevel.obj
 0002:00006ff4       ??_C@_1M@MKKGFKLE@?$AAa?$AAr?$AA?9?$AAJ?$AAO@ 0052bff4     libucrt:lcidtoname_downlevel.obj
 0002:00007000       ??_C@_1M@EKPGLDNI@?$AAe?$AAn?$AA?9?$AAT?$AAT@ 0052c000     libucrt:lcidtoname_downlevel.obj
 0002:0000700c       ??_C@_1M@OONGHFHE@?$AAe?$AAs?$AA?9?$AAA?$AAR@ 0052c00c     libucrt:lcidtoname_downlevel.obj
 0002:00007018       ??_C@_1M@OOJFGBHE@?$AAa?$AAr?$AA?9?$AAL?$AAB@ 0052c018     libucrt:lcidtoname_downlevel.obj
 0002:00007024       ??_C@_1M@GCEJHNEG@?$AAe?$AAn?$AA?9?$AAZ?$AAW@ 0052c024     libucrt:lcidtoname_downlevel.obj
 0002:00007030       ??_C@_1M@JNOCAHJI@?$AAe?$AAs?$AA?9?$AAE?$AAC@ 0052c030     libucrt:lcidtoname_downlevel.obj
 0002:0000703c       ??_C@_1M@JEFHPGGB@?$AAa?$AAr?$AA?9?$AAK?$AAW@ 0052c03c     libucrt:lcidtoname_downlevel.obj
 0002:00007048       ??_C@_1M@MLKIBJOJ@?$AAe?$AAn?$AA?9?$AAP?$AAH@ 0052c048     libucrt:lcidtoname_downlevel.obj
 0002:00007054       ??_C@_1M@BDNIPEND@?$AAe?$AAs?$AA?9?$AAC?$AAL@ 0052c054     libucrt:lcidtoname_downlevel.obj
 0002:00007060       ??_C@_1M@MPNMEKBD@?$AAa?$AAr?$AA?9?$AAA?$AAE@ 0052c060     libucrt:lcidtoname_downlevel.obj
 0002:0000706c       ??_C@_1M@KBJALCPI@?$AAe?$AAs?$AA?9?$AAU?$AAY@ 0052c06c     libucrt:lcidtoname_downlevel.obj
 0002:00007078       ??_C@_1M@LLCCOAGA@?$AAa?$AAr?$AA?9?$AAB?$AAH@ 0052c078     libucrt:lcidtoname_downlevel.obj
 0002:00007084       ??_C@_1M@PBFNCDEL@?$AAe?$AAs?$AA?9?$AAP?$AAY@ 0052c084     libucrt:lcidtoname_downlevel.obj
 0002:00007090       ??_C@_1M@EDGINPNP@?$AAa?$AAr?$AA?9?$AAQ?$AAA@ 0052c090     libucrt:lcidtoname_downlevel.obj
 0002:0000709c       ??_C@_1M@MKDBIIJI@?$AAe?$AAs?$AA?9?$AAB?$AAO@ 0052c09c     libucrt:lcidtoname_downlevel.obj
 0002:000070a8       ??_C@_1M@CPKKEBLD@?$AAe?$AAs?$AA?9?$AAS?$AAV@ 0052c0a8     libucrt:lcidtoname_downlevel.obj
 0002:000070b4       ??_C@_1M@NDBGMMJL@?$AAe?$AAs?$AA?9?$AAH?$AAN@ 0052c0b4     libucrt:lcidtoname_downlevel.obj
 0002:000070c0       ??_C@_1M@JIJIBHDP@?$AAe?$AAs?$AA?9?$AAN?$AAI@ 0052c0c0     libucrt:lcidtoname_downlevel.obj
 0002:000070cc       ??_C@_1M@CGFMKEEK@?$AAe?$AAs?$AA?9?$AAP?$AAR@ 0052c0cc     libucrt:lcidtoname_downlevel.obj
 0002:000070d8       ??_C@_1O@ICJHKIIK@?$AAz?$AAh?$AA?9?$AAC?$AAH?$AAT@ 0052c0d8     libucrt:lcidtoname_downlevel.obj
 0002:000070e8       ??_C@_15CLNEJCE@?$AAs?$AAr@ 0052c0e8     libucrt:lcidtoname_downlevel.obj
 0002:00007810       ??_C@_1M@KAHEKEIG@?$AAa?$AAf?$AA?9?$AAz?$AAa@ 0052c810     libucrt:lcidtoname_downlevel.obj
 0002:0000781c       ??_C@_1M@GIECOABL@?$AAa?$AAr?$AA?9?$AAa?$AAe@ 0052c81c     libucrt:lcidtoname_downlevel.obj
 0002:00007828       ??_C@_1M@BMLMEKGI@?$AAa?$AAr?$AA?9?$AAb?$AAh@ 0052c828     libucrt:lcidtoname_downlevel.obj
 0002:00007834       ??_C@_1M@DAPFDGGB@?$AAa?$AAr?$AA?9?$AAd?$AAz@ 0052c834     libucrt:lcidtoname_downlevel.obj
 0002:00007840       ??_C@_1M@FJNKGKIG@?$AAa?$AAr?$AA?9?$AAe?$AAg@ 0052c840     libucrt:lcidtoname_downlevel.obj
 0002:0000784c       ??_C@_1M@FLGKKCLO@?$AAa?$AAr?$AA?9?$AAi?$AAq@ 0052c84c     libucrt:lcidtoname_downlevel.obj
 0002:00007858       ??_C@_1M@GNDIPALM@?$AAa?$AAr?$AA?9?$AAj?$AAo@ 0052c858     libucrt:lcidtoname_downlevel.obj
 0002:00007864       ??_C@_1M@DDMJFMGJ@?$AAa?$AAr?$AA?9?$AAk?$AAw@ 0052c864     libucrt:lcidtoname_downlevel.obj
 0002:00007870       ??_C@_1M@EJALMLHM@?$AAa?$AAr?$AA?9?$AAl?$AAb@ 0052c870     libucrt:lcidtoname_downlevel.obj
 0002:0000787c       ??_C@_1M@MOBDBLOC@?$AAa?$AAr?$AA?9?$AAl?$AAy@ 0052c87c     libucrt:lcidtoname_downlevel.obj
 0002:00007888       ??_C@_1M@JAOCLHDH@?$AAa?$AAr?$AA?9?$AAm?$AAa@ 0052c888     libucrt:lcidtoname_downlevel.obj
 0002:00007894       ??_C@_1M@JHPMKJIE@?$AAa?$AAr?$AA?9?$AAo?$AAm@ 0052c894     libucrt:lcidtoname_downlevel.obj
 0002:000078a0       ??_C@_1M@OEPGHFNH@?$AAa?$AAr?$AA?9?$AAq?$AAa@ 0052c8a0     libucrt:lcidtoname_downlevel.obj
 0002:000078ac       ??_C@_1M@KJDONENM@?$AAa?$AAr?$AA?9?$AAs?$AAa@ 0052c8ac     libucrt:lcidtoname_downlevel.obj
 0002:000078b8       ??_C@_1M@DMJDKLKM@?$AAa?$AAr?$AA?9?$AAs?$AAy@ 0052c8b8     libucrt:lcidtoname_downlevel.obj
 0002:000078c4       ??_C@_1M@OMFIPEDC@?$AAa?$AAr?$AA?9?$AAt?$AAn@ 0052c8c4     libucrt:lcidtoname_downlevel.obj
 0002:000078d0       ??_C@_1M@IHMHGAON@?$AAa?$AAr?$AA?9?$AAy?$AAe@ 0052c8d0     libucrt:lcidtoname_downlevel.obj
 0002:000078dc       ??_C@_1BG@KDCPGJGB@?$AAa?$AAz?$AA?9?$AAa?$AAz?$AA?9?$AAc?$AAy?$AAr?$AAl@ 0052c8dc     libucrt:lcidtoname_downlevel.obj
 0002:000078f4       ??_C@_1BG@IBCKDDOE@?$AAa?$AAz?$AA?9?$AAa?$AAz?$AA?9?$AAl?$AAa?$AAt?$AAn@ 0052c8f4     libucrt:lcidtoname_downlevel.obj
 0002:0000790c       ??_C@_1M@EGPFDCPD@?$AAb?$AAe?$AA?9?$AAb?$AAy@ 0052c90c     libucrt:lcidtoname_downlevel.obj
 0002:00007918       ??_C@_1M@PCMGMCGC@?$AAb?$AAg?$AA?9?$AAb?$AAg@ 0052c918     libucrt:lcidtoname_downlevel.obj
 0002:00007924       ??_C@_1M@BJBMFGOB@?$AAb?$AAn?$AA?9?$AAi?$AAn@ 0052c924     libucrt:lcidtoname_downlevel.obj
 0002:00007930       ??_C@_1BG@EAKMMACD@?$AAb?$AAs?$AA?9?$AAb?$AAa?$AA?9?$AAl?$AAa?$AAt?$AAn@ 0052c930     libucrt:lcidtoname_downlevel.obj
 0002:00007948       ??_C@_1M@KGADAODK@?$AAc?$AAa?$AA?9?$AAe?$AAs@ 0052c948     libucrt:lcidtoname_downlevel.obj
 0002:00007954       ??_C@_1M@COAJPDHI@?$AAc?$AAs?$AA?9?$AAc?$AAz@ 0052c954     libucrt:lcidtoname_downlevel.obj
 0002:00007960       ??_C@_1M@DHBHFONH@?$AAc?$AAy?$AA?9?$AAg?$AAb@ 0052c960     libucrt:lcidtoname_downlevel.obj
 0002:0000796c       ??_C@_1M@IMGKELGA@?$AAd?$AAa?$AA?9?$AAd?$AAk@ 0052c96c     libucrt:lcidtoname_downlevel.obj
 0002:00007978       ??_C@_1M@NNDGDNGA@?$AAd?$AAe?$AA?9?$AAa?$AAt@ 0052c978     libucrt:lcidtoname_downlevel.obj
 0002:00007984       ??_C@_1M@IKDBHEEM@?$AAd?$AAe?$AA?9?$AAc?$AAh@ 0052c984     libucrt:lcidtoname_downlevel.obj
 0002:00007990       ??_C@_1M@GFFOJMCJ@?$AAd?$AAe?$AA?9?$AAd?$AAe@ 0052c990     libucrt:lcidtoname_downlevel.obj
 0002:0000799c       ??_C@_1M@MDNLKBPM@?$AAd?$AAe?$AA?9?$AAl?$AAi@ 0052c99c     libucrt:lcidtoname_downlevel.obj
 0002:000079a8       ??_C@_1M@NJBEEJNL@?$AAd?$AAe?$AA?9?$AAl?$AAu@ 0052c9a8     libucrt:lcidtoname_downlevel.obj
 0002:000079b4       ??_C@_1O@GNNELBAP@?$AAd?$AAi?$AAv?$AA?9?$AAm?$AAv@ 0052c9b4     libucrt:lcidtoname_downlevel.obj
 0002:000079c4       ??_C@_1M@EJLEOGAE@?$AAe?$AAl?$AA?9?$AAg?$AAr@ 0052c9c4     libucrt:lcidtoname_downlevel.obj
 0002:000079d0       ??_C@_1M@GMPONJN@?$AAe?$AAn?$AA?9?$AAa?$AAu@ 0052c9d0     libucrt:lcidtoname_downlevel.obj
 0002:000079dc       ??_C@_1M@NIDIIPGF@?$AAe?$AAn?$AA?9?$AAb?$AAz@ 0052c9dc     libucrt:lcidtoname_downlevel.obj
 0002:000079e8       ??_C@_1M@JEHMIMFO@?$AAe?$AAn?$AA?9?$AAc?$AAa@ 0052c9e8     libucrt:lcidtoname_downlevel.obj
 0002:000079f4       ??_C@_1M@IGMJCDLA@?$AAe?$AAn?$AA?9?$AAc?$AAb@ 0052c9f4     libucrt:lcidtoname_downlevel.obj
 0002:00007a00       ??_C@_1M@BNFIGBKG@?$AAe?$AAn?$AA?9?$AAg?$AAb@ 0052ca00     libucrt:lcidtoname_downlevel.obj
 0002:00007a0c       ??_C@_1M@LKIFDIGP@?$AAe?$AAn?$AA?9?$AAi?$AAe@ 0052ca0c     libucrt:lcidtoname_downlevel.obj
 0002:00007a18       ??_C@_1M@PJKFGCCO@?$AAe?$AAn?$AA?9?$AAj?$AAm@ 0052ca18     libucrt:lcidtoname_downlevel.obj
 0002:00007a24       ??_C@_1M@KPPKEPBO@?$AAe?$AAn?$AA?9?$AAn?$AAz@ 0052ca24     libucrt:lcidtoname_downlevel.obj
 0002:00007a30       ??_C@_1M@GMDGLDOB@?$AAe?$AAn?$AA?9?$AAp?$AAh@ 0052ca30     libucrt:lcidtoname_downlevel.obj
 0002:00007a3c       ??_C@_1M@ONGIBJNA@?$AAe?$AAn?$AA?9?$AAt?$AAt@ 0052ca3c     libucrt:lcidtoname_downlevel.obj
 0002:00007a48       ??_C@_1M@LLODPCMM@?$AAe?$AAn?$AA?9?$AAu?$AAs@ 0052ca48     libucrt:lcidtoname_downlevel.obj
 0002:00007a54       ??_C@_1M@LAKFNPAN@?$AAe?$AAn?$AA?9?$AAz?$AAa@ 0052ca54     libucrt:lcidtoname_downlevel.obj
 0002:00007a60       ??_C@_1M@MFNHNHEO@?$AAe?$AAn?$AA?9?$AAz?$AAw@ 0052ca60     libucrt:lcidtoname_downlevel.obj
 0002:00007a6c       ??_C@_1M@EJEINPHM@?$AAe?$AAs?$AA?9?$AAa?$AAr@ 0052ca6c     libucrt:lcidtoname_downlevel.obj
 0002:00007a78       ??_C@_1M@GNKPCCJA@?$AAe?$AAs?$AA?9?$AAb?$AAo@ 0052ca78     libucrt:lcidtoname_downlevel.obj
 0002:00007a84       ??_C@_1M@LEEGFONL@?$AAe?$AAs?$AA?9?$AAc?$AAl@ 0052ca84     libucrt:lcidtoname_downlevel.obj
 0002:00007a90       ??_C@_1M@KGPDPBDF@?$AAe?$AAs?$AA?9?$AAc?$AAo@ 0052ca90     libucrt:lcidtoname_downlevel.obj
 0002:00007a9c       ??_C@_1M@EIAHOHH@?$AAe?$AAs?$AA?9?$AAc?$AAr@ 0052ca9c     libucrt:lcidtoname_downlevel.obj
 0002:00007aa8       ??_C@_1M@LLPGMBIN@?$AAe?$AAs?$AA?9?$AAd?$AAo@ 0052caa8     libucrt:lcidtoname_downlevel.obj
 0002:00007ab4       ??_C@_1M@DKHMKNJA@?$AAe?$AAs?$AA?9?$AAe?$AAc@ 0052cab4     libucrt:lcidtoname_downlevel.obj
 0002:00007ac0       ??_C@_1M@GKGFPKAP@?$AAe?$AAs?$AA?9?$AAe?$AAs@ 0052cac0     libucrt:lcidtoname_downlevel.obj
 0002:00007acc       ??_C@_1M@LKHKGDLN@?$AAe?$AAs?$AA?9?$AAg?$AAt@ 0052cacc     libucrt:lcidtoname_downlevel.obj
 0002:00007ad8       ??_C@_1M@HEIIGGJD@?$AAe?$AAs?$AA?9?$AAh?$AAn@ 0052cad8     libucrt:lcidtoname_downlevel.obj
 0002:00007ae4       ??_C@_1M@FBDHPPGD@?$AAe?$AAs?$AA?9?$AAm?$AAx@ 0052cae4     libucrt:lcidtoname_downlevel.obj
 0002:00007af0       ??_C@_1M@DPAGLNDH@?$AAe?$AAs?$AA?9?$AAn?$AAi@ 0052caf0     libucrt:lcidtoname_downlevel.obj
 0002:00007afc       ??_C@_1M@MDGOPGDD@?$AAe?$AAs?$AA?9?$AAp?$AAa@ 0052cafc     libucrt:lcidtoname_downlevel.obj
 0002:00007b08       ??_C@_1M@EMAMGBGE@?$AAe?$AAs?$AA?9?$AAp?$AAe@ 0052cb08     libucrt:lcidtoname_downlevel.obj
 0002:00007b14       ??_C@_1M@IBMCAOEC@?$AAe?$AAs?$AA?9?$AAp?$AAr@ 0052cb14     libucrt:lcidtoname_downlevel.obj
 0002:00007b20       ??_C@_1M@FGMDIJED@?$AAe?$AAs?$AA?9?$AAp?$AAy@ 0052cb20     libucrt:lcidtoname_downlevel.obj
 0002:00007b2c       ??_C@_1M@IIDEOLLL@?$AAe?$AAs?$AA?9?$AAs?$AAv@ 0052cb2c     libucrt:lcidtoname_downlevel.obj
 0002:00007b38       ??_C@_1M@GAOBIPA@?$AAe?$AAs?$AA?9?$AAu?$AAy@ 0052cb38     libucrt:lcidtoname_downlevel.obj
 0002:00007b44       ??_C@_1M@JKFFICHJ@?$AAe?$AAs?$AA?9?$AAv?$AAe@ 0052cb44     libucrt:lcidtoname_downlevel.obj
 0002:00007b50       ??_C@_1M@PNMLOJDF@?$AAe?$AAt?$AA?9?$AAe?$AAe@ 0052cb50     libucrt:lcidtoname_downlevel.obj
 0002:00007b5c       ??_C@_1M@GHHLIKEI@?$AAe?$AAu?$AA?9?$AAe?$AAs@ 0052cb5c     libucrt:lcidtoname_downlevel.obj
 0002:00007b68       ??_C@_1M@PBNONODE@?$AAf?$AAa?$AA?9?$AAi?$AAr@ 0052cb68     libucrt:lcidtoname_downlevel.obj
 0002:00007b74       ??_C@_1M@JEEHPMIL@?$AAf?$AAi?$AA?9?$AAf?$AAi@ 0052cb74     libucrt:lcidtoname_downlevel.obj
 0002:00007b80       ??_C@_1M@LMDCNDBA@?$AAf?$AAo?$AA?9?$AAf?$AAo@ 0052cb80     libucrt:lcidtoname_downlevel.obj
 0002:00007b8c       ??_C@_1M@JKEOHLDK@?$AAf?$AAr?$AA?9?$AAb?$AAe@ 0052cb8c     libucrt:lcidtoname_downlevel.obj
 0002:00007b98       ??_C@_1M@NOHADPMI@?$AAf?$AAr?$AA?9?$AAc?$AAa@ 0052cb98     libucrt:lcidtoname_downlevel.obj
 0002:00007ba4       ??_C@_1M@KDHIHAEC@?$AAf?$AAr?$AA?9?$AAc?$AAh@ 0052cba4     libucrt:lcidtoname_downlevel.obj
 0002:00007bb0       ??_C@_1M@MMBBFGAK@?$AAf?$AAr?$AA?9?$AAf?$AAr@ 0052cbb0     libucrt:lcidtoname_downlevel.obj
 0002:00007bbc       ??_C@_1M@PAFNENNF@?$AAf?$AAr?$AA?9?$AAl?$AAu@ 0052cbbc     libucrt:lcidtoname_downlevel.obj
 0002:00007bc8       ??_C@_1M@EOHDJGDD@?$AAf?$AAr?$AA?9?$AAm?$AAc@ 0052cbc8     libucrt:lcidtoname_downlevel.obj
 0002:00007bd4       ??_C@_1M@FAPLLOPF@?$AAg?$AAl?$AA?9?$AAe?$AAs@ 0052cbd4     libucrt:lcidtoname_downlevel.obj
 0002:00007be0       ??_C@_1M@FOPBFLOO@?$AAg?$AAu?$AA?9?$AAi?$AAn@ 0052cbe0     libucrt:lcidtoname_downlevel.obj
 0002:00007bec       ??_C@_1M@KBMCINPM@?$AAh?$AAe?$AA?9?$AAi?$AAl@ 0052cbec     libucrt:lcidtoname_downlevel.obj
 0002:00007bf8       ??_C@_1M@BBPHKFPJ@?$AAh?$AAi?$AA?9?$AAi?$AAn@ 0052cbf8     libucrt:lcidtoname_downlevel.obj
 0002:00007c04       ??_C@_1M@PMBNDPHD@?$AAh?$AAr?$AA?9?$AAb?$AAa@ 0052cc04     libucrt:lcidtoname_downlevel.obj
 0002:00007c10       ??_C@_1M@BPCKOEGE@?$AAh?$AAr?$AA?9?$AAh?$AAr@ 0052cc10     libucrt:lcidtoname_downlevel.obj
 0002:00007c1c       ??_C@_1M@GACBMHKE@?$AAh?$AAu?$AA?9?$AAh?$AAu@ 0052cc1c     libucrt:lcidtoname_downlevel.obj
 0002:00007c28       ??_C@_1M@MILPAJJC@?$AAh?$AAy?$AA?9?$AAa?$AAm@ 0052cc28     libucrt:lcidtoname_downlevel.obj
 0002:00007c34       ??_C@_1M@BABBICEC@?$AAi?$AAd?$AA?9?$AAi?$AAd@ 0052cc34     libucrt:lcidtoname_downlevel.obj
 0002:00007c40       ??_C@_1M@BIKNHHPF@?$AAi?$AAs?$AA?9?$AAi?$AAs@ 0052cc40     libucrt:lcidtoname_downlevel.obj
 0002:00007c4c       ??_C@_1M@NMPCJPHE@?$AAi?$AAt?$AA?9?$AAc?$AAh@ 0052cc4c     libucrt:lcidtoname_downlevel.obj
 0002:00007c58       ??_C@_1M@GHKGFEDF@?$AAi?$AAt?$AA?9?$AAi?$AAt@ 0052cc58     libucrt:lcidtoname_downlevel.obj
 0002:00007c64       ??_C@_1M@NIEJCJJA@?$AAj?$AAa?$AA?9?$AAj?$AAp@ 0052cc64     libucrt:lcidtoname_downlevel.obj
 0002:00007c70       ??_C@_1M@JILFNBIM@?$AAk?$AAa?$AA?9?$AAg?$AAe@ 0052cc70     libucrt:lcidtoname_downlevel.obj
 0002:00007c7c       ??_C@_1M@PACPMGPH@?$AAk?$AAk?$AA?9?$AAk?$AAz@ 0052cc7c     libucrt:lcidtoname_downlevel.obj
 0002:00007c88       ??_C@_1M@IELFGMHA@?$AAk?$AAn?$AA?9?$AAi?$AAn@ 0052cc88     libucrt:lcidtoname_downlevel.obj
 0002:00007c94       ??_C@_1O@IBBJHCH@?$AAk?$AAo?$AAk?$AA?9?$AAi?$AAn@ 0052cc94     libucrt:lcidtoname_downlevel.obj
 0002:00007ca4       ??_C@_1M@DMHAEOGC@?$AAk?$AAo?$AA?9?$AAk?$AAr@ 0052cca4     libucrt:lcidtoname_downlevel.obj
 0002:00007cb0       ??_C@_1M@HBAHBIGA@?$AAk?$AAy?$AA?9?$AAk?$AAg@ 0052ccb0     libucrt:lcidtoname_downlevel.obj
 0002:00007cbc       ??_C@_1M@KPMILCJG@?$AAl?$AAt?$AA?9?$AAl?$AAt@ 0052ccbc     libucrt:lcidtoname_downlevel.obj
 0002:00007cc8       ??_C@_1M@BDEKKCA@?$AAl?$AAv?$AA?9?$AAl?$AAv@ 0052ccc8     libucrt:lcidtoname_downlevel.obj
 0002:00007cd4       ??_C@_1M@ELCKCCJJ@?$AAm?$AAi?$AA?9?$AAn?$AAz@ 0052ccd4     libucrt:lcidtoname_downlevel.obj
 0002:00007ce0       ??_C@_1M@CBOOLAPA@?$AAm?$AAk?$AA?9?$AAm?$AAk@ 0052cce0     libucrt:lcidtoname_downlevel.obj
 0002:00007cec       ??_C@_1M@GPHNBJKN@?$AAm?$AAl?$AA?9?$AAi?$AAn@ 0052ccec     libucrt:lcidtoname_downlevel.obj
 0002:00007cf8       ??_C@_1M@PABJILIG@?$AAm?$AAn?$AA?9?$AAm?$AAn@ 0052ccf8     libucrt:lcidtoname_downlevel.obj
 0002:00007d04       ??_C@_1M@FGBKKIPG@?$AAm?$AAr?$AA?9?$AAi?$AAn@ 0052cd04     libucrt:lcidtoname_downlevel.obj
 0002:00007d10       ??_C@_1M@NDBPDDAL@?$AAm?$AAs?$AA?9?$AAb?$AAn@ 0052cd10     libucrt:lcidtoname_downlevel.obj
 0002:00007d1c       ??_C@_1M@OPIHOOPI@?$AAm?$AAs?$AA?9?$AAm?$AAy@ 0052cd1c     libucrt:lcidtoname_downlevel.obj
 0002:00007d28       ??_C@_1M@PPDBCNFM@?$AAm?$AAt?$AA?9?$AAm?$AAt@ 0052cd28     libucrt:lcidtoname_downlevel.obj
 0002:00007d34       ??_C@_1M@KDJDKMDD@?$AAn?$AAb?$AA?9?$AAn?$AAo@ 0052cd34     libucrt:lcidtoname_downlevel.obj
 0002:00007d40       ??_C@_1M@KFCFLMJP@?$AAn?$AAl?$AA?9?$AAb?$AAe@ 0052cd40     libucrt:lcidtoname_downlevel.obj
 0002:00007d4c       ??_C@_1M@KPOPDDGO@?$AAn?$AAl?$AA?9?$AAn?$AAl@ 0052cd4c     libucrt:lcidtoname_downlevel.obj
 0002:00007d58       ??_C@_1M@LJKPEMLN@?$AAn?$AAn?$AA?9?$AAn?$AAo@ 0052cd58     libucrt:lcidtoname_downlevel.obj
 0002:00007d64       ??_C@_1M@BDGHHBFL@?$AAn?$AAs?$AA?9?$AAz?$AAa@ 0052cd64     libucrt:lcidtoname_downlevel.obj
 0002:00007d70       ??_C@_1M@IDEHOAP@?$AAp?$AAa?$AA?9?$AAi?$AAn@ 0052cd70     libucrt:lcidtoname_downlevel.obj
 0002:00007d7c       ??_C@_1M@HDBKGOGH@?$AAp?$AAl?$AA?9?$AAp?$AAl@ 0052cd7c     libucrt:lcidtoname_downlevel.obj
 0002:00007d88       ??_C@_1M@LJLLCMEH@?$AAp?$AAt?$AA?9?$AAb?$AAr@ 0052cd88     libucrt:lcidtoname_downlevel.obj
 0002:00007d94       ??_C@_1M@NCMONAAL@?$AAp?$AAt?$AA?9?$AAp?$AAt@ 0052cd94     libucrt:lcidtoname_downlevel.obj
 0002:00007da0       ??_C@_1O@EAKMAJDN@?$AAq?$AAu?$AAz?$AA?9?$AAb?$AAo@ 0052cda0     libucrt:lcidtoname_downlevel.obj
 0002:00007db0       ??_C@_1O@BHHPIGDN@?$AAq?$AAu?$AAz?$AA?9?$AAe?$AAc@ 0052cdb0     libucrt:lcidtoname_downlevel.obj
 0002:00007dc0       ??_C@_1O@GBAPEKMJ@?$AAq?$AAu?$AAz?$AA?9?$AAp?$AAe@ 0052cdc0     libucrt:lcidtoname_downlevel.obj
 0002:00007dd0       ??_C@_1M@CLGLEFBO@?$AAr?$AAo?$AA?9?$AAr?$AAo@ 0052cdd0     libucrt:lcidtoname_downlevel.obj
 0002:00007ddc       ??_C@_1M@CEEDODME@?$AAr?$AAu?$AA?9?$AAr?$AAu@ 0052cddc     libucrt:lcidtoname_downlevel.obj
 0002:00007de8       ??_C@_1M@HPKKKMPP@?$AAs?$AAa?$AA?9?$AAi?$AAn@ 0052cde8     libucrt:lcidtoname_downlevel.obj
 0002:00007df4       ??_C@_1M@BKMAIGOJ@?$AAs?$AAe?$AA?9?$AAf?$AAi@ 0052cdf4     libucrt:lcidtoname_downlevel.obj
 0002:00007e00       ??_C@_1M@NDPIFLFI@?$AAs?$AAe?$AA?9?$AAn?$AAo@ 0052ce00     libucrt:lcidtoname_downlevel.obj
 0002:00007e0c       ??_C@_1M@DANKKHJ@?$AAs?$AAe?$AA?9?$AAs?$AAe@ 0052ce0c     libucrt:lcidtoname_downlevel.obj
 0002:00007e18       ??_C@_1M@PNBLONPJ@?$AAs?$AAk?$AA?9?$AAs?$AAk@ 0052ce18     libucrt:lcidtoname_downlevel.obj
 0002:00007e24       ??_C@_1M@LFMODOAL@?$AAs?$AAl?$AA?9?$AAs?$AAi@ 0052ce24     libucrt:lcidtoname_downlevel.obj
 0002:00007e30       ??_C@_1O@DFKOMPG@?$AAs?$AAm?$AAa?$AA?9?$AAn?$AAo@ 0052ce30     libucrt:lcidtoname_downlevel.obj
 0002:00007e40       ??_C@_1O@NDKPBNNH@?$AAs?$AAm?$AAa?$AA?9?$AAs?$AAe@ 0052ce40     libucrt:lcidtoname_downlevel.obj
 0002:00007e50       ??_C@_1O@PLLKBHAB@?$AAs?$AAm?$AAj?$AA?9?$AAn?$AAo@ 0052ce50     libucrt:lcidtoname_downlevel.obj
 0002:00007e60       ??_C@_1O@CLEPOGCA@?$AAs?$AAm?$AAj?$AA?9?$AAs?$AAe@ 0052ce60     libucrt:lcidtoname_downlevel.obj
 0002:00007e70       ??_C@_1O@DLGJGKMK@?$AAs?$AAm?$AAn?$AA?9?$AAf?$AAi@ 0052ce70     libucrt:lcidtoname_downlevel.obj
 0002:00007e80       ??_C@_1O@OJDJGAJC@?$AAs?$AAm?$AAs?$AA?9?$AAf?$AAi@ 0052ce80     libucrt:lcidtoname_downlevel.obj
 0002:00007e90       ??_C@_1M@BOFOGHPB@?$AAs?$AAq?$AA?9?$AAa?$AAl@ 0052ce90     libucrt:lcidtoname_downlevel.obj
 0002:00007e9c       ??_C@_1BG@LJBBIPGB@?$AAs?$AAr?$AA?9?$AAb?$AAa?$AA?9?$AAc?$AAy?$AAr?$AAl@ 0052ce9c     libucrt:lcidtoname_downlevel.obj
 0002:00007eb4       ??_C@_1BG@JLBENFOE@?$AAs?$AAr?$AA?9?$AAb?$AAa?$AA?9?$AAl?$AAa?$AAt?$AAn@ 0052ceb4     libucrt:lcidtoname_downlevel.obj
 0002:00007ecc       ??_C@_1BG@KODPNHE@?$AAs?$AAr?$AA?9?$AAs?$AAp?$AA?9?$AAc?$AAy?$AAr?$AAl@ 0052cecc     libucrt:lcidtoname_downlevel.obj
 0002:00007ee4       ??_C@_1BG@CIOGKHPB@?$AAs?$AAr?$AA?9?$AAs?$AAp?$AA?9?$AAl?$AAa?$AAt?$AAn@ 0052cee4     libucrt:lcidtoname_downlevel.obj
 0002:00007efc       ??_C@_1M@NGFJLMAC@?$AAs?$AAv?$AA?9?$AAf?$AAi@ 0052cefc     libucrt:lcidtoname_downlevel.obj
 0002:00007f08       ??_C@_1M@MPJEJAJC@?$AAs?$AAv?$AA?9?$AAs?$AAe@ 0052cf08     libucrt:lcidtoname_downlevel.obj
 0002:00007f14       ??_C@_1M@MPNDHLFK@?$AAs?$AAw?$AA?9?$AAk?$AAe@ 0052cf14     libucrt:lcidtoname_downlevel.obj
 0002:00007f20       ??_C@_1O@KOHBJJI@?$AAs?$AAy?$AAr?$AA?9?$AAs?$AAy@ 0052cf20     libucrt:lcidtoname_downlevel.obj
 0002:00007f30       ??_C@_1M@LDCEFHA@?$AAt?$AAa?$AA?9?$AAi?$AAn@ 0052cf30     libucrt:lcidtoname_downlevel.obj
 0002:00007f3c       ??_C@_1M@CNJOFAK@?$AAt?$AAe?$AA?9?$AAi?$AAn@ 0052cf3c     libucrt:lcidtoname_downlevel.obj
 0002:00007f48       ??_C@_1M@GNAECACD@?$AAt?$AAh?$AA?9?$AAt?$AAh@ 0052cf48     libucrt:lcidtoname_downlevel.obj
 0002:00007f54       ??_C@_1M@CHBIHOJO@?$AAt?$AAn?$AA?9?$AAz?$AAa@ 0052cf54     libucrt:lcidtoname_downlevel.obj
 0002:00007f60       ??_C@_1M@GCCMIGPJ@?$AAt?$AAr?$AA?9?$AAt?$AAr@ 0052cf60     libucrt:lcidtoname_downlevel.obj
 0002:00007f6c       ??_C@_1M@CELMCNBK@?$AAt?$AAt?$AA?9?$AAr?$AAu@ 0052cf6c     libucrt:lcidtoname_downlevel.obj
 0002:00007f78       ??_C@_1M@KLMCELGA@?$AAu?$AAk?$AA?9?$AAu?$AAa@ 0052cf78     libucrt:lcidtoname_downlevel.obj
 0002:00007f84       ??_C@_1M@EPAJJAJF@?$AAu?$AAr?$AA?9?$AAp?$AAk@ 0052cf84     libucrt:lcidtoname_downlevel.obj
 0002:00007f90       ??_C@_1BG@GEGPMCDJ@?$AAu?$AAz?$AA?9?$AAu?$AAz?$AA?9?$AAc?$AAy?$AAr?$AAl@ 0052cf90     libucrt:lcidtoname_downlevel.obj
 0002:00007fa8       ??_C@_1BG@EGGKJILM@?$AAu?$AAz?$AA?9?$AAu?$AAz?$AA?9?$AAl?$AAa?$AAt?$AAn@ 0052cfa8     libucrt:lcidtoname_downlevel.obj
 0002:00007fc0       ??_C@_1M@GFOCLFF@?$AAv?$AAi?$AA?9?$AAv?$AAn@ 0052cfc0     libucrt:lcidtoname_downlevel.obj
 0002:00007fcc       ??_C@_1M@CPAMEDFI@?$AAx?$AAh?$AA?9?$AAz?$AAa@ 0052cfcc     libucrt:lcidtoname_downlevel.obj
 0002:00007fd8       ??_C@_1O@EBKIFIGN@?$AAz?$AAh?$AA?9?$AAc?$AAh?$AAs@ 0052cfd8     libucrt:lcidtoname_downlevel.obj
 0002:00007fe8       ??_C@_1O@NMHPGANE@?$AAz?$AAh?$AA?9?$AAc?$AAh?$AAt@ 0052cfe8     libucrt:lcidtoname_downlevel.obj
 0002:00007ff8       ??_C@_1M@LPINJOMC@?$AAz?$AAh?$AA?9?$AAc?$AAn@ 0052cff8     libucrt:lcidtoname_downlevel.obj
 0002:00008004       ??_C@_1M@OCJEJODD@?$AAz?$AAh?$AA?9?$AAh?$AAk@ 0052d004     libucrt:lcidtoname_downlevel.obj
 0002:00008010       ??_C@_1M@DNDLJINH@?$AAz?$AAh?$AA?9?$AAm?$AAo@ 0052d010     libucrt:lcidtoname_downlevel.obj
 0002:0000801c       ??_C@_1M@MBFDNDND@?$AAz?$AAh?$AA?9?$AAs?$AAg@ 0052d01c     libucrt:lcidtoname_downlevel.obj
 0002:00008028       ??_C@_1M@IMEPLEPE@?$AAz?$AAh?$AA?9?$AAt?$AAw@ 0052d028     libucrt:lcidtoname_downlevel.obj
 0002:00008034       ??_C@_1M@BBGHNHJP@?$AAz?$AAu?$AA?9?$AAz?$AAa@ 0052d034     libucrt:lcidtoname_downlevel.obj
 0002:00008098       ??_C@_1BA@BALFACEM@?$AAC?$AAO?$AAN?$AAO?$AAU?$AAT?$AA$@ 0052d098     libucrt:initcon.obj
 0002:000081b0       __infinity                 0052d1b0     libucrt:87tran.obj
 0002:000081ba       __minfinity                0052d1ba     libucrt:87tran.obj
 0002:000081c4       __logemax                  0052d1c4     libucrt:87tran.obj
 0002:000081ea       __OP_EXPjmptab             0052d1ea     libucrt:87tran.obj
 0002:00008210       __indefinite               0052d210     libucrt:87disp.obj
 0002:0000821a       __piby2                    0052d21a     libucrt:87disp.obj
 0002:00008224       __piby4                    0052d224     libucrt:87disp.obj
 0002:00008258       __DEFAULT_CW_in_mem        0052d258     libucrt:common.obj
 0002:0000825a       __pi_by_2_to_61            0052d25a     libucrt:common.obj
 0002:000082a0       ___acrt_log10_table_t      0052d2a0     libucrt:log10_tables.obj
 0002:000086b0       ___acrt_log10_table_cb     0052d6b0     libucrt:log10_tables.obj
 0002:00008ac0       ??_C@_0M@HFFOIJBL@Fatal?5Error?$AA@ 0052dac0     SDL2main:SDL_windows_main.obj
 0002:00008acc       ??_C@_0BJ@HFNMHALN@Out?5of?5memory?5?9?5aborting?$AA@ 0052dacc     SDL2main:SDL_windows_main.obj
 0002:00008ae8       ??_C@_05EGJIMALK@UTF?98?$AA@ 0052dae8     SDL2main:SDL_windows_main.obj
 0002:00008af0       ??_C@_08NBDJLNFA@UTF?916LE?$AA@ 0052daf0     SDL2main:SDL_windows_main.obj
 0002:00008b0c       ??_C@_07BDHOJDLA@showmip@  0052db0c     rendercubes.obj
 0002:00008b14       ??_C@_0BF@KPAJLCFO@showfocuscubedetails@ 0052db14     rendercubes.obj
 0002:00008b2c       ??_C@_05CEBIDAFG@SOLID@    0052db2c     rendercubes.obj
 0002:00008b34       ??_C@_06COLKDEIE@CORNER@   0052db34     rendercubes.obj
 0002:00008b3c       ??_C@_03LIGOBDPJ@FHF@      0052db3c     rendercubes.obj
 0002:00008b40       ??_C@_03IPLAODML@CHF@      0052db40     rendercubes.obj
 0002:00008b44       ??_C@_05CAEOFMEP@SPACE@    0052db44     rendercubes.obj
 0002:00008b4c       ??_C@_07CIFAGBMG@unknown@  0052db4c     rendercubes.obj
 0002:00008b54       ??_C@_0CD@GLEENJOM@1x1?12x2?14x4?18x8?3?5?$CFd?5?1?5?$CFd?5?1?5?$CFd?5?1@ 0052db54     rendercubes.obj
 0002:00008b78       ??_C@_02LCIOCMHO@?$AM4@    0052db78     rendercubes.obj
 0002:00008b80       ??_C@_0EG@HBADJACE@?$CFs?3?5?$AMs?$CFs?$CFd?4?4?$CFd?$AMr?5W?3?$CFd?5?$AMs?$CFsU?3?$CFd?5@ 0052db80     rendercubes.obj
 0002:00008bc8       ??_C@_0M@JJANLFDJ@mergestrips@ 0052dbc8     rendercubes.obj
 0002:00008bd4       ??_C@_0L@IEPABEDF@lighterror@ 0052dbd4     rendercubes.obj
 0002:00008bdf       ??_C@_00CNPNBAHC@@         0052dbdf     rendercubes.obj
 0002:00008be0       ??_C@_01LKDEMHDF@s@        0052dbe0     rendergl.obj
 0002:00008be4       ??_C@_05BKEHHJNJ@glext@    0052dbe4     rendergl.obj
 0002:00008bec       ??_C@_0M@FNGKKILB@ati_mda_bug@ 0052dbec     rendergl.obj
 0002:00008bf8       ??_C@_0BC@HJILAOAN@Renderer?3?5?$CFs?5?$CI?$CFs?$CJ@ 0052dbf8     rendergl.obj
 0002:00008c0c       ??_C@_0L@HEPJLAJM@Driver?3?5?$CFs@ 0052dc0c     rendergl.obj
 0002:00008c18       ??_C@_0BL@JFMOHFPL@GL_EXT_texture_env_combine@ 0052dc18     rendergl.obj
 0002:00008c34       ??_C@_0BL@MKOBGLKK@GL_ARB_texture_env_combine@ 0052dc34     rendergl.obj
 0002:00008c50       ??_C@_0ED@FLKBBHPF@WARNING?3?5cannot?5use?5overbright?5@ 0052dc50     rendergl.obj
 0002:00008c94       ??_C@_0BE@MEMOPMEA@GL_ARB_multitexture@ 0052dc94     rendergl.obj
 0002:00008ca8       ??_C@_0BD@IKCKKKNH@glActiveTextureARB@ 0052dca8     rendergl.obj
 0002:00008cbc       ??_C@_0BJ@PBJNGLJH@glClientActiveTextureARB@ 0052dcbc     rendergl.obj
 0002:00008cd8       ??_C@_0BF@GFGCIEPA@glMultiTexCoord2fARB@ 0052dcd8     rendergl.obj
 0002:00008cf0       ??_C@_0BF@KODOFHFF@glMultiTexCoord3fARB@ 0052dcf0     rendergl.obj
 0002:00008d08       ??_C@_0BJ@BEDGNCEH@GL_EXT_multi_draw_arrays@ 0052dd08     rendergl.obj
 0002:00008d24       ??_C@_0BF@MOHHALAE@glMultiDrawArraysEXT@ 0052dd24     rendergl.obj
 0002:00008d3c       ??_C@_0BH@CPIJKLBJ@glMultiDrawElementsEXT@ 0052dd3c     rendergl.obj
 0002:00008d54       ??_C@_03LHBNGNJL@ATI@      0052dd54     rendergl.obj
 0002:00008d58       ??_C@_04LPBHBPME@Mesa@     0052dd58     rendergl.obj
 0002:00008d60       ??_C@_0BL@BBECEKLJ@GL_EXT_draw_range_elements@ 0052dd60     rendergl.obj
 0002:00008d7c       ??_C@_0BH@GFFILNEF@glDrawRangeElementsEXT@ 0052dd7c     rendergl.obj
 0002:00008d94       ??_C@_0BI@CPMDBHLG@GL_EXT_stencil_two_side@ 0052dd94     rendergl.obj
 0002:00008dac       ??_C@_0BH@FDKCPLFK@glActiveStencilFaceEXT@ 0052ddac     rendergl.obj
 0002:00008dc4       ??_C@_0BI@MNCDOEAG@GL_ATI_separate_stencil@ 0052ddc4     rendergl.obj
 0002:00008ddc       ??_C@_0BH@GHDNCHPJ@glStencilOpSeparateATI@ 0052dddc     rendergl.obj
 0002:00008df4       ??_C@_0BJ@JMKOAJAB@glStencilFuncSeparateATI@ 0052ddf4     rendergl.obj
 0002:00008e10       ??_C@_0BE@LFGLIENC@GL_EXT_stencil_wrap@ 0052de10     rendergl.obj
 0002:00008e24       ??_C@_0CC@BCHFGKCK@GL_EXT_texture_filter_anisotrop@ 0052de24     rendergl.obj
 0002:00008e48       ??_C@_0BI@LELAEDDA@GL_ARB_fragment_program@ 0052de48     rendergl.obj
 0002:00008e60       ??_C@_0M@OCJAPGFL@S3?5Graphics@ 0052de60     rendergl.obj
 0002:00008e6c       ??_C@_0BE@EGBNBGJE@polygonoffsetfactor@ 0052de6c     rendergl.obj
 0002:00008e80       ??_C@_0BD@EEHLKHGC@polygonoffsetunits@ 0052de80     rendergl.obj
 0002:00008e94       ??_C@_0M@BPBBBADP@depthoffset@ 0052de94     rendergl.obj
 0002:00008ea0       ??_C@_0M@IPIJGGJC@oldselstyle@ 0052dea0     rendergl.obj
 0002:00008eac       ??_C@_0BC@FJJEOBMH@aboveheadiconsize@ 0052deac     rendergl.obj
 0002:00008ec0       ??_C@_0BG@FEIKAIGJ@aboveheadiconfadetime@ 0052dec0     rendergl.obj
 0002:00008ed8       ??_C@_0BG@IDEFBMJN@packages?1misc?1com?4png@ 0052ded8     rendergl.obj
 0002:00008ef0       ??_C@_03PKBINKFB@fov@      0052def0     rendergl.obj
 0002:00008ef4       ??_C@_08INBBIAFL@scopefov@ 0052def4     rendergl.obj
 0002:00008f00       ??_C@_08DJHCHNK@spectfov@  0052df00     rendergl.obj
 0002:00008f0c       ??_C@_0P@IIMOPPDF@spectfovremote@ 0052df0c     rendergl.obj
 0002:00008f1c       ??_C@_03KJMBPJEB@fog@      0052df1c     rendergl.obj
 0002:00008f20       ??_C@_09KKDACDEI@fogcolour@ 0052df20     rendergl.obj
 0002:00008f2c       ??_C@_0M@CAPNIE@reflectsize@ 0052df2c     rendergl.obj
 0002:00008f38       ??_C@_0M@HOMLGBAJ@reflectclip@ 0052df38     rendergl.obj
 0002:00008f44       ??_C@_0N@JLDFKLMO@waterreflect@ 0052df44     rendergl.obj
 0002:00008f54       ??_C@_0N@MLIHBFHK@waterrefract@ 0052df54     rendergl.obj
 0002:00008f64       ??_C@_0P@JFNKNJCG@reflectscissor@ 0052df64     rendergl.obj
 0002:00008f74       ??_C@_09DPIJMJAL@T?5?$CK?5P?5x?52@ 0052df74     rendergl.obj
 0002:00008f80       ??_C@_0N@PDGDKAHG@clearminimap@ 0052df80     rendergl.obj
 0002:00008f90       ??_C@_0L@CCOMABMM@minimapres@ 0052df90     rendergl.obj
 0002:00008f9c       ??_C@_05EAPDINDK@iiiii@    0052df9c     rendergl.obj
 0002:00008fa4       ??_C@_08EHAOLBMP@drawzone@ 0052dfa4     rendergl.obj
 0002:00008fb0       ??_C@_0L@GMNGKCBH@resetzones@ 0052dfb0     rendergl.obj
 0002:00008fbc       ??_C@_06OCCCEMNE@hudgun@   0052dfbc     rendergl.obj
 0002:00008fc4       ??_C@_0M@NDFHLJAN@specthudgun@ 0052dfc4     rendergl.obj
 0002:00008fd0       ??_C@_0BO@DKBELIEO@ignoreoverride_nowaterreflect@ 0052dfd0     rendergl.obj
 0002:00008ff0       ??_C@_0CA@PMKKFJHJ@ignoreoverride_nostencilshadows@ 0052dff0     rendergl.obj
 0002:00009014       ??_7physent@@6B@           0052e014     rendergl.obj
 0002:00009020       ??_C@_0BI@DEADENOC@packages?1misc?1items?4png@ 0052e020     renderhud.obj
 0002:00009038       ??_C@_0N@PDCILHDA@radarentsize@ 0052e038     renderhud.obj
 0002:00009048       ??_C@_0BN@KDAHALHJ@packages?1misc?1radaricons?4png@ 0052e048     renderhud.obj
 0002:00009068       ??_C@_0BL@ELJJDDGP@packages?1misc?1ctficons?4png@ 0052e068     renderhud.obj
 0002:00009084       ??_C@_0BL@KMFAIMMM@packages?1misc?1htficons?4png@ 0052e084     renderhud.obj
 0002:000090a0       ??_C@_0BL@BBJKOAAC@packages?1misc?1ktficons?4png@ 0052e0a0     renderhud.obj
 0002:000090bc       ??_C@_09FLBLPGFK@votealpha@ 0052e0bc     renderhud.obj
 0002:000090c8       ??_C@_0BM@BPINFNKL@packages?1misc?1voteicons?4png@ 0052e0c8     renderhud.obj
 0002:000090e4       ??_C@_0O@DOKGGKIC@crosshairsize@ 0052e0e4     renderhud.obj
 0002:000090f4       ??_C@_09JDCAJFKD@showstats@ 0052e0f4     renderhud.obj
 0002:00009100       ??_C@_0M@DDOMLNPO@crosshairfx@ 0052e100     renderhud.obj
 0002:0000910c       ??_C@_0BC@MPNCLNEH@crosshairteamsign@ 0052e10c     renderhud.obj
 0002:00009120       ??_C@_09KBEKABPB@hideradar@ 0052e120     renderhud.obj
 0002:0000912c       ??_C@_0M@PAAIOAHP@hidecompass@ 0052e12c     renderhud.obj
 0002:00009138       ??_C@_08IPMFHAKB@hideteam@ 0052e138     renderhud.obj
 0002:00009144       ??_C@_0BB@KIKJHEDK@hideteamscorehud@ 0052e144     renderhud.obj
 0002:00009158       ??_C@_0BJ@CIIFNLOA@flagscorehudtransparency@ 0052e158     renderhud.obj
 0002:00009174       ??_C@_0BC@PKCEIHOB@hideeditinfopanel@ 0052e174     renderhud.obj
 0002:00009188       ??_C@_08EIIMCIDG@hidevote@ 0052e188     renderhud.obj
 0002:00009194       ??_C@_0M@DAIMKJOK@hidehudmsgs@ 0052e194     renderhud.obj
 0002:000091a0       ??_C@_0BB@MKBNCDJG@hidehudequipment@ 0052e1a0     renderhud.obj
 0002:000091b4       ??_C@_0M@NKABMOKI@hideconsole@ 0052e1b4     renderhud.obj
 0002:000091c0       ??_C@_0N@FFLICBJE@hidespecthud@ 0052e1c0     renderhud.obj
 0002:000091d0       ??_C@_07BNGNMCAI@showmap@  0052e1d0     renderhud.obj
 0002:000091d8       ??_C@_0BE@CIONAJJO@editinfopanelmillis@ 0052e1d8     renderhud.obj
 0002:000091ec       ??_C@_0BI@IOGIHDDL@packages?1misc?1scope?4png@ 0052e1ec     renderhud.obj
 0002:00009204       ??_C@_0BH@BJHMLCAP@packages?1crosshairs?1?$CFs@ 0052e204     renderhud.obj
 0002:0000921c       ??_C@_0CA@HLDBDPMB@packages?1crosshairs?1default?4png@ 0052e21c     renderhud.obj
 0002:0000923c       ??_C@_05CFMALAOA@reset@    0052e23c     renderhud.obj
 0002:00009244       ??_C@_0M@FMDCGJEM@default?4png@ 0052e244     renderhud.obj
 0002:00009250       ??_C@_0N@DDMPEPL@teammate?4png@ 0052e250     renderhud.obj
 0002:00009260       ??_C@_0M@NMOIMBAF@red_dot?4png@ 0052e260     renderhud.obj
 0002:0000926c       ??_C@_07DLHCIBDH@default@  0052e26c     renderhud.obj
 0002:00009274       ??_C@_08BMFDPAHG@teammate@ 0052e274     renderhud.obj
 0002:00009280       ??_C@_05DCCHDMEJ@scope@    0052e280     renderhud.obj
 0002:00009288       ??_C@_05BIPCPIBA@knife@    0052e288     renderhud.obj
 0002:00009290       ??_C@_06HBOMKLFK@pistol@   0052e290     renderhud.obj
 0002:00009298       ??_C@_07FAINIJDJ@carbine@  0052e298     renderhud.obj
 0002:000092a0       ??_C@_07PKBOGMMP@shotgun@  0052e2a0     renderhud.obj
 0002:000092a8       ??_C@_03MNICIKIC@smg@      0052e2a8     renderhud.obj
 0002:000092ac       ??_C@_06CBOFCDAC@sniper@   0052e2ac     renderhud.obj
 0002:000092b4       ??_C@_02FEKCJMIO@ar@       0052e2b4     renderhud.obj
 0002:000092b8       ??_C@_08HOOJIBOO@grenades@ 0052e2b8     renderhud.obj
 0002:000092c4       ??_C@_06NJDJMKIN@akimbo@   0052e2c4     renderhud.obj
 0002:000092cc       ??_C@_02FCBLNKNB@ss@       0052e2cc     renderhud.obj
 0002:000092d0       ??_C@_0O@DPLKEGFF@loadcrosshair@ 0052e2d0     renderhud.obj
 0002:000092e0       ??_C@_0BE@HMJNKMOH@hidedamageindicator@ 0052e2e0     renderhud.obj
 0002:000092f4       ??_C@_0BE@HFKKFMLJ@damageindicatorsize@ 0052e2f4     renderhud.obj
 0002:00009308       ??_C@_0BE@PLGCAPLE@damageindicatordist@ 0052e308     renderhud.obj
 0002:0000931c       ??_C@_0BE@NOODDFFM@damageindicatortime@ 0052e31c     renderhud.obj
 0002:00009330       ??_C@_0BF@CPLFKEEF@damageindicatoralpha@ 0052e330     renderhud.obj
 0002:00009348       ??_C@_0BB@JCMFIGBC@hidektfindicator@ 0052e348     renderhud.obj
 0002:0000935c       ??_C@_0BC@BBDILAMN@ktfindicatoralpha@ 0052e35c     renderhud.obj
 0002:00009370       ??_C@_02DKCKIIND@?$CFs@    0052e370     renderhud.obj
 0002:00009374       ??_C@_0BA@NDPEDGDH@showmapbackdrop@ 0052e374     renderhud.obj
 0002:00009384       ??_C@_0BM@EIBJDBFJ@showmapbackdroptransparency@ 0052e384     renderhud.obj
 0002:000093a0       ??_C@_0M@HPEEKIIE@radarheight@ 0052e3a0     renderhud.obj
 0002:000093ac       ??_C@_0BP@LLLFPIDH@packages?1misc?1compass?9base?4png@ 0052e3ac     renderhud.obj
 0002:000093cc       ??_C@_0BP@CPPKIHE@packages?1misc?1compass?9rose?4png@ 0052e3cc     renderhud.obj
 0002:000093ec       ??_C@_0BM@OKMEIEIJ@packages?1misc?1teamicons?4png@ 0052e3ec     renderhud.obj
 0002:00009408       ??_C@_0N@OBDCJDCP@damagescreen@ 0052e408     renderhud.obj
 0002:00009418       ??_C@_0BD@NNNNGIIB@damagescreenfactor@ 0052e418     renderhud.obj
 0002:0000942c       ??_C@_0BC@ECJJCDJN@damagescreenalpha@ 0052e42c     renderhud.obj
 0002:00009440       ??_C@_0BB@PPMFNBML@damagescreenfade@ 0052e440     renderhud.obj
 0002:00009454       ??_C@_0P@LIPGDGAK@getEngineState@ 0052e454     renderhud.obj
 0002:00009464       ??_C@_0BA@MCAJIDLF@gametimedisplay@ 0052e464     renderhud.obj
 0002:00009474       ??_C@_06FPOCELMP@dbgpos@   0052e474     renderhud.obj
 0002:0000947c       ??_C@_0P@DJFNAEEC@showtargetname@ 0052e47c     renderhud.obj
 0002:0000948c       ??_C@_09PBKFOJOF@showspeed@ 0052e48c     renderhud.obj
 0002:00009498       ??_C@_0M@LKPCHLOI@blankouthud@ 0052e498     renderhud.obj
 0002:000094a4       ??_C@_0O@KIPHNDD@overviewflags@ 0052e4a4     renderhud.obj
 0002:000094b4       ??_C@_04CGFJFPFD@none@     0052e4b4     renderhud.obj
 0002:000094bc       ??_C@_08CEJHENDM@deathcam@ 0052e4bc     renderhud.obj
 0002:000094c8       ??_C@_09MMFECFAH@chase?51st@ 0052e4c8     renderhud.obj
 0002:000094d4       ??_C@_0O@KBMOOKGI@chase?53rd?5?$FLO?$FN@ 0052e4d4     renderhud.obj
 0002:000094e4       ??_C@_0O@KLFAMHGC@chase?53rd?5?$FLA?$FN@ 0052e4e4     renderhud.obj
 0002:000094f4       ??_C@_03HPMGHIMH@fly@      0052e4f4     renderhud.obj
 0002:000094f8       ??_C@_08HBKJLJKH@overview@ 0052e4f8     renderhud.obj
 0002:00009504       ??_C@_0BJ@EMNCOFHO@packages?1misc?1damage?4png@ 0052e504     renderhud.obj
 0002:00009520       ??_C@_0L@EAGGLJLC@?$CFs?5?$FLcn?3?$CFd?$FN@ 0052e520     renderhud.obj
 0002:0000952c       ??_C@_0P@GNCPONOH@?$CFd?5?$CFd?5?$CFd?5?$CFd?5?$CFd@ 0052e52c     renderhud.obj
 0002:0000953c       ??_C@_0BA@GMCCLNNO@wallclockformat@ 0052e53c     renderhud.obj
 0002:0000954c       ??_C@_03JABFMKFJ@fps@      0052e54c     renderhud.obj
 0002:00009550       ??_C@_03ONFBEKOG@lod@      0052e550     renderhud.obj
 0002:00009554       ??_C@_03HMPBBEAC@wqd@      0052e554     renderhud.obj
 0002:00009558       ??_C@_03DDHMBANG@wvt@      0052e558     renderhud.obj
 0002:0000955c       ??_C@_03MJGMIPMC@evt@      0052e55c     renderhud.obj
 0002:00009560       ??_C@_05CGFKEMBG@?$AM?$CFc?$CFd@ 0052e560     renderhud.obj
 0002:00009568       ??_C@_01HJOKEEBB@U@        0052e568     renderhud.obj
 0002:0000956c       ??_C@_04JLBGMNAJ@mono@     0052e56c     renderhud.obj
 0002:00009574       ??_C@_0L@JBCNABDD@?$CF05?42f?5YAW@ 0052e574     renderhud.obj
 0002:00009580       ??_C@_0L@MJBLEMMC@?$CF05?42f?5PIT@ 0052e580     renderhud.obj
 0002:0000958c       ??_C@_0L@PKCIHA@?$CF05?42f?5X?5?5@ 0052e58c     renderhud.obj
 0002:00009598       ??_C@_0L@LIEGEPBF@?$CF05?42f?5Y?5?5@ 0052e598     renderhud.obj
 0002:000095a4       ??_C@_0L@KKPDOAPL@?$CF05?42f?5Z?5?5@ 0052e5a4     renderhud.obj
 0002:000095b0       ??_C@_06KAIAELBG@fps?5?$CFd@ 0052e5b0     renderhud.obj
 0002:000095b8       ??_C@_0BE@BCKCPBDK@updateeditinfopanel@ 0052e5b8     renderhud.obj
 0002:000095cc       ??_C@_09FJLEEAHK@?$CF02d?3?$CF02d@ 0052e5cc     renderhud.obj
 0002:000095d8       ??_C@_0BC@BLLKGPFF@?$CFs?5called?5a?5vote?3@ 0052e5d8     renderhud.obj
 0002:000095ec       ??_C@_04ECGLBLOI@?9?9?9?9@ 0052e5ec     renderhud.obj
 0002:000095f4       ??_C@_0BB@CBPAOOHC@?$CFd?5yes?5vs?4?5?$CFd?5no@ 0052e5f4     renderhud.obj
 0002:00009608       ??_C@_0CA@PMGBNFIH@?$AM3press?5F1?1F2?5to?5vote?5yes?5or?5no@ 0052e608     renderhud.obj
 0002:00009628       ??_C@_06MBANMAIC@PASSED@   0052e628     renderhud.obj
 0002:00009630       ??_C@_06OHCJKBJM@FAILED@   0052e630     renderhud.obj
 0002:00009638       ??_C@_09FNPDJJOB@?$AM3vote?5?$CFs@ 0052e638     renderhud.obj
 0002:00009644       ??_C@_0BI@FOLAIEME@SCROLL?5to?5change?5player@ 0052e644     renderhud.obj
 0002:0000965c       ??_C@_0BF@DLHCGIBM@SPACE?5to?5change?5view@ 0052e65c     renderhud.obj
 0002:00009674       ??_C@_0N@KMOEHHNI@MATCH?5PAUSED@ 0052e674     renderhud.obj
 0002:00009684       ??_C@_0M@BCENDMIN@Speed?3?5?$CF?42f@ 0052e684     renderhud.obj
 0002:00009690       ??_C@_05EHLJDHNC@GHOST@    0052e690     renderhud.obj
 0002:00009698       ??_C@_05JIKIKHJK@?$FLCLA?$FN@ 0052e698     renderhud.obj
 0002:000096a0       ??_C@_06BHOOHMHM@?$FLRVSF?$FN@ 0052e6a0     renderhud.obj
 0002:000096a8       ??_C@_04GCAJKEBL@?$AMZ?$CFs@ 0052e6a8     renderhud.obj
 0002:000096b0       ??_C@_04HALMALPF@?$AMY?$CFs@ 0052e6b0     renderhud.obj
 0002:000096b8       ??_C@_0BC@BDMJPGJC@Player?5?$CFs?5?$FLcn?3?$CFd?$FN@ 0052e6b8     renderhud.obj
 0002:000096cc       ??_C@_09FKAEDENP@huddigits@ 0052e6cc     renderhud.obj
 0002:000096d8       ??_C@_02DPKJAMEF@?$CFd@    0052e6d8     renderhud.obj
 0002:000096dc       ??_C@_02OAMOHKJG@31@       0052e6dc     renderhud.obj
 0002:000096e0       ??_C@_02IACPMDCA@55@       0052e6e0     renderhud.obj
 0002:000096e4       ??_C@_0BO@MHMGGOBB@packages?1misc?1startscreen?4png@ 0052e6e4     renderhud.obj
 0002:00009708       ??_7?$consolebuffer@Uhudline@@@@6B@ 0052e708     renderhud.obj
 0002:00009710       ?ghoststrings@@3PAPBDA     0052e710     renderhud.obj
 0002:00009730       ?mmpath@@3PBDB             0052e730     rendermodel.obj
 0002:00009734       ?shuffleskillthreshold@@3HA 0052e734     server.obj
 0002:00009738       ?killmessages@@3PAY08PBDA  0052e738     server.obj
 0002:00009780       ?modestrings@@3PAPBDA      0052e780     clientgame.obj
 0002:000097d8       ?spk@@3PAEA                0052e7d8     server.obj
 0002:000097dc       ?servermappath_incom@@3PBDB 0052e7dc     server.obj
 0002:000097e0       ?vskeywords@@3PAPBDA       0052e7e0     server.obj
 0002:00009824       ?servermappath_serv@@3PBDB 0052e824     server.obj
 0002:00009828       ?servermappath_local@@3PBDB 0052e828     server.obj
 0002:0000982c       ?servermappath_off@@3PBDB  0052e82c     server.obj
 0002:00009830       ?maprotkeywords@@3PAPBDA   0052e830     server.obj
 0002:0000985c       ?resdata@@3AAU?$hashtable@PADI@@A 0052e85c     world.obj
 0002:00009860       ?entscale@@3PAY06EA        0052e860     server.obj
 0002:000098e0       ?entwraparound@@3PAY06FA   0052e8e0     server.obj
 0002:000099dc       ?fc_als@@3PAPBDA           0052e9dc     serverbrowser.obj
 0002:00009a24       ?weaponchangetime@weapon@@2HB 0052ea24     weapon.obj
 0002:00009a30       ?hx_names@@3PAPBDA         0052ea30     worldio.obj
 0002:00009a50       ?entmdlnames@@3PAPBDA      0052ea50     entities.obj
 0002:00009a7c       ?updatestxt@@3PBDB         0052ea7c     autodownload.obj
 0002:00009a80       ?keycmds@@3PAPBDA          0052ea80     console.obj
 0002:000247d8       ?crlf@@3PBDB               005497d8     http.obj
 0002:00024894       ?empty@mitemkeyinput@@2PBDB 00549894     menus.obj
 0002:00024898       ?unknown@mitemkeyinput@@2PBDB 00549898     menus.obj
 0002:000248e0       ?mask@jpegenc@@0PAGA       005498e0     main.obj
 0002:00024900       ?zigzag@jpegenc@@0PAEA     00549900     main.obj
 0002:00024940       ?menufilesortcmp@@3PAP6AHPAPBD0@ZA 00549940     menus.obj
 0002:00024950       ?modrev@@3PBDB             00549950     zip.obj
 0002:00024954       ?previewjpg@@3PBDB         00549954     zip.obj
 0002:00024958       ?desctxt@@3PBDB            00549958     zip.obj
 0002:0002495c       ?mapsoundfinalpath@@3PBDB  0054995c     audiomanager.obj
 0002:00024960       ?mapsoundbasepath@@3PBDB   00549960     audiomanager.obj
 0002:00024964       ?oggcallbacks@@3Uov_callbacks@@A 00549964     oggstream.obj
 0002:00024974       ?al_rollofffactor@@3HA     00549974     openal.obj
 0002:00024978       ?al_referencedistance@@3HA 00549978     openal.obj
 0002:000249e8       ?voteerrors@@3PAPBDA       005499e8     protocol1.obj
 0002:00024d1c       ?mmfullnames@@3PAPBDA      00549d1c     protocol1.obj
 0002:00024d28       ?modefullnames@@3PAPBDA    00549d28     protocol1.obj
 0002:00024d98       ??_7hudmessages@@6B@       00549d98     renderhud.obj
 0002:00024da0       ??_C@_0BL@GNIBKKNJ@animationinterpolationtime@ 00549da0     rendermodel.obj
 0002:00024dbc       ??_C@_06NJLCHBAN@tsswap@   00549dbc     rendermodel.obj
 0002:00024dc4       ??_C@_0O@CPBHFFCH@dynshadowsize@ 00549dc4     rendermodel.obj
 0002:00024dd4       ??_C@_0M@ONCOCJAG@aadynshadow@ 00549dd4     rendermodel.obj
 0002:00024de0       ??_C@_0M@KIHCDIGO@saveshadows@ 00549de0     rendermodel.obj
 0002:00024dec       ??_C@_0O@EGHAJDLA@dynshadowquad@ 00549dec     rendermodel.obj
 0002:00024dfc       ??_C@_09IAEGCBN@shadowyaw@ 00549dfc     rendermodel.obj
 0002:00024e08       ??_C@_08DIAAAAAA@mdldlist@ 00549e08     rendermodel.obj
 0002:00024e14       ??_C@_0CP@EMLFMCEP@mdanim?3?5invalid?5frame?5?$CFd?0?5range@ 00549e14     rendermodel.obj
 0002:00024e44       ??_C@_02GMLFBBN@wb@        00549e44     rendermodel.obj
 0002:00024e48       ??_C@_02JDPG@rb@           00549e48     rendermodel.obj
 0002:00024e4c       ??_C@_0M@GHACGNAG@shadows?4dat@ 00549e4c     rendermodel.obj
 0002:00024e58       ??_C@_0M@CNPHEGAH@mdldyncache@ 00549e58     rendermodel.obj
 0002:00024e64       ??_C@_0N@CBHGNGBE@mdlstatcache@ 00549e64     rendermodel.obj
 0002:00024e74       ??_C@_0BM@GHKCHKHL@packages?1models?1?$CFs?1tris?4md2@ 00549e74     rendermodel.obj
 0002:00024e90       ??_C@_0CB@MDONGMDC@could?5not?5load?5model?5skin?5for?5?$CF@ 00549e90     rendermodel.obj
 0002:00024eb4       ??_C@_0BL@DINBKKGD@packages?1models?1?$CFs?1md2?4cfg@ 00549eb4     rendermodel.obj
 0002:00024ed0       ??_C@_0BD@HOFNMLNO@not?5loading?5an?5md2@ 00549ed0     rendermodel.obj
 0002:00024ee4       ??_C@_0BM@KIFNKFIM@could?5not?5find?5animation?5?$CFs@ 00549ee4     rendermodel.obj
 0002:00024f00       ??_C@_04LFCABGPK@siif@     00549f00     rendermodel.obj
 0002:00024f08       ??_C@_07PIGGACE@md2anim@   00549f08     rendermodel.obj
 0002:00024f10       ??_C@_0BJ@KHDEIHFN@could?5not?5find?5vertex?5?$CFs@ 00549f10     rendermodel.obj
 0002:00024f2c       ??_C@_0BK@PBAEBNMC@could?5not?5generate?5tag?5?$CFs@ 00549f2c     rendermodel.obj
 0002:00024f48       ??_C@_05FGNGEIGC@sssss@    00549f48     rendermodel.obj
 0002:00024f50       ??_C@_06EHICMALC@md2tag@   00549f50     rendermodel.obj
 0002:00024f58       ??_C@_0BJ@PMFGGDKA@unknown?5particle?5type?5?$CFs@ 00549f58     rendermodel.obj
 0002:00024f74       ??_C@_0BG@FAFMHGIH@could?5not?5find?5tag?5?$CFs@ 00549f74     rendermodel.obj
 0002:00024f8c       ??_C@_04NBMLNMO@ssii@      00549f8c     rendermodel.obj
 0002:00024f94       ??_C@_07HDLDMABC@md2emit@  00549f94     rendermodel.obj
 0002:00024f9c       ??_C@_04OAJPLGDA@IDP3@     00549f9c     rendermodel.obj
 0002:00024fa4       ??_C@_0BG@EFCKECLA@md3?3?5corrupted?5header@ 00549fa4     rendermodel.obj
 0002:00024fbc       ??_C@_0BD@HIJBPBMD@packages?1models?1?$CFs@ 00549fbc     rendermodel.obj
 0002:00024fd0       ??_C@_0BL@PDINHJMG@packages?1models?1?$CFs?1md3?4cfg@ 00549fd0     rendermodel.obj
 0002:00024fec       ??_C@_0BM@HOLJELDK@packages?1models?1?$CFs?1tris?4md3@ 00549fec     rendermodel.obj
 0002:00025008       ??_C@_0BD@GHEGPKJP@not?5loading?5an?5md3@ 0054a008     rendermodel.obj
 0002:0002501c       ??_C@_05GFOLEBJA@?$CFs?1?$CFs@ 0054a01c     rendermodel.obj
 0002:00025024       ??_C@_0BC@BECPHHLH@could?5not?5load?5?$CFs@ 0054a024     rendermodel.obj
 0002:00025038       ??_C@_07FLCHPKKE@md3load@  0054a038     rendermodel.obj
 0002:00025040       ??_C@_01NBENCBCI@?$CK@     0054a040     rendermodel.obj
 0002:00025044       ??_C@_0BH@MKFKBFPP@?0?5possibilities?5are?3?5?$CK@ 0054a044     rendermodel.obj
 0002:0002505c       ??_C@_03MFMGJBPJ@?$HM?$CFs@ 0054a05c     rendermodel.obj
 0002:00025060       ??_C@_0DG@FNHAPGNA@mesh?5?$CC?$CFs?$CC?5not?5found?5in?5model?5?$CFs@ 0054a060     rendermodel.obj
 0002:00025098       ??_C@_07MCAJNEJC@md3skin@  0054a098     rendermodel.obj
 0002:000250a0       ??_C@_07MENKLDIB@md3anim@  0054a0a0     rendermodel.obj
 0002:000250a8       ??_C@_0BJ@MBNLEDHP@no?5models?5loaded?5to?5link@ 0054a0a8     rendermodel.obj
 0002:000250c4       ??_C@_0BI@EBDAPHJE@could?5not?5link?5model?5?$CFs@ 0054a0c4     rendermodel.obj
 0002:000250dc       ??_C@_03NLIBECPA@iis@      0054a0dc     rendermodel.obj
 0002:000250e0       ??_C@_07PCIIPOIK@md3link@  0054a0e0     rendermodel.obj
 0002:000250e8       ??_C@_07LIOPBDLH@md3emit@  0054a0e8     rendermodel.obj
 0002:000250f0       ??_C@_0BE@BMJMPKHA@not?5loading?5a?5model@ 0054a0f0     rendermodel.obj
 0002:00025104       ??_C@_01KBJDNOO@i@         0054a104     rendermodel.obj
 0002:00025108       ??_C@_0M@GMIMGGAH@mdlcullface@ 0054a108     rendermodel.obj
 0002:00025114       ??_C@_0P@CFNNHCCM@mdlvertexlight@ 0054a114     rendermodel.obj
 0002:00025124       ??_C@_0P@FCPELAEF@mdltranslucent@ 0054a124     rendermodel.obj
 0002:00025134       ??_C@_0N@IGFDCJAD@mdlalphatest@ 0054a134     rendermodel.obj
 0002:00025144       ??_C@_0O@CEECABCC@mdlalphablend@ 0054a144     rendermodel.obj
 0002:00025154       ??_C@_08CFJEEKEA@mdlscale@ 0054a154     rendermodel.obj
 0002:00025160       ??_C@_03LPALPDIP@fff@      0054a160     rendermodel.obj
 0002:00025164       ??_C@_08HKANKFHD@mdltrans@ 0054a164     rendermodel.obj
 0002:00025170       ??_C@_0O@BAJJKBFB@mdlshadowdist@ 0054a170     rendermodel.obj
 0002:00025180       ??_C@_0O@JAABKLMP@mdlcachelimit@ 0054a180     rendermodel.obj
 0002:00025190       ??_C@_08KBIEDDDE@keywords@ 0054a190     rendermodel.obj
 0002:0002519c       ??_C@_04EBPADADD@desc@     0054a19c     rendermodel.obj
 0002:000251a4       ??_C@_08LMJEPNLL@defaults@ 0054a1a4     rendermodel.obj
 0002:000251b0       ??_C@_05HNCIIKBA@usage@    0054a1b0     rendermodel.obj
 0002:000251b8       ??_C@_06LIPPPFCI@author@   0054a1b8     rendermodel.obj
 0002:000251c0       ??_C@_07EJMBNAEG@license@  0054a1c0     rendermodel.obj
 0002:000251c8       ??_C@_0N@LHOGOLPD@distribution@ 0054a1c8     rendermodel.obj
 0002:000251d8       ??_C@_07CPCPJPKL@version@  0054a1d8     rendermodel.obj
 0002:000251e0       ??_C@_08FBECLHOF@requires@ 0054a1e0     rendermodel.obj
 0002:000251ec       ??_C@_0N@NDNDIGFF@mdlattribute@ 0054a1ec     rendermodel.obj
 0002:000251fc       ??_C@_0BA@KGIDJPIG@mapmodelchanged@ 0054a1fc     rendermodel.obj
 0002:0002520c       ??_C@_0L@ECKDHP@mapmodels?1@ 0054a20c     rendermodel.obj
 0002:00025218       ??_C@_01GBGANLPD@0@        0054a218     rendermodel.obj
 0002:0002521c       ??_C@_04HDOCAJNK@?$CFs?$CFs@ 0054a21c     rendermodel.obj
 0002:00025224       ??_C@_06OMELJBFH@iiisss@   0054a224     rendermodel.obj
 0002:0002522c       ??_C@_08NIOLEMIA@mapmodel@ 0054a22c     rendermodel.obj
 0002:00025238       ??_C@_0O@OHIPMJPN@mapmodelreset@ 0054a238     rendermodel.obj
 0002:00025248       ??_C@_0BB@ELKMOCOK@mapmodelslotname@ 0054a248     rendermodel.obj
 0002:0002525c       ??_C@_04HGGBINEM@?$CFs?$CFd@ 0054a25c     rendermodel.obj
 0002:00025264       ??_C@_0BD@FCPHBDAK@mapmodelslotbyname@ 0054a264     rendermodel.obj
 0002:00025278       ??_C@_0BC@GCHNGFAK@mapmodelslotusage@ 0054a278     rendermodel.obj
 0002:0002528c       ??_C@_0BD@BDBDNANE@deletemapmodelslot@ 0054a28c     rendermodel.obj
 0002:000252a0       ??_C@_05OAAJBGHC@purge@    0054a2a0     rendermodel.obj
 0002:000252a8       ??_C@_0CK@MMJPDBNK@mapmodel?5slot?5?$CD?$CFd?5is?5in?5use?3?5ca@ 0054a2a8     rendermodel.obj
 0002:000252d4       ??_C@_0BH@HLLOAJCI@?5?$CI?$CFd?5mapmodels?5purged?$CJ@ 0054a2d4     rendermodel.obj
 0002:000252ec       ??_C@_0BM@MGINDCJO@mapmodel?5slot?5?$CD?$CFd?5deleted?$CFs@ 0054a2ec     rendermodel.obj
 0002:00025308       ??_C@_02EDKKPMHH@is@       0054a308     rendermodel.obj
 0002:0002530c       ??_C@_0BB@NCOPDHK@editmapmodelslot@ 0054a30c     rendermodel.obj
 0002:00025320       ??_C@_0BB@NHAEHOA@?$CFd?5?$CFd?5?$CFd?5?$CFs?5?$CC?$CFs?$CC@ 0054a320     rendermodel.obj
 0002:00025334       ??_C@_06GEFGDPIJ@isssss@   0054a334     rendermodel.obj
 0002:0002533c       ??_C@_07FDNOGAPK@nomerge@  0054a33c     rendermodel.obj
 0002:00025344       ??_C@_06IBKJNHDA@nosort@   0054a344     rendermodel.obj
 0002:0002534c       ??_C@_09NBPAGBGI@mergeused@ 0054a34c     rendermodel.obj
 0002:00025358       ??_C@_0CJ@CHEKLNLK@sortmapmodelslots?3?5unknown?5argu@ 0054a358     rendermodel.obj
 0002:00025384       ??_C@_0BC@JNGGHNEA@sortmapmodelslots@ 0054a384     rendermodel.obj
 0002:00025398       ??_C@_07JGNLMONI@unused?5@ 0054a398     rendermodel.obj
 0002:000253a0       ??_C@_07GPELBGPF@?5sorted@ 0054a3a0     rendermodel.obj
 0002:000253a8       ??_C@_0CH@EOODNJGC@?$CFd?5mapmodel?5slots?$CFs?0?5?$CFd?5?$CFsslots@ 0054a3a8     rendermodel.obj
 0002:000253d0       ??_C@_01MHEDDDHA@v@        0054a3d0     rendermodel.obj
 0002:000253d4       ??_C@_0BB@DLBIJDBA@mapmodelregister@ 0054a3d4     rendermodel.obj
 0002:000253e8       ??_C@_0BG@BPKNPCBK@mapmodelregistryclear@ 0054a3e8     rendermodel.obj
 0002:00025400       ??_C@_0BK@JLDIEGCL@?$AM3failed?5to?5load?5model?5?$CFs@ 0054a400     rendermodel.obj
 0002:00025420       ??_C@_0GK@PBKKAECH@?$AM3mapmodel?5config?5error?3?5disabl@ 0054a420     rendermodel.obj
 0002:0002548c       ??_C@_08IPBIFIPM@?5?$CFs?3?$CC?$CFs?$CC@ 0054a48c     rendermodel.obj
 0002:00025498       ??_C@_0BF@BAEHNPKM@?5?$DMno?5attributes?5set?$DO@ 0054a498     rendermodel.obj
 0002:000254b0       ??_C@_05CCMOGDN@?$CFs?3?$CFs@ 0054a4b0     rendermodel.obj
 0002:000254b8       ??_C@_0BG@ELIIJBGC@getmapmodelattributes@ 0054a4b8     rendermodel.obj
 0002:000254d0       ??_C@_0BJ@NIKDKPED@mapmodel?50?50?50?50?5?$CC?$CFs?$CC?5?$CFd@ 0054a4d0     rendermodel.obj
 0002:000254ec       ??_C@_0DF@HFNKGGBD@?5mapmodel?5?$CFs?5added?5to?5config?0?5b@ 0054a4ec     rendermodel.obj
 0002:00025524       ??_C@_0BL@MBMFBPDE@updatemapmodeldependencies@ 0054a524     rendermodel.obj
 0002:00025540       ??_C@_01NOFIACDB@w@        0054a540     rendermodel.obj
 0002:00025544       ??_C@_0BO@IHBPJHJF@config?2mapmodelattributes?4cfg@ 0054a544     rendermodel.obj
 0002:00025568       ??_C@_0IB@JHLDIJLB@?1?1?5automatically?5written?5on?5exi@ 0054a568     rendermodel.obj
 0002:000255ec       ??_C@_0BF@EAGHLFMJ@?6mapmodelregister?5?$CFs@ 0054a5ec     rendermodel.obj
 0002:00025604       ??_C@_03EEBNCBOD@?5?$CFs@  0054a604     rendermodel.obj
 0002:00025608       ??_C@_02PHMGELLB@?6?6@     0054a608     rendermodel.obj
 0002:0002560c       ??_C@_07GAOCNCAC@sortby?3@ 0054a60c     rendermodel.obj
 0002:00025614       ??_C@_0BA@NCNICDGC@explodekeywords@ 0054a614     rendermodel.obj
 0002:00025624       ??_C@_0BK@LGMGGJIO@listallmapmodelattributes@ 0054a624     rendermodel.obj
 0002:00025640       ??_C@_09FHNMOOIA@dynshadow@ 0054a640     rendermodel.obj
 0002:0002564c       ??_C@_0P@KKODAPGK@dynshadowdecay@ 0054a64c     rendermodel.obj
 0002:0002565c       ??_C@_0P@PDADMLHO@popdeadplayers@ 0054a65c     rendermodel.obj
 0002:0002566c       ??_C@_04EAPMNACM@idle@     0054a66c     rendermodel.obj
 0002:00025674       ??_C@_03LGMJKEGG@run@      0054a674     rendermodel.obj
 0002:00025678       ??_C@_06JMLBDJHL@attack@   0054a678     rendermodel.obj
 0002:00025680       ??_C@_04PPONMOMN@pain@     0054a680     rendermodel.obj
 0002:00025688       ??_C@_04NJIOBGCF@jump@     0054a688     rendermodel.obj
 0002:00025690       ??_C@_04KFFNEKEB@land@     0054a690     rendermodel.obj
 0002:00025698       ??_C@_07KNOINIA@flipoff@   0054a698     rendermodel.obj
 0002:000256a0       ??_C@_06DHOKKDEE@salute@   0054a6a0     rendermodel.obj
 0002:000256a8       ??_C@_05CPCHEFAA@taunt@    0054a6a8     rendermodel.obj
 0002:000256b0       ??_C@_04LJEDCPFL@wave@     0054a6b0     rendermodel.obj
 0002:000256b8       ??_C@_05BBEJFBFA@point@    0054a6b8     rendermodel.obj
 0002:000256c0       ??_C@_0M@HPMAMNBP@crouch?5idle@ 0054a6c0     rendermodel.obj
 0002:000256cc       ??_C@_0M@JENDJEA@crouch?5walk@ 0054a6cc     rendermodel.obj
 0002:000256d8       ??_C@_0O@LNMAPKO@crouch?5attack@ 0054a6d8     rendermodel.obj
 0002:000256e8       ??_C@_0M@MANBNDPO@crouch?5pain@ 0054a6e8     rendermodel.obj
 0002:000256f4       ??_C@_0N@EOCDAHGD@crouch?5death@ 0054a6f4     rendermodel.obj
 0002:00025704       ??_C@_05PBMMFKGI@death@    0054a704     rendermodel.obj
 0002:0002570c       ??_C@_0L@JADIMPJN@lying?5dead@ 0054a70c     rendermodel.obj
 0002:00025718       ??_C@_04DNPGJOMD@flag@     0054a718     rendermodel.obj
 0002:00025720       ??_C@_08GAEAHCII@gun?5idle@ 0054a720     rendermodel.obj
 0002:0002572c       ??_C@_09NAMPBBFG@gun?5shoot@ 0054a72c     rendermodel.obj
 0002:00025738       ??_C@_0L@MEONJGFC@gun?5reload@ 0054a738     rendermodel.obj
 0002:00025744       ??_C@_09EEJEPNGP@gun?5throw@ 0054a744     rendermodel.obj
 0002:00025750       ??_C@_07DIDNFGDE@trigger@  0054a750     rendermodel.obj
 0002:00025758       ??_C@_05BCPBNAGI@decay@    0054a758     rendermodel.obj
 0002:00025760       ??_C@_03NFKEKGGK@all@      0054a760     rendermodel.obj
 0002:00025764       ??_C@_0BM@JOELLGPD@packages?1models?1?$CFs?1skin?4jpg@ 0054a764     rendermodel.obj
 0002:00025780       ??_C@_03NNHBJLDF@png@      0054a780     rendermodel.obj
 0002:00025784       ??_C@_0N@DCPGAPLL@playermodels@ 0054a784     rendermodel.obj
 0002:00025794       ??_C@_0BB@EOJBCMII@weapons?1?$CFs?1world@ 0054a794     rendermodel.obj
 0002:000257a8       ??_C@_0L@HOLPFMNP@misc?1gib01@ 0054a7a8     rendermodel.obj
 0002:000257b4       ??_C@_0L@FFJCAPBM@misc?1gib02@ 0054a7b4     rendermodel.obj
 0002:000257c0       ??_C@_0L@EMIJDOFN@misc?1gib03@ 0054a7c0     rendermodel.obj
 0002:000257cc       ??_C@_0BH@MEEDOPBE@weapons?1grenade?1static@ 0054a7cc     rendermodel.obj
 0002:000257e4       ??_C@_0L@FGMMEJDC@tag_weapon@ 0054a7e4     rendermodel.obj
 0002:000257f0       ??_C@_08PGAPCFON@tag_head@ 0054a7f0     rendermodel.obj
 0002:000257fc       ??_C@_0BA@PKMGALM@teamdisplaymode@ 0054a7fc     rendermodel.obj
 0002:0002580c       ??_C@_0BA@LPEKDAN@hidecustomskins@ 0054a80c     rendermodel.obj
 0002:0002581c       ??_C@_03PEGNKCLE@jpg@      0054a81c     rendermodel.obj
 0002:00025820       ??_C@_0CE@KPCNFCPJ@packages?1models?1playermodels?1cu@ 0054a820     rendermodel.obj
 0002:00025844       ??_C@_04KNGPBFFD@_ffa@     0054a844     rendermodel.obj
 0002:0002584c       ??_C@_04JHCGGALH@_cla@     0054a84c     rendermodel.obj
 0002:00025854       ??_C@_05BLLDLCLJ@_rvsf@    0054a854     rendermodel.obj
 0002:0002585c       ??_C@_0BN@BBFAFFHM@packages?1models?1playermodels@ 0054a85c     rendermodel.obj
 0002:0002587c       ??_C@_05PMPFOIAI@SPECT@    0054a87c     rendermodel.obj
 0002:00025884       ??_C@_0BB@GFDEAOFO@?$CFs?1custom?1?$CFs?4jpg@ 0054a884     rendermodel.obj
 0002:00025898       ??_C@_0P@HNHPMKIA@?$CFs?1?$CFs?1?$CF02d?4jpg@ 0054a898     rendermodel.obj
 0002:000258a8       ??_C@_04OBGPFBCN@blue@     0054a8a8     rendermodel.obj
 0002:000258b0       ??_C@_03FAAAOPJM@red@      0054a8b0     rendermodel.obj
 0002:000258b4       ??_C@_0BG@PBHOCNHA@?$CFs?1?$CFs?1?$CF02d_?$CFsvest?4jpg@ 0054a8b4     rendermodel.obj
 0002:000258cc       ??_C@_0N@BMHCFEJG@?$CFs?1?$CFs?1?$CFs?4jpg@ 0054a8cc     rendermodel.obj
 0002:000258dc       ??_C@_0BK@PEILCLCN@packages?1models?1mapmodels@ 0054a8dc     rendermodel.obj
 0002:000258f8       ??_C@_06IILMCCFO@loaded@   0054a8f8     rendermodel.obj
 0002:00025900       ??_C@_0P@KDDBDKEH@failed?5to?5load@ 0054a900     rendermodel.obj
 0002:00025910       ??_C@_0BD@NPFEEJDB@loadallmaps?3?5?$CFs?5?$CFs@ 0054a910     rendermodel.obj
 0002:00025924       ??_C@_0BB@FIAGLGOE@loadallmapmodels@ 0054a924     rendermodel.obj
 0002:00025950       ??_C@_01CLKCMJKC@?5@       0054a950     rendermodel.obj
 0002:00025958       ??_7md3part@md3@@6B@       0054a958     rendermodel.obj
 0002:0002596c       ??_7md3@@6B@               0054a96c     rendermodel.obj
 0002:000259a0       ??_7md2part@md2@@6B@       0054a9a0     rendermodel.obj
 0002:000259b0       ?m@?1??identity@glmatrixf@@QAEXXZ@4QBMB 0054a9b0     rendermodel.obj
 0002:000259f0       ?range@?1??getdefaultanim@md2part@md2@@UAEXAAUanimstate@@HH@Z@4PAHA 0054a9f0     rendermodel.obj
 0002:00025a58       ?frame@?1??getdefaultanim@md2part@md2@@UAEXAAUanimstate@@HH@Z@4PAHA 0054aa58     rendermodel.obj
 0002:00025ac0       ?animfr@?1??getdefaultanim@md2part@md2@@UAEXAAUanimstate@@HH@Z@4PAHA 0054aac0     rendermodel.obj
 0002:00025b10       ??_7md2@@6B@               0054ab10     rendermodel.obj
 0002:00025b44       ??_7vertmodel@@6B@         0054ab44     rendermodel.obj
 0002:00025b78       ??_7model@@6B@             0054ab78     rendermodel.obj
 0002:00025bac       ??_7part@vertmodel@@6B@    0054abac     rendermodel.obj
 0002:00025bbc       ??_C@_0M@FJNEDJNC@mtexplosion@ 0054abbc     renderparticles.obj
 0002:00025bc8       ??_C@_04MOGELCJE@?$DN?5Ca@ 0054abc8     renderparticles.obj
 0002:00025bd0       ??_C@_05CPCFJIHA@C?5?$CK?5T@ 0054abd0     renderparticles.obj
 0002:00025bd8       ??_C@_0M@HAOAEAOE@Pa?5?$CK?5Ta?5x?54@ 0054abd8     renderparticles.obj
 0002:00025be4       ??_C@_0L@LFCNPJLH@P?5?$CK?5Ta?5x?54@ 0054abe4     renderparticles.obj
 0002:00025bf0       ??_C@_0BH@MMDKCGEB@packages?1misc?1base?4png@ 0054abf0     renderparticles.obj
 0002:00025c08       ??_C@_0BI@CDHDGAJN@packages?1misc?1smoke?4png@ 0054ac08     renderparticles.obj
 0002:00025c20       ??_C@_0BM@MKOPMACE@packages?1misc?1explosion?4png@ 0054ac20     renderparticles.obj
 0002:00025c3c       ??_C@_0CE@LIGBPCMM@?$DMdecal?$DOpackages?1misc?1bullethole@ 0054ac3c     renderparticles.obj
 0002:00025c60       ??_C@_0BI@MDHHGJLO@packages?1misc?1blood?4png@ 0054ac60     renderparticles.obj
 0002:00025c78       ??_C@_0BJ@FLPJMNII@packages?1misc?1scorch?4png@ 0054ac78     renderparticles.obj
 0002:00025c94       ??_C@_0BO@HKGMBDJP@packages?1misc?1muzzleflash?4jpg@ 0054ac94     renderparticles.obj
 0002:00025cb4       ??_C@_05KDCJLIIG@SPARK@    0054acb4     renderparticles.obj
 0002:00025cbc       ??_C@_05FGPCCJPH@SMOKE@    0054acbc     renderparticles.obj
 0002:00025cc4       ??_C@_08DEBANKAO@ECLOSEST@ 0054acc4     renderparticles.obj
 0002:00025cd0       ??_C@_05LNAKEIOE@BLOOD@    0054acd0     renderparticles.obj
 0002:00025cd8       ??_C@_09IIMPOIPC@DEMOTRACK@ 0054acd8     renderparticles.obj
 0002:00025ce4       ??_C@_08ENKEGLIH@FIREBALL@ 0054ace4     renderparticles.obj
 0002:00025cf0       ??_C@_08BBILJLO@SHOTLINE@  0054acf0     renderparticles.obj
 0002:00025cfc       ??_C@_0L@NNKDAALI@BULLETHOLE@ 0054acfc     renderparticles.obj
 0002:00025d08       ??_C@_0L@KKJILMCA@BLOODSTAIN@ 0054ad08     renderparticles.obj
 0002:00025d14       ??_C@_06ILJFFEM@SCORCH@    0054ad14     renderparticles.obj
 0002:00025d1c       ??_C@_0P@EEFMLEMH@HUDMUZZLEFLASH@ 0054ad1c     renderparticles.obj
 0002:00025d2c       ??_C@_0M@DDLEJIHI@MUZZLEFLASH@ 0054ad2c     renderparticles.obj
 0002:00025d38       ??_C@_06PPEEKONM@ELIGHT@   0054ad38     renderparticles.obj
 0002:00025d40       ??_C@_06OCAIKKCL@ESPAWN@   0054ad40     renderparticles.obj
 0002:00025d48       ??_C@_05BCOGHJMD@EAMMO@    0054ad48     renderparticles.obj
 0002:00025d50       ??_C@_07HDKIBCKG@EPICKUP@  0054ad50     renderparticles.obj
 0002:00025d58       ??_C@_06CDCOCMDN@EMODEL@   0054ad58     renderparticles.obj
 0002:00025d60       ??_C@_07MMIBFDBN@ECARROT@  0054ad60     renderparticles.obj
 0002:00025d68       ??_C@_07PLNGGLMF@ELADDER@  0054ad68     renderparticles.obj
 0002:00025d70       ??_C@_05NJLJLBNK@EFLAG@    0054ad70     renderparticles.obj
 0002:00025d78       ??_C@_0N@KDFPFDGD@particlesize@ 0054ad78     renderparticles.obj
 0002:00025d88       ??_C@_05HGJMKPKK@blood@    0054ad88     renderparticles.obj
 0002:00025d90       ??_C@_08HKCEHEGF@bloodttl@ 0054ad90     renderparticles.obj
 0002:00025d9c       ??_C@_08GJGJALNB@maxtrail@ 0054ad9c     renderparticles.obj
 0002:00025da8       ??_C@_0BC@IMPJDDMN@bulletbouncesound@ 0054ada8     renderparticles.obj
 0002:00025dbc       ??_C@_0L@GLMOLCJI@bullethole@ 0054adbc     renderparticles.obj
 0002:00025dc8       ??_C@_0O@CHMCBJEC@bulletholettl@ 0054adc8     renderparticles.obj
 0002:00025dd8       ??_C@_0BF@CAMPENLE@bulletbouncesoundrad@ 0054add8     renderparticles.obj
 0002:00025df0       ??_C@_06MJCILJO@scorch@    0054adf0     renderparticles.obj
 0002:00025df8       ??_C@_09EPBGPFPC@scorchttl@ 0054adf8     renderparticles.obj
 0002:00025e04       ??_C@_08HOLEIHJJ@shotline@ 0054ae04     renderparticles.obj
 0002:00025e10       ??_C@_0M@DEOBCJPE@shotlinettl@ 0054ae10     renderparticles.obj
 0002:00025e1c       ??_C@_0P@LNMOOAFH@bulletairsound@ 0054ae1c     renderparticles.obj
 0002:00025e2c       ??_C@_0BC@MCODEDHA@bulletairsoundrad@ 0054ae2c     renderparticles.obj
 0002:00025e40       ??_C@_0BI@PIHGCBNB@bulletairsoundsourcerad@ 0054ae40     renderparticles.obj
 0002:00025e58       ??_C@_0BG@MMHCJPIG@bulletairsounddestrad@ 0054ae58     renderparticles.obj
 0002:00025e90       ??_C@_0BC@BIEGAKJN@allowblinkingtext@ 0054ae90     rendertext.obj
 0002:00025ea4       ??_C@_08OCOHFIGC@ssiiiiii@ 0054aea4     rendertext.obj
 0002:00025eb0       ??_C@_04EFPADHIC@font@     0054aeb0     rendertext.obj
 0002:00025eb8       ??_C@_04BIOIIFBG@iiii@     0054aeb8     rendertext.obj
 0002:00025ec0       ??_C@_08GCLBBF@fontchar@   0054aec0     rendertext.obj
 0002:00025ecc       ??_C@_08EOBCLKED@fontskip@ 0054aecc     rendertext.obj
 0002:00025ed8       ??_C@_07INBCKFBA@setfont@  0054aed8     rendertext.obj
 0002:00025ee0       ??_C@_07EACOOLOI@curfont@  0054aee0     rendertext.obj
 0002:00025ee8       ??_C@_0L@PPLBLPDP@igraphsize@ 0054aee8     rendertext.obj
 0002:00025ef4       ??_C@_0BE@OKPHFBPM@igraphsizehardcoded@ 0054aef4     rendertext.obj
 0002:00025f08       ??_C@_0O@HGOPGPBL@igraphanimate@ 0054af08     rendertext.obj
 0002:00025f18       ??_C@_0BO@CPBBHGPP@failed?5to?5reload?5font?5texture@ 0054af18     rendertext.obj
 0002:00025f38       ??_C@_0BH@HAFLDKMH@igraphdefaultframetime@ 0054af38     rendertext.obj
 0002:00025f50       ??_C@_0M@FPBMAMH@hideigraphs@ 0054af50     rendertext.obj
 0002:00025f5c       ??_C@_01IDAFKMJL@_@        0054af5c     rendertext.obj
 0002:00025f60       ??_C@_0BG@GOFGMLOA@packages?2misc?2igraph?2@ 0054af60     rendertext.obj
 0002:00025f78       ??_C@_08JOEHPJCJ@?$CFs?$CFs?4png@ 0054af78     rendertext.obj
 0002:00025f84       ??_C@_0O@ODMAPDOP@updateigraphs@ 0054af84     rendertext.obj
 0002:00025f94       ??_C@_09ODCCEPOD@getigraph@ 0054af94     rendertext.obj
 0002:00025fa0       ??_C@_04IDIEOEJG@?5?7?6?4@ 0054afa0     rendertext.obj
 0002:00025fa8       ??_C@_0O@DHMEIHOO@stencilshadow@ 0054afa8     shadow.obj
 0002:00025fb8       ??_C@_0L@ICLDMIMJ@shadowclip@ 0054afb8     shadow.obj
 0002:00025fc4       ??_C@_0L@FGNDFHJG@shadowtile@ 0054afc4     shadow.obj
 0002:00025fd0       ??_C@_0O@KGLAGFPK@shadowcasters@ 0054afd0     shadow.obj
 0002:00025fe0       ??_C@_09OFNCFOGH@hwtexsize@ 0054afe0     texture.obj
 0002:00025fec       ??_C@_0L@BDEGPDCO@hwmaxaniso@ 0054afec     texture.obj
 0002:00025ff8       ??_C@_0BA@MPKCMJPH@texture?5quality@ 0054aff8     texture.obj
 0002:00026008       ??_C@_0L@NFDDLINJ@maxtexsize@ 0054b008     texture.obj
 0002:00026014       ??_C@_09MLBAMIPG@texreduce@ 0054b014     texture.obj
 0002:00026020       ??_C@_0BC@DJJJFHEO@texture?5filtering@ 0054b020     texture.obj
 0002:00026034       ??_C@_09OPCNOONF@trilinear@ 0054b034     texture.obj
 0002:00026040       ??_C@_08LJMMPFJO@bilinear@ 0054b040     texture.obj
 0002:0002604c       ??_C@_05FJGLFCGH@aniso@    0054b04c     texture.obj
 0002:00026054       ??_C@_0P@DGBHLMID@create?5surface@ 0054b054     texture.obj
 0002:00026064       ??_C@_0BD@LPLBALKK@texture?5resolution@ 0054b064     texture.obj
 0002:00026078       ??_C@_0O@CMFABFNA@hirestextures@ 0054b078     texture.obj
 0002:00026088       ??_C@_0BK@FFEJBACN@could?5not?5load?5texture?5?$CFs@ 0054b088     texture.obj
 0002:000260a4       ??_C@_0BJ@IIJDHNGD@couldn?8t?5load?5texture?5?$CFs@ 0054b0a4     texture.obj
 0002:000260c0       ??_C@_0M@OHGPHIKK@playermodel@ 0054b0c0     texture.obj
 0002:000260cc       ??_C@_04NHPAFEHJ@skin@     0054b0cc     texture.obj
 0002:000260d4       ??_C@_06GEPNGEJI@weapon@   0054b0d4     texture.obj
 0002:000260dc       ??_C@_0CJ@IAMDLPGP@texture?5must?5be?58?0?516?0?524?0?5or?53@ 0054b0dc     texture.obj
 0002:00026108       ??_C@_0CH@JOLLJKJH@texture?5size?5exceeded?5?$CFdx?$CFd?5pix@ 0054b108     texture.obj
 0002:00026130       ??_C@_05CFEEDGHM@decal@    0054b130     texture.obj
 0002:00026138       ??_C@_0N@OCBMDGMM@?$CF?47g?5?5?5?5?5?5?5?5@ 0054b138     texture.obj
 0002:00026148       ??_C@_0N@GHEGLPKK@texturereset@ 0054b148     texture.obj
 0002:00026158       ??_C@_01KMDKNFGN@?1@       0054b158     texture.obj
 0002:0002615c       ??_C@_01PPODPGHN@?$DO@     0054b15c     texture.obj
 0002:00026160       ??_C@_0L@CJKOEDEN@map_editor@ 0054b160     texture.obj
 0002:0002616c       ??_C@_0BC@HFAJHCOP@?$AM3bad?5texture?3?5?$CFs@ 0054b16c     texture.obj
 0002:00026180       ??_C@_0ED@CBAIPGNB@?$AM3texture?5slot?5?$CD?$CFd?5?$CC?$CFs?$CC?5error?3?5@ 0054b180     texture.obj
 0002:000261c4       ??_C@_02EIPGLLEK@fs@       0054b1c4     texture.obj
 0002:000261c8       ??_C@_07JDHEGGGP@texture@  0054b1c8     texture.obj
 0002:000261d0       ??_C@_0BA@NDBLELIP@texture?5?$CFs?5?$CC?$CFs?$CC@ 0054b1d0     texture.obj
 0002:000261e0       ??_C@_0BF@LIAGKKNK@packages?1textures?1?$CFs@ 0054b1e0     texture.obj
 0002:000261f8       ??_C@_07MIIENBA@loadsky@   0054b1f8     texture.obj
 0002:00026200       ??_C@_02HCNENIII@lf@       0054b200     texture.obj
 0002:00026204       ??_C@_02BMJICGCB@rt@       0054b204     texture.obj
 0002:00026208       ??_C@_02HLHCNIN@ft@        0054b208     texture.obj
 0002:0002620c       ??_C@_02MNOEILMP@bk@       0054b20c     texture.obj
 0002:00026210       ??_C@_02LEBOADDI@dn@       0054b210     texture.obj
 0002:00026214       ??_C@_02HNLLPFKA@up@       0054b214     texture.obj
 0002:00026218       ??_C@_0BC@CCMKOCDD@textures?1skymaps?1@ 0054b218     texture.obj
 0002:0002622c       ??_C@_0BF@CMLACFK@packages?1?$CFs?$CFs_?$CFs?4jpg@ 0054b22c     texture.obj
 0002:00026244       ??_C@_0CJ@HDDAIJCE@could?5not?5load?5alternative?5text@ 0054b244     texture.obj
 0002:00026270       ??_C@_0O@LHEIGOMF@loadnotexture@ 0054b270     texture.obj
 0002:00026280       ??_C@_0N@DIFMGDFN@getnotexture@ 0054b280     texture.obj
 0002:00026290       ??_C@_07NKMFDOIM@skyclip@  0054b290     texture.obj
 0002:00026298       ??_C@_07IILFLEFO@maxtmus@  0054b298     texture.obj
 0002:000262a0       ??_C@_0CG@JJDCCOAC@packages?1textures?1map_editor?1wa@ 0054b2a0     texture.obj
 0002:000262c8       ??_C@_0CH@BBHBMJI@packages?1textures?1map_editor?1fl@ 0054b2c8     texture.obj
 0002:000262f0       ??_C@_0CG@LOGMBMCC@packages?1textures?1map_editor?1ce@ 0054b2f0     texture.obj
 0002:00026318       ??_C@_0M@HNEDOICN@Guide?3?5?$AM0on@ 0054b318     texture.obj
 0002:00026324       ??_C@_0N@PLAEDBKL@Guide?3?5?$AMBoff@ 0054b324     texture.obj
 0002:00026334       ??_C@_0CN@CEFAHMLD@?$AMBGuide?5view?5is?5only?5available?5@ 0054b334     texture.obj
 0002:00026364       ??_C@_0M@NGMCJDJN@guidetoggle@ 0054b364     texture.obj
 0002:00026370       ??_C@_04GNPKBLNA@?4jpg@    0054b370     texture.obj
 0002:00026378       ??_C@_0BC@OCMDOOPK@packages?1textures@ 0054b378     texture.obj
 0002:0002638c       ??_C@_0BD@EPJGOAIB@packages?1textures?1@ 0054b38c     texture.obj
 0002:000263a0       ??_C@_09DPACILDJ@?$CC?$CFs?$CC?5?$CC?$CFs?$CC@ 0054b3a0     texture.obj
 0002:000263ac       ??_C@_05JEHJOICL@?5?$CC?$CFs?$CC@ 0054b3ac     texture.obj
 0002:000263b4       ??_C@_03PFJENDKN@sss@      0054b3b4     texture.obj
 0002:000263b8       ??_C@_0P@NEIBONC@gettexturelist@ 0054b3b8     texture.obj
 0002:000263c8       ??_C@_0BA@PAOGKBOP@onlymostvisible@ 0054b3c8     texture.obj
 0002:000263d8       ??_C@_0N@DNGDHAOA@onlygeometry@ 0054b3d8     texture.obj
 0002:000263e8       ??_C@_0L@KHGELOEC@onlymodels@ 0054b3e8     texture.obj
 0002:000263f4       ??_C@_0CN@OELMOODL@wall?5?$CFd?5floor?5?$CFd?5ceiling?5?$CFd?5?$CCup@ 0054b3f4     texture.obj
 0002:00026424       ??_C@_06OAAEEMKA@?$CFd?5?$CFd?5@ 0054b424     texture.obj
 0002:0002642c       ??_C@_0BF@EINOEGHO@textureslotusagelist@ 0054b42c     texture.obj
 0002:00026444       ??_C@_0BB@JDFLKJNE@textureslotusage@ 0054b444     texture.obj
 0002:00026458       ??_C@_0BC@LCDDJBEC@deletetextureslot@ 0054b458     texture.obj
 0002:0002646c       ??_C@_0DG@LOLKDMAB@texture?5slots?5below?5?$CD?$CFd?5should?5@ 0054b46c     texture.obj
 0002:000264a4       ??_C@_0CJ@MLNAEKII@texture?5slot?5?$CD?$CFd?5is?5in?5use?3?5can@ 0054b4a4     texture.obj
 0002:000264d0       ??_C@_0BD@CDCNKNGH@?5?$CI?$CFd?5uses?5removed?$CJ@ 0054b4d0     texture.obj
 0002:000264e4       ??_C@_0CD@KKKNAEOA@?5?$CI?$CFd?5uses?5changed?5to?5use?5slot?5?$CD@ 0054b4e4     texture.obj
 0002:00026508       ??_C@_0BL@CELGCHIE@texture?5slot?5?$CD?$CFd?5deleted?$CFs@ 0054b508     texture.obj
 0002:00026524       ??_C@_03MKDAGEFG@iss@      0054b524     texture.obj
 0002:00026528       ??_C@_0BA@IOOCFHNA@edittextureslot@ 0054b528     texture.obj
 0002:00026538       ??_C@_07CMIPDAGF@?$CFs?5?$CC?$CFs?$CC@ 0054b538     texture.obj
 0002:00026540       ??_C@_01KDCPPGHE@r@        0054b540     texture.obj
 0002:00026544       ??_C@_03LCAAOJEC@zip@      0054b544     texture.obj
 0002:00026548       ??_C@_08FDNEBLPN@official@ 0054b548     texture.obj
 0002:00026554       ??_C@_0BB@OKMAJGNI@?$DMfile?5not?5found?$DO@ 0054b554     texture.obj
 0002:00026568       ??_C@_06EKNFNOKI@custom@   0054b568     texture.obj
 0002:00026570       ??_C@_0BA@BBHCLGDN@package?5dir?5?$CD?$CFd@ 0054b570     texture.obj
 0002:00026580       ??_C@_0BB@MFHMLOKH@gettextureorigin@ 0054b580     texture.obj
 0002:00026594       ??_C@_0BC@DDGNMKBF@textureslotbyname@ 0054b594     texture.obj
 0002:000265a8       ??_C@_0CM@LOJPBDFA@added?5texture?5?$CC?$CFs?$CC?5?$CIscale?5?$CF?47g?$CJ@ 0054b5a8     texture.obj
 0002:000265d8       ??_C@_0EF@FLLFDGDC@?$AM3failed?5to?5add?5texture?5?$CC?$CFs?$CC?5?$CIs@ 0054b5d8     texture.obj
 0002:00026620       ??_C@_0CI@HFBNLFDG@sorttextureslots?3?5unknown?5argum@ 0054b620     texture.obj
 0002:00026648       ??_C@_0BB@PCGHCGMP@sorttextureslots@ 0054b648     texture.obj
 0002:0002665c       ??_C@_0CG@LNDAJEO@?$CFd?5texture?5slots?$CFs?0?5?$CFd?5?$CFsslots?5@ 0054b65c     texture.obj
 0002:00026684       ??_C@_09JGOMOAGJ@connected@ 0054b684     client.obj
 0002:00026690       ??_C@_03EKLFPLOI@n?1a@     0054b690     client.obj
 0002:00026694       ??_C@_0M@CFHDFFGD@curdemofile@ 0054b694     client.obj
 0002:000266a0       ??_C@_01BJJEKLCA@?$CC@     0054b6a0     client.obj
 0002:000266a4       ??_C@_09BOOHIMDB@operation@ 0054b6a4     client.obj
 0002:000266b0       ??_C@_0CE@BEPKBMOE@?$CFs?$CFs?$CFs?5not?5available?5in?5multipl@ 0054b6b0     client.obj
 0002:000266d4       ??_C@_0DC@KLLBGCCJ@editing?5in?5multiplayer?5requires@ 0054b6d4     client.obj
 0002:00026708       ??_C@_0BC@HEEPLBOG@throttle_interval@ 0054b708     client.obj
 0002:0002671c       ??_C@_0P@GOIDANDD@throttle_accel@ 0054b71c     client.obj
 0002:0002672c       ??_C@_0P@LBAOGJCA@throttle_decel@ 0054b72c     client.obj
 0002:0002673c       ??_C@_0BM@JCJFMNM@aborting?5connection?5attempt@ 0054b73c     client.obj
 0002:00026758       ??_C@_09OPMDPJID@?$AM8admin?$AM2@ 0054b758     client.obj
 0002:00026764       ??_C@_0CJ@BFFIFHCL@?$AM2attempting?5to?5?$CFsconnect?5to?5?$AM5@ 0054b764     client.obj
 0002:00026790       ??_C@_0CG@EKHHAKDM@?$AM2could?5?$AM3not?5resolve?$AM2?5server?5@ 0054b790     client.obj
 0002:000267b8       ??_C@_0CF@KPBEHJLD@?$AM2attempting?5to?5connect?5over?5?$AM1@ 0054b7b8     client.obj
 0002:000267e0       ??_C@_0CC@JGBAGELJ@?$AM2could?5?$AM3not?5connect?$AM2?5to?5serv@ 0054b7e0     client.obj
 0002:00026804       ??_C@_0BB@BJGHPECE@assaultcube?3?1?1?$CFs@ 0054b804     client.obj
 0002:00026818       ??_C@_03HODKBCIO@?3?$CFd@  0054b818     client.obj
 0002:0002681c       ??_C@_0O@DNBLCMAL@?1?$DPpassword?$DN?$CFs@ 0054b81c     client.obj
 0002:0002682c       ??_C@_06DIJPEION@?$CFs?$CFs?$CFs@ 0054b82c     client.obj
 0002:00026834       ??_C@_0CL@MLOHGEOB@?$AM5?4?4?5?$AM2waiting?5?$AM4for?5?$AMUauth?$AM5en@ 0054b834     client.obj
 0002:00026860       ??_C@_0P@PPPLCHAP@enter?5password@ 0054b860     client.obj
 0002:00026870       ??_C@_03OECFPFAL@sis@      0054b870     client.obj
 0002:00026874       ??_C@_07KAIBNCHO@connect@  0054b874     client.obj
 0002:0002687c       ??_C@_0N@FOGBHGMI@connectadmin@ 0054b87c     client.obj
 0002:0002688c       ??_C@_0L@FOGOINHM@lanconnect@ 0054b88c     client.obj
 0002:00026898       ??_C@_0L@BEAHOIJB@modconnect@ 0054b898     client.obj
 0002:000268a4       ??_C@_0BA@OGCDCIN@modconnectadmin@ 0054b8a4     client.obj
 0002:000268b4       ??_C@_0O@NNKCOCDJ@modlanconnect@ 0054b8b4     client.obj
 0002:000268c4       ??_C@_0N@GGGDBMDO@disconnected@ 0054b8c4     client.obj
 0002:000268d4       ??_C@_0N@KAHKEBCP@onDisconnect@ 0054b8d4     client.obj
 0002:000268e4       ??_C@_0O@GLMIBBEG@not?5connected@ 0054b8e4     client.obj
 0002:000268f4       ??_C@_0BM@KHAAGKOC@attempting?5to?5disconnect?4?4?4@ 0054b8f4     client.obj
 0002:00026910       ??_C@_0L@KKPFIJOL@disconnect@ 0054b910     client.obj
